; Listing generated by Microsoft (R) Optimizing Compiler Version 19.37.32822.0 

include listing.inc

INCLUDELIB MSVCRTD
INCLUDELIB OLDNAMES

msvcjmc	SEGMENT
__A316769D_countDaysToBDay@cpp DB 01H
msvcjmc	ENDS
PUBLIC	?countBirthdayDate@@YAHHHQEAH@Z			; countBirthdayDate
PUBLIC	__JustMyCode_Default
EXTRN	_RTC_InitBase:PROC
EXTRN	_RTC_Shutdown:PROC
EXTRN	__CheckForDebuggerJustMyCode:PROC
;	COMDAT pdata
pdata	SEGMENT
$pdata$?countBirthdayDate@@YAHHHQEAH@Z DD imagerel $LN6
	DD	imagerel $LN6+131
	DD	imagerel $unwind$?countBirthdayDate@@YAHHHQEAH@Z
pdata	ENDS
;	COMDAT rtc$TMZ
rtc$TMZ	SEGMENT
_RTC_Shutdown.rtc$TMZ DQ FLAT:_RTC_Shutdown
rtc$TMZ	ENDS
;	COMDAT rtc$IMZ
rtc$IMZ	SEGMENT
_RTC_InitBase.rtc$IMZ DQ FLAT:_RTC_InitBase
rtc$IMZ	ENDS
;	COMDAT xdata
xdata	SEGMENT
$unwind$?countBirthdayDate@@YAHHHQEAH@Z DD 025051b01H
	DD	0116231bH
	DD	0700f0025H
	DD	0500eH
xdata	ENDS
; Function compile flags: /Odt
;	COMDAT __JustMyCode_Default
_TEXT	SEGMENT
__JustMyCode_Default PROC				; COMDAT
  00000	c2 00 00	 ret	 0
__JustMyCode_Default ENDP
_TEXT	ENDS
; Function compile flags: /Odtp /RTCsu /ZI
; File C:\Users\user\Desktop\education\кпо\лаб 1\lab01\lab01\countDaysToBDay.cpp
;	COMDAT ?countBirthdayDate@@YAHHHQEAH@Z
_TEXT	SEGMENT
count$ = 4
i$1 = 36
day$ = 288
month$ = 296
daysArray$ = 304
?countBirthdayDate@@YAHHHQEAH@Z PROC			; countBirthdayDate, COMDAT

; 1    : int countBirthdayDate(int day, int month, int daysArray[]) {

$LN6:
  00000	4c 89 44 24 18	 mov	 QWORD PTR [rsp+24], r8
  00005	89 54 24 10	 mov	 DWORD PTR [rsp+16], edx
  00009	89 4c 24 08	 mov	 DWORD PTR [rsp+8], ecx
  0000d	55		 push	 rbp
  0000e	57		 push	 rdi
  0000f	48 81 ec 28 01
	00 00		 sub	 rsp, 296		; 00000128H
  00016	48 8d 6c 24 20	 lea	 rbp, QWORD PTR [rsp+32]
  0001b	48 8d 0d 00 00
	00 00		 lea	 rcx, OFFSET FLAT:__A316769D_countDaysToBDay@cpp
  00022	e8 00 00 00 00	 call	 __CheckForDebuggerJustMyCode

; 2    :     int count = 0;

  00027	c7 45 04 00 00
	00 00		 mov	 DWORD PTR count$[rbp], 0

; 3    :     for (int i = 0; i < month - 1; i++) {

  0002e	c7 45 24 00 00
	00 00		 mov	 DWORD PTR i$1[rbp], 0
  00035	eb 08		 jmp	 SHORT $LN4@countBirth
$LN2@countBirth:
  00037	8b 45 24	 mov	 eax, DWORD PTR i$1[rbp]
  0003a	ff c0		 inc	 eax
  0003c	89 45 24	 mov	 DWORD PTR i$1[rbp], eax
$LN4@countBirth:
  0003f	8b 85 28 01 00
	00		 mov	 eax, DWORD PTR month$[rbp]
  00045	ff c8		 dec	 eax
  00047	39 45 24	 cmp	 DWORD PTR i$1[rbp], eax
  0004a	7d 1a		 jge	 SHORT $LN3@countBirth

; 4    :         count += daysArray[i];

  0004c	48 63 45 24	 movsxd	 rax, DWORD PTR i$1[rbp]
  00050	48 8b 8d 30 01
	00 00		 mov	 rcx, QWORD PTR daysArray$[rbp]
  00057	8b 04 81	 mov	 eax, DWORD PTR [rcx+rax*4]
  0005a	8b 4d 04	 mov	 ecx, DWORD PTR count$[rbp]
  0005d	03 c8		 add	 ecx, eax
  0005f	8b c1		 mov	 eax, ecx
  00061	89 45 04	 mov	 DWORD PTR count$[rbp], eax

; 5    :     }

  00064	eb d1		 jmp	 SHORT $LN2@countBirth
$LN3@countBirth:

; 6    :     count = count + day;

  00066	8b 85 20 01 00
	00		 mov	 eax, DWORD PTR day$[rbp]
  0006c	8b 4d 04	 mov	 ecx, DWORD PTR count$[rbp]
  0006f	03 c8		 add	 ecx, eax
  00071	8b c1		 mov	 eax, ecx
  00073	89 45 04	 mov	 DWORD PTR count$[rbp], eax

; 7    :     return count;

  00076	8b 45 04	 mov	 eax, DWORD PTR count$[rbp]

; 8    : }

  00079	48 8d a5 08 01
	00 00		 lea	 rsp, QWORD PTR [rbp+264]
  00080	5f		 pop	 rdi
  00081	5d		 pop	 rbp
  00082	c3		 ret	 0
?countBirthdayDate@@YAHHHQEAH@Z ENDP			; countBirthdayDate
_TEXT	ENDS
END
