; Listing generated by Microsoft (R) Optimizing Compiler Version 19.37.32822.0 

include listing.inc

INCLUDELIB MSVCRTD
INCLUDELIB OLDNAMES

msvcjmc	SEGMENT
__2972590E_concurrencysal@h DB 01H
__196CC136_sal@h DB 01H
__C395F66A_vadefs@h DB 01H
__D5C25611_vcruntime@h DB 01H
__311F130C_xkeycheck@h DB 01H
__AEBEEEE9_yvals_core@h DB 01H
__05EEB633_limits@h DB 01H
__7CE37BCF_climits DB 01H
__1B0272D9_corecrt@h DB 01H
__D5F74309_vcruntime_new@h DB 01H
__ED298667_vcruntime_new_debug@h DB 01H
__935DC21B_crtdbg@h DB 01H
__B40C025A_crtdefs@h DB 01H
__97CA0262_use_ansi@h DB 01H
__4E4CEF82_yvals@h DB 01H
__BB16330F_corecrt_math@h DB 01H
__3BF2A406_math@h DB 01H
__45DED006_corecrt_malloc@h DB 01H
__13F5961F_stddef@h DB 01H
__FD6DBD68_corecrt_search@h DB 01H
__E2E33A61_corecrt_wstdlib@h DB 01H
__6E5ACABA_stdlib@h DB 01H
__F80C593D_cstdlib DB 01H
__6CC4302B_xtr1common DB 01H
__7178C802_intrin0@inl@h DB 01H
__AD21BB51_intrin0@h DB 01H
__7BD6CF81_cmath DB 01H
__44420885_corecrt_stdio_config@h DB 01H
__AB601D8D_corecrt_wstdio@h DB 01H
__C1EC35D3_stdio@h DB 01H
__FAE305CF_cstdio DB 01H
__61CC25A1_errno@h DB 01H
__4BC88476_vcruntime_string@h DB 01H
__E4C945B4_corecrt_memcpy_s@h DB 01H
__8EAFF484_corecrt_memory@h DB 01H
__6490AEC5_corecrt_wstring@h DB 01H
__E8295E1E_string@h DB 01H
__B49EF1DD_cstring DB 01H
__EF1F6BBA_corecrt_wconio@h DB 01H
__74484FB3_corecrt_wctype@h DB 01H
__3D1D430C_corecrt_wdirect@h DB 01H
__8ECB7138_corecrt_share@h DB 01H
__DB7FEBA6_corecrt_wio@h DB 01H
__9A9F0068_corecrt_wprocess@h DB 01H
__369A9BC3_corecrt_wtime@h DB 01H
__CE789B9D_types@h DB 01H
__9901C817_stat@h DB 01H
__3FCAD62E_wchar@h DB 01H
__6068D39C_cwchar DB 01H
__23A856AA_iosfwd DB 01H
__5DC78390_cstddef DB 01H
__33B42F3D_initializer_list DB 01H
__BB98980C_stdint@h DB 01H
__4552B840_cstdint DB 01H
__7FB6D5C7_type_traits DB 01H
__CF01DCB6_utility DB 01H
__12DC71E1___msvc_iter_core@hpp DB 01H
__D740E0F1_xutility DB 01H
__C6EC57B1_iterator DB 01H
__F7972D0B_share@h DB 01H
__3D410F40___msvc_system_error_abi@hpp DB 01H
__67C27134_cerrno DB 01H
__FA77ED4C_malloc@h DB 01H
__89766DA4_corecrt_terminate@h DB 01H
__27A4BD10_eh@h DB 01H
__E5C78335_vcruntime_exception@h DB 01H
__7C536CCC_exception DB 01H
__B9985323_float@h DB 01H
__89A7CE48_cfloat DB 01H
__98438E05_isa_availability@h DB 01H
__EF41832C_limits DB 01H
__0DB0C2E5_new DB 01H
__765FE01A_xatomic@h DB 01H
__A594BF75_xmemory DB 01H
__DFFCB714___msvc_sanitizer_annotate_container@hpp DB 01H
__D14739E9_xstring DB 01H
__F51D5691_stdexcept DB 01H
__ED2630B9_xcall_once@h DB 01H
__E6D9FA8D_xerrc@h DB 01H
__0A9237D2_time@h DB 01H
__BD655389_ctime DB 01H
__618403B0_xtimec@h DB 01H
__F68435D1_xthreads@h DB 01H
__8474DFEE_atomic DB 01H
__527B2299_system_error DB 01H
__0632977E_vcruntime_typeinfo@h DB 01H
__A79F13E8_typeinfo DB 01H
__53EF8FA2_memory DB 01H
__7FAAD8AD_xfacet DB 01H
__53FF2065___msvc_xlocinfo_types@hpp DB 01H
__1EC467ED_ctype@h DB 01H
__F528E268_cctype DB 01H
__791C33B7_locale@h DB 01H
__6BA085EC_clocale DB 01H
__B816F020_xlocinfo DB 01H
__0E794DD8_xlocale DB 01H
__81F38733_xiosbase DB 01H
__F7BDEE2D_streambuf DB 01H
__90FE2BCF_xlocnum DB 01H
__F57DF8F3_ios DB 01H
__1D69971C_ostream DB 01H
__7EB9A226_istream DB 01H
__B5399AEE_iostream DB 01H
__273C093E_string DB 01H
__94D33B5C_stdafx@h DB 01H
__4F602630_lab01@cpp DB 01H
msvcjmc	ENDS
PUBLIC	?__empty_global_delete@@YAXPEAX@Z		; __empty_global_delete
PUBLIC	?__empty_global_delete@@YAXPEAX_K@Z		; __empty_global_delete
PUBLIC	??2@YAPEAX_KPEAX@Z				; operator new
PUBLIC	??0exception@std@@QEAA@QEBDH@Z			; std::exception::exception
PUBLIC	??0exception@std@@QEAA@AEBV01@@Z		; std::exception::exception
PUBLIC	??1exception@std@@UEAA@XZ			; std::exception::~exception
PUBLIC	?what@exception@std@@UEBAPEBDXZ			; std::exception::what
PUBLIC	??_Gexception@std@@UEAAPEAXI@Z			; std::exception::`scalar deleting destructor'
PUBLIC	??0bad_alloc@std@@AEAA@QEBD@Z			; std::bad_alloc::bad_alloc
PUBLIC	??1bad_alloc@std@@UEAA@XZ			; std::bad_alloc::~bad_alloc
PUBLIC	??0bad_alloc@std@@QEAA@AEBV01@@Z		; std::bad_alloc::bad_alloc
PUBLIC	??_Gbad_alloc@std@@UEAAPEAXI@Z			; std::bad_alloc::`scalar deleting destructor'
PUBLIC	??0bad_array_new_length@std@@QEAA@XZ		; std::bad_array_new_length::bad_array_new_length
PUBLIC	??1bad_array_new_length@std@@UEAA@XZ		; std::bad_array_new_length::~bad_array_new_length
PUBLIC	??0bad_array_new_length@std@@QEAA@AEBV01@@Z	; std::bad_array_new_length::bad_array_new_length
PUBLIC	??_Gbad_array_new_length@std@@UEAAPEAXI@Z	; std::bad_array_new_length::`scalar deleting destructor'
PUBLIC	?_Throw_bad_array_new_length@std@@YAXXZ		; std::_Throw_bad_array_new_length
PUBLIC	?max@?$numeric_limits@_J@std@@SA_JXZ		; std::numeric_limits<__int64>::max
PUBLIC	?_Allocate@_Default_allocate_traits@std@@SAPEAX_K@Z ; std::_Default_allocate_traits::_Allocate
PUBLIC	?_Adjust_manually_vector_aligned@std@@YAXAEAPEAXAEA_K@Z ; std::_Adjust_manually_vector_aligned
PUBLIC	??0_Container_proxy@std@@QEAA@PEAU_Container_base12@1@@Z ; std::_Container_proxy::_Container_proxy
PUBLIC	??0_Container_base12@std@@QEAA@XZ		; std::_Container_base12::_Container_base12
PUBLIC	?_Orphan_all@_Container_base12@std@@QEAAXXZ	; std::_Container_base12::_Orphan_all
PUBLIC	?_Swap_proxy_and_iterators@_Container_base12@std@@QEAAXAEAU12@@Z ; std::_Container_base12::_Swap_proxy_and_iterators
PUBLIC	?_Orphan_all_unlocked_v3@_Container_base12@std@@AEAAXXZ ; std::_Container_base12::_Orphan_all_unlocked_v3
PUBLIC	?_Swap_proxy_and_iterators_unlocked@_Container_base12@std@@AEAAXAEAU12@@Z ; std::_Container_base12::_Swap_proxy_and_iterators_unlocked
PUBLIC	?_Orphan_all_locked_v3@_Container_base12@std@@AEAAXXZ ; std::_Container_base12::_Orphan_all_locked_v3
PUBLIC	?_Swap_proxy_and_iterators_locked@_Container_base12@std@@AEAAXAEAU12@@Z ; std::_Container_base12::_Swap_proxy_and_iterators_locked
PUBLIC	??$exchange@PEAU_Iterator_base12@std@@$$T@std@@YAPEAU_Iterator_base12@0@AEAPEAU10@$$QEA$$T@Z ; std::exchange<std::_Iterator_base12 *,std::nullptr_t>
PUBLIC	?_Release@_Basic_container_proxy_ptr12@std@@QEAAXXZ ; std::_Basic_container_proxy_ptr12::_Release
PUBLIC	??0_Basic_container_proxy_ptr12@std@@IEAA@XZ	; std::_Basic_container_proxy_ptr12::_Basic_container_proxy_ptr12
PUBLIC	??$addressof@U_Container_base12@std@@@std@@YAPEAU_Container_base12@0@AEAU10@@Z ; std::addressof<std::_Container_base12>
PUBLIC	??$_Construct_in_place@U_Container_proxy@std@@PEAU_Container_base12@2@@std@@YAXAEAU_Container_proxy@0@$$QEAPEAU_Container_base12@0@@Z ; std::_Construct_in_place<std::_Container_proxy,std::_Container_base12 *>
PUBLIC	?copy@?$_Char_traits@DH@std@@SAPEADQEADQEBD_K@Z	; std::_Char_traits<char,int>::copy
PUBLIC	?length@?$_Narrow_char_traits@DH@std@@SA_KQEBD@Z ; std::_Narrow_char_traits<char,int>::length
PUBLIC	?assign@?$_Narrow_char_traits@DH@std@@SAXAEADAEBD@Z ; std::_Narrow_char_traits<char,int>::assign
PUBLIC	?to_char_type@?$_Narrow_char_traits@DH@std@@SADAEBH@Z ; std::_Narrow_char_traits<char,int>::to_char_type
PUBLIC	?eq_int_type@?$_Narrow_char_traits@DH@std@@SA_NAEBH0@Z ; std::_Narrow_char_traits<char,int>::eq_int_type
PUBLIC	?eof@?$_Narrow_char_traits@DH@std@@SAHXZ	; std::_Narrow_char_traits<char,int>::eof
PUBLIC	?_Xlen_string@std@@YAXXZ			; std::_Xlen_string
PUBLIC	??0?$allocator@D@std@@QEAA@XZ			; std::allocator<char>::allocator<char>
PUBLIC	?deallocate@?$allocator@D@std@@QEAAXQEAD_K@Z	; std::allocator<char>::deallocate
PUBLIC	?allocate@?$allocator@D@std@@QEAAPEAD_K@Z	; std::allocator<char>::allocate
PUBLIC	?max_size@?$_Default_allocator_traits@V?$allocator@D@std@@@std@@SA_KAEBV?$allocator@D@2@@Z ; std::_Default_allocator_traits<std::allocator<char> >::max_size
PUBLIC	??0?$_String_val@U?$_Simple_types@D@std@@@std@@QEAA@XZ ; std::_String_val<std::_Simple_types<char> >::_String_val<std::_Simple_types<char> >
PUBLIC	?_Myptr@?$_String_val@U?$_Simple_types@D@std@@@std@@QEAAPEADXZ ; std::_String_val<std::_Simple_types<char> >::_Myptr
PUBLIC	?_Myptr@?$_String_val@U?$_Simple_types@D@std@@@std@@QEBAPEBDXZ ; std::_String_val<std::_Simple_types<char> >::_Myptr
PUBLIC	?_Large_string_engaged@?$_String_val@U?$_Simple_types@D@std@@@std@@QEBA_NXZ ; std::_String_val<std::_Simple_types<char> >::_Large_string_engaged
PUBLIC	?_Activate_SSO_buffer@?$_String_val@U?$_Simple_types@D@std@@@std@@QEAAXXZ ; std::_String_val<std::_Simple_types<char> >::_Activate_SSO_buffer
PUBLIC	?_Check_offset@?$_String_val@U?$_Simple_types@D@std@@@std@@QEBAX_K@Z ; std::_String_val<std::_Simple_types<char> >::_Check_offset
PUBLIC	?_Xran@?$_String_val@U?$_Simple_types@D@std@@@std@@SAXXZ ; std::_String_val<std::_Simple_types<char> >::_Xran
PUBLIC	?_Clamp_suffix_size@?$_String_val@U?$_Simple_types@D@std@@@std@@QEBA_K_K0@Z ; std::_String_val<std::_Simple_types<char> >::_Clamp_suffix_size
PUBLIC	??0_Bxty@?$_String_val@U?$_Simple_types@D@std@@@std@@QEAA@XZ ; std::_String_val<std::_Simple_types<char> >::_Bxty::_Bxty
PUBLIC	??1_Bxty@?$_String_val@U?$_Simple_types@D@std@@@std@@QEAA@XZ ; std::_String_val<std::_Simple_types<char> >::_Bxty::~_Bxty
PUBLIC	??1?$_String_val@U?$_Simple_types@D@std@@@std@@QEAA@XZ ; std::_String_val<std::_Simple_types<char> >::~_String_val<std::_Simple_types<char> >
PUBLIC	??0?$basic_string@DU?$char_traits@D@std@@V?$allocator@D@2@@std@@QEAA@XZ ; std::basic_string<char,std::char_traits<char>,std::allocator<char> >::basic_string<char,std::char_traits<char>,std::allocator<char> >
PUBLIC	??0?$basic_string@DU?$char_traits@D@std@@V?$allocator@D@2@@std@@QEAA@AEBV01@_K1AEBV?$allocator@D@1@@Z ; std::basic_string<char,std::char_traits<char>,std::allocator<char> >::basic_string<char,std::char_traits<char>,std::allocator<char> >
PUBLIC	?_Start_element_lifetimes@?$basic_string@DU?$char_traits@D@std@@V?$allocator@D@2@@std@@CAXQEAD_K@Z ; std::basic_string<char,std::char_traits<char>,std::allocator<char> >::_Start_element_lifetimes
PUBLIC	??4?$basic_string@DU?$char_traits@D@std@@V?$allocator@D@2@@std@@QEAAAEAV01@$$QEAV01@@Z ; std::basic_string<char,std::char_traits<char>,std::allocator<char> >::operator=
PUBLIC	?_Memcpy_val_from@?$basic_string@DU?$char_traits@D@std@@V?$allocator@D@2@@std@@AEAAXAEBV12@@Z ; std::basic_string<char,std::char_traits<char>,std::allocator<char> >::_Memcpy_val_from
PUBLIC	?_Take_contents@?$basic_string@DU?$char_traits@D@std@@V?$allocator@D@2@@std@@AEAAXAEAV12@@Z ; std::basic_string<char,std::char_traits<char>,std::allocator<char> >::_Take_contents
PUBLIC	??1?$basic_string@DU?$char_traits@D@std@@V?$allocator@D@2@@std@@QEAA@XZ ; std::basic_string<char,std::char_traits<char>,std::allocator<char> >::~basic_string<char,std::char_traits<char>,std::allocator<char> >
PUBLIC	?erase@?$basic_string@DU?$char_traits@D@std@@V?$allocator@D@2@@std@@QEAAAEAV12@_K@Z ; std::basic_string<char,std::char_traits<char>,std::allocator<char> >::erase
PUBLIC	?push_back@?$basic_string@DU?$char_traits@D@std@@V?$allocator@D@2@@std@@QEAAXD@Z ; std::basic_string<char,std::char_traits<char>,std::allocator<char> >::push_back
PUBLIC	?c_str@?$basic_string@DU?$char_traits@D@std@@V?$allocator@D@2@@std@@QEBAPEBDXZ ; std::basic_string<char,std::char_traits<char>,std::allocator<char> >::c_str
PUBLIC	?size@?$basic_string@DU?$char_traits@D@std@@V?$allocator@D@2@@std@@QEBA_KXZ ; std::basic_string<char,std::char_traits<char>,std::allocator<char> >::size
PUBLIC	?max_size@?$basic_string@DU?$char_traits@D@std@@V?$allocator@D@2@@std@@QEBA_KXZ ; std::basic_string<char,std::char_traits<char>,std::allocator<char> >::max_size
PUBLIC	?substr@?$basic_string@DU?$char_traits@D@std@@V?$allocator@D@2@@std@@QEBA?AV12@_K0@Z ; std::basic_string<char,std::char_traits<char>,std::allocator<char> >::substr
PUBLIC	?_Calculate_growth@?$basic_string@DU?$char_traits@D@std@@V?$allocator@D@2@@std@@CA_K_K00@Z ; std::basic_string<char,std::char_traits<char>,std::allocator<char> >::_Calculate_growth
PUBLIC	?_Calculate_growth@?$basic_string@DU?$char_traits@D@std@@V?$allocator@D@2@@std@@AEBA_K_K@Z ; std::basic_string<char,std::char_traits<char>,std::allocator<char> >::_Calculate_growth
PUBLIC	?_Eos@?$basic_string@DU?$char_traits@D@std@@V?$allocator@D@2@@std@@AEAAX_K@Z ; std::basic_string<char,std::char_traits<char>,std::allocator<char> >::_Eos
PUBLIC	?_Tidy_init@?$basic_string@DU?$char_traits@D@std@@V?$allocator@D@2@@std@@AEAAXXZ ; std::basic_string<char,std::char_traits<char>,std::allocator<char> >::_Tidy_init
PUBLIC	?_Tidy_deallocate@?$basic_string@DU?$char_traits@D@std@@V?$allocator@D@2@@std@@AEAAXXZ ; std::basic_string<char,std::char_traits<char>,std::allocator<char> >::_Tidy_deallocate
PUBLIC	?_Swap_proxy_and_iterators@?$basic_string@DU?$char_traits@D@std@@V?$allocator@D@2@@std@@AEAAXAEAV12@@Z ; std::basic_string<char,std::char_traits<char>,std::allocator<char> >::_Swap_proxy_and_iterators
PUBLIC	?_Getal@?$basic_string@DU?$char_traits@D@std@@V?$allocator@D@2@@std@@AEAAAEAV?$allocator@D@2@XZ ; std::basic_string<char,std::char_traits<char>,std::allocator<char> >::_Getal
PUBLIC	?_Getal@?$basic_string@DU?$char_traits@D@std@@V?$allocator@D@2@@std@@AEBAAEBV?$allocator@D@2@XZ ; std::basic_string<char,std::char_traits<char>,std::allocator<char> >::_Getal
PUBLIC	?_Get_first@?$_Compressed_pair@V?$allocator@D@std@@V?$_String_val@U?$_Simple_types@D@std@@@2@$00@std@@QEAAAEAV?$allocator@D@2@XZ ; std::_Compressed_pair<std::allocator<char>,std::_String_val<std::_Simple_types<char> >,1>::_Get_first
PUBLIC	?_Get_first@?$_Compressed_pair@V?$allocator@D@std@@V?$_String_val@U?$_Simple_types@D@std@@@2@$00@std@@QEBAAEBV?$allocator@D@2@XZ ; std::_Compressed_pair<std::allocator<char>,std::_String_val<std::_Simple_types<char> >,1>::_Get_first
PUBLIC	??1?$_Compressed_pair@V?$allocator@D@std@@V?$_String_val@U?$_Simple_types@D@std@@@2@$00@std@@QEAA@XZ ; std::_Compressed_pair<std::allocator<char>,std::_String_val<std::_Simple_types<char> >,1>::~_Compressed_pair<std::allocator<char>,std::_String_val<std::_Simple_types<char> >,1>
PUBLIC	??0bad_cast@std@@QEAA@XZ			; std::bad_cast::bad_cast
PUBLIC	??1bad_cast@std@@UEAA@XZ			; std::bad_cast::~bad_cast
PUBLIC	??0bad_cast@std@@QEAA@AEBV01@@Z			; std::bad_cast::bad_cast
PUBLIC	??_Gbad_cast@std@@UEAAPEAXI@Z			; std::bad_cast::`scalar deleting destructor'
PUBLIC	?_Throw_bad_cast@std@@YAXXZ			; std::_Throw_bad_cast
PUBLIC	??1locale@std@@QEAA@XZ				; std::locale::~locale
PUBLIC	?_Getfacet@locale@std@@QEBAPEBVfacet@12@_K@Z	; std::locale::_Getfacet
PUBLIC	??$use_facet@V?$ctype@D@std@@@std@@YAAEBV?$ctype@D@0@AEBVlocale@0@@Z ; std::use_facet<std::ctype<char> >
PUBLIC	?stoi@std@@YAHAEBV?$basic_string@DU?$char_traits@D@std@@V?$allocator@D@2@@1@PEA_KH@Z ; std::stoi
PUBLIC	main
PUBLIC	??$?6U?$char_traits@D@std@@@std@@YAAEAV?$basic_ostream@DU?$char_traits@D@std@@@0@AEAV10@PEBD@Z ; std::operator<<<std::char_traits<char> >
PUBLIC	??$?5DU?$char_traits@D@std@@V?$allocator@D@1@@std@@YAAEAV?$basic_istream@DU?$char_traits@D@std@@@0@AEAV10@AEAV?$basic_string@DU?$char_traits@D@std@@V?$allocator@D@2@@0@@Z ; std::operator>><char,std::char_traits<char>,std::allocator<char> >
PUBLIC	??$endl@DU?$char_traits@D@std@@@std@@YAAEAV?$basic_ostream@DU?$char_traits@D@std@@@0@AEAV10@@Z ; std::endl<char,std::char_traits<char> >
PUBLIC	??0_Sentry_base@?$basic_ostream@DU?$char_traits@D@std@@@std@@QEAA@AEAV12@@Z ; std::basic_ostream<char,std::char_traits<char> >::_Sentry_base::_Sentry_base
PUBLIC	??1_Sentry_base@?$basic_ostream@DU?$char_traits@D@std@@@std@@QEAA@XZ ; std::basic_ostream<char,std::char_traits<char> >::_Sentry_base::~_Sentry_base
PUBLIC	??0sentry@?$basic_ostream@DU?$char_traits@D@std@@@std@@QEAA@AEAV12@@Z ; std::basic_ostream<char,std::char_traits<char> >::sentry::sentry
PUBLIC	??1sentry@?$basic_ostream@DU?$char_traits@D@std@@@std@@QEAA@XZ ; std::basic_ostream<char,std::char_traits<char> >::sentry::~sentry
PUBLIC	??Bsentry@?$basic_ostream@DU?$char_traits@D@std@@@std@@QEBA_NXZ ; std::basic_ostream<char,std::char_traits<char> >::sentry::operator bool
PUBLIC	??$min@_K@std@@YAAEB_KAEB_K0@Z			; std::min<unsigned __int64>
PUBLIC	?allocate@?$allocator@U_Container_proxy@std@@@std@@QEAAPEAU_Container_proxy@2@_K@Z ; std::allocator<std::_Container_proxy>::allocate
PUBLIC	??$_Delete_plain_internal@V?$allocator@U_Container_proxy@std@@@std@@@std@@YAXAEAV?$allocator@U_Container_proxy@std@@@0@QEAU_Container_proxy@0@@Z ; std::_Delete_plain_internal<std::allocator<std::_Container_proxy> >
PUBLIC	??$_Alloc_proxy@V?$allocator@U_Container_proxy@std@@@std@@@_Container_base12@std@@QEAAX$$QEAV?$allocator@U_Container_proxy@std@@@1@@Z ; std::_Container_base12::_Alloc_proxy<std::allocator<std::_Container_proxy> >
PUBLIC	??$?0D@?$allocator@U_Container_proxy@std@@@std@@QEAA@AEBV?$allocator@D@1@@Z ; std::allocator<std::_Container_proxy>::allocator<std::_Container_proxy><char>
PUBLIC	??$addressof@V?$basic_string@DU?$char_traits@D@std@@V?$allocator@D@2@@std@@@std@@YAPEAV?$basic_string@DU?$char_traits@D@std@@V?$allocator@D@2@@0@AEAV10@@Z ; std::addressof<std::basic_string<char,std::char_traits<char>,std::allocator<char> > >
PUBLIC	??$_Pocma@V?$allocator@D@std@@@std@@YAXAEAV?$allocator@D@0@0@Z ; std::_Pocma<std::allocator<char> >
PUBLIC	??$?0$$V@?$_Compressed_pair@V?$allocator@D@std@@V?$_String_val@U?$_Simple_types@D@std@@@2@$00@std@@QEAA@U_Zero_then_variadic_args_t@1@@Z ; std::_Compressed_pair<std::allocator<char>,std::_String_val<std::_Simple_types<char> >,1>::_Compressed_pair<std::allocator<char>,std::_String_val<std::_Simple_types<char> >,1><>
PUBLIC	??$_Construct@$00PEBD@?$basic_string@DU?$char_traits@D@std@@V?$allocator@D@2@@std@@AEAAXQEBD_K@Z ; std::basic_string<char,std::char_traits<char>,std::allocator<char> >::_Construct<1,char const *>
PUBLIC	??$_Destroy_in_place@PEAD@std@@YAXAEAPEAD@Z	; std::_Destroy_in_place<char *>
PUBLIC	??R<lambda_1>@?1??push_back@?$basic_string@DU?$char_traits@D@std@@V?$allocator@D@2@@std@@QEAAXD@Z@QEBA@QEADQEBD_KD@Z ; `std::basic_string<char,std::char_traits<char>,std::allocator<char> >::push_back'::`2'::<lambda_1>::operator()
PUBLIC	??$_Reallocate_grow_by@V<lambda_1>@?1??push_back@?$basic_string@DU?$char_traits@D@std@@V?$allocator@D@2@@std@@QEAAXD@Z@D@?$basic_string@DU?$char_traits@D@std@@V?$allocator@D@2@@std@@AEAAAEAV01@_KV<lambda_1>@?1??push_back@01@QEAAXD@Z@D@Z ; std::basic_string<char,std::char_traits<char>,std::allocator<char> >::_Reallocate_grow_by<`std::basic_string<char,std::char_traits<char>,std::allocator<char> >::push_back'::`2'::<lambda_1>,char>
PUBLIC	??$_Construct_in_place@PEADAEAPEAD@std@@YAXAEAPEAD0@Z ; std::_Construct_in_place<char *,char * &>
PUBLIC	??$?0AEBV?$allocator@D@std@@$$V@?$_Compressed_pair@V?$allocator@D@std@@V?$_String_val@U?$_Simple_types@D@std@@@2@$00@std@@QEAA@U_One_then_variadic_args_t@1@AEBV?$allocator@D@1@@Z ; std::_Compressed_pair<std::allocator<char>,std::_String_val<std::_Simple_types<char> >,1>::_Compressed_pair<std::allocator<char>,std::_String_val<std::_Simple_types<char> >,1><std::allocator<char> const &>
PUBLIC	??$_Unfancy@D@std@@YAPEADPEAD@Z			; std::_Unfancy<char>
PUBLIC	??$max@_K@std@@YAAEB_KAEB_K0@Z			; std::max<unsigned __int64>
PUBLIC	??$_Deallocate@$0BA@$0A@@std@@YAXPEAX_K@Z	; std::_Deallocate<16,0>
PUBLIC	??$addressof@V?$_String_val@U?$_Simple_types@D@std@@@std@@@std@@YAPEAV?$_String_val@U?$_Simple_types@D@std@@@0@AEAV10@@Z ; std::addressof<std::_String_val<std::_Simple_types<char> > >
PUBLIC	??$addressof@$$CBV?$_String_val@U?$_Simple_types@D@std@@@std@@@std@@YAPEBV?$_String_val@U?$_Simple_types@D@std@@@0@AEBV10@@Z ; std::addressof<std::_String_val<std::_Simple_types<char> > const >
PUBLIC	??R?$default_delete@V_Facet_base@std@@@std@@QEBAXPEAV_Facet_base@1@@Z ; std::default_delete<std::_Facet_base>::operator()
PUBLIC	??1?$unique_ptr@V_Facet_base@std@@U?$default_delete@V_Facet_base@std@@@2@@std@@QEAA@XZ ; std::unique_ptr<std::_Facet_base,std::default_delete<std::_Facet_base> >::~unique_ptr<std::_Facet_base,std::default_delete<std::_Facet_base> >
PUBLIC	?release@?$unique_ptr@V_Facet_base@std@@U?$default_delete@V_Facet_base@std@@@2@@std@@QEAAPEAV_Facet_base@2@XZ ; std::unique_ptr<std::_Facet_base,std::default_delete<std::_Facet_base> >::release
PUBLIC	?_Get_first@?$_Compressed_pair@U?$default_delete@V_Facet_base@std@@@std@@PEAV_Facet_base@2@$00@std@@QEAAAEAU?$default_delete@V_Facet_base@std@@@2@XZ ; std::_Compressed_pair<std::default_delete<std::_Facet_base>,std::_Facet_base *,1>::_Get_first
PUBLIC	?__autoclassinit2@?$unique_ptr@V_Facet_base@std@@U?$default_delete@V_Facet_base@std@@@2@@std@@QEAAX_K@Z ; std::unique_ptr<std::_Facet_base,std::default_delete<std::_Facet_base> >::__autoclassinit2
PUBLIC	??$?0U?$default_delete@V_Facet_base@std@@@std@@$0A@@?$unique_ptr@V_Facet_base@std@@U?$default_delete@V_Facet_base@std@@@2@@std@@QEAA@PEAV_Facet_base@1@@Z ; std::unique_ptr<std::_Facet_base,std::default_delete<std::_Facet_base> >::unique_ptr<std::_Facet_base,std::default_delete<std::_Facet_base> ><std::default_delete<std::_Facet_base>,0>
PUBLIC	??0_Sentry_base@?$basic_istream@DU?$char_traits@D@std@@@std@@QEAA@AEAV12@@Z ; std::basic_istream<char,std::char_traits<char> >::_Sentry_base::_Sentry_base
PUBLIC	??1_Sentry_base@?$basic_istream@DU?$char_traits@D@std@@@std@@QEAA@XZ ; std::basic_istream<char,std::char_traits<char> >::_Sentry_base::~_Sentry_base
PUBLIC	??0sentry@?$basic_istream@DU?$char_traits@D@std@@@std@@QEAA@AEAV12@_N@Z ; std::basic_istream<char,std::char_traits<char> >::sentry::sentry
PUBLIC	??Bsentry@?$basic_istream@DU?$char_traits@D@std@@@std@@QEBA_NXZ ; std::basic_istream<char,std::char_traits<char> >::sentry::operator bool
PUBLIC	??1sentry@?$basic_istream@DU?$char_traits@D@std@@@std@@QEAA@XZ ; std::basic_istream<char,std::char_traits<char> >::sentry::~sentry
PUBLIC	??$_Deallocate_plain@V?$allocator@U_Container_proxy@std@@@std@@@std@@YAXAEAV?$allocator@U_Container_proxy@std@@@0@QEAU_Container_proxy@0@@Z ; std::_Deallocate_plain<std::allocator<std::_Container_proxy> >
PUBLIC	??0?$_Container_proxy_ptr12@V?$allocator@U_Container_proxy@std@@@std@@@std@@QEAA@AEAV?$allocator@U_Container_proxy@std@@@1@AEAU_Container_base12@1@@Z ; std::_Container_proxy_ptr12<std::allocator<std::_Container_proxy> >::_Container_proxy_ptr12<std::allocator<std::_Container_proxy> >
PUBLIC	??1?$_Container_proxy_ptr12@V?$allocator@U_Container_proxy@std@@@std@@@std@@QEAA@XZ ; std::_Container_proxy_ptr12<std::allocator<std::_Container_proxy> >::~_Container_proxy_ptr12<std::allocator<std::_Container_proxy> >
PUBLIC	??$_Unfancy@U_Container_proxy@std@@@std@@YAPEAU_Container_proxy@0@PEAU10@@Z ; std::_Unfancy<std::_Container_proxy>
PUBLIC	??$_Construct_in_place@PEADAEBQEAD@std@@YAXAEAPEADAEBQEAD@Z ; std::_Construct_in_place<char *,char * const &>
PUBLIC	??$addressof@PEAD@std@@YAPEAPEADAEAPEAD@Z	; std::addressof<char *>
PUBLIC	??$exchange@PEAV_Facet_base@std@@$$T@std@@YAPEAV_Facet_base@0@AEAPEAV10@$$QEA$$T@Z ; std::exchange<std::_Facet_base *,std::nullptr_t>
PUBLIC	??$_Get_size_of_n@$0BA@@std@@YA_K_K@Z		; std::_Get_size_of_n<16>
PUBLIC	??$_Allocate@$0BA@U_Default_allocate_traits@std@@$0A@@std@@YAPEAX_K@Z ; std::_Allocate<16,std::_Default_allocate_traits,0>
PUBLIC	??$_Get_size_of_n@$00@std@@YA_K_K@Z		; std::_Get_size_of_n<1>
PUBLIC	??$addressof@U_Container_proxy@std@@@std@@YAPEAU_Container_proxy@0@AEAU10@@Z ; std::addressof<std::_Container_proxy>
PUBLIC	??$?0AEAPEAV_Facet_base@std@@@?$_Compressed_pair@U?$default_delete@V_Facet_base@std@@@std@@PEAV_Facet_base@2@$00@std@@QEAA@U_Zero_then_variadic_args_t@1@AEAPEAV_Facet_base@1@@Z ; std::_Compressed_pair<std::default_delete<std::_Facet_base>,std::_Facet_base *,1>::_Compressed_pair<std::default_delete<std::_Facet_base>,std::_Facet_base *,1><std::_Facet_base * &>
PUBLIC	?deallocate@?$_Default_allocator_traits@V?$allocator@U_Container_proxy@std@@@std@@@std@@SAXAEAV?$allocator@U_Container_proxy@std@@@2@QEAU_Container_proxy@2@_K@Z ; std::_Default_allocator_traits<std::allocator<std::_Container_proxy> >::deallocate
PUBLIC	??$_Allocate_manually_vector_aligned@U_Default_allocate_traits@std@@@std@@YAPEAX_K@Z ; std::_Allocate_manually_vector_aligned<std::_Default_allocate_traits>
PUBLIC	__JustMyCode_Default
PUBLIC	??_7exception@std@@6B@				; std::exception::`vftable'
PUBLIC	??_C@_0BC@EOODALEL@Unknown?5exception@		; `string'
PUBLIC	??_7bad_alloc@std@@6B@				; std::bad_alloc::`vftable'
PUBLIC	??_7bad_array_new_length@std@@6B@		; std::bad_array_new_length::`vftable'
PUBLIC	??_C@_0BF@KINCDENJ@bad?5array?5new?5length@	; `string'
PUBLIC	_TI3?AVbad_array_new_length@std@@
PUBLIC	_CTA3?AVbad_array_new_length@std@@
PUBLIC	??_R0?AVbad_array_new_length@std@@@8		; std::bad_array_new_length `RTTI Type Descriptor'
PUBLIC	_CT??_R0?AVbad_array_new_length@std@@@8??0bad_array_new_length@std@@QEAA@AEBV01@@Z24
PUBLIC	??_R0?AVbad_alloc@std@@@8			; std::bad_alloc `RTTI Type Descriptor'
PUBLIC	_CT??_R0?AVbad_alloc@std@@@8??0bad_alloc@std@@QEAA@AEBV01@@Z24
PUBLIC	??_R0?AVexception@std@@@8			; std::exception `RTTI Type Descriptor'
PUBLIC	_CT??_R0?AVexception@std@@@8??0exception@std@@QEAA@AEBV01@@Z24
PUBLIC	?__LINE__Var@?0??_Adjust_manually_vector_aligned@std@@YAXAEAPEAXAEA_K@Z@4JA ; `std::_Adjust_manually_vector_aligned'::`1'::__LINE__Var
PUBLIC	??_C@_0BB@FCMFBGOM@invalid?5argument@		; `string'
PUBLIC	??_C@_02DKCKIIND@?$CFs@				; `string'
PUBLIC	??_C@_0GC@JDLAECEI@C?3?2Program?5Files?2Microsoft?5Visu@ ; `string'
PUBLIC	??_C@_1ME@PPIEIJND@?$AAC?$AA?3?$AA?2?$AAP?$AAr?$AAo?$AAg?$AAr?$AAa?$AAm?$AA?5?$AAF?$AAi?$AAl?$AAe@ ; `string'
PUBLIC	??_C@_11LOCGONAA@@				; `string'
PUBLIC	??_C@_1CG@JNLFBNGN@?$AA?$CC?$AAi?$AAn?$AAv?$AAa?$AAl?$AAi?$AAd?$AA?5?$AAa?$AAr?$AAg?$AAu?$AAm?$AAe@ ; `string'
PUBLIC	??_C@_0BA@JFNIOLAK@string?5too?5long@		; `string'
PUBLIC	??_7bad_cast@std@@6B@				; std::bad_cast::`vftable'
PUBLIC	??_C@_08EPJLHIJG@bad?5cast@			; `string'
PUBLIC	_TI2?AVbad_cast@std@@
PUBLIC	_CTA2?AVbad_cast@std@@
PUBLIC	??_R0?AVbad_cast@std@@@8			; std::bad_cast `RTTI Type Descriptor'
PUBLIC	_CT??_R0?AVbad_cast@std@@@8??0bad_cast@std@@QEAA@AEBV01@@Z24
PUBLIC	??_C@_00CNPNBAHC@@				; `string'
PUBLIC	??_C@_0BG@HGEDEDEC@invalid?5stoi?5argument@	; `string'
PUBLIC	??_C@_0BL@MFFNMGGC@stoi?5argument?5out?5of?5range@ ; `string'
PUBLIC	??_C@_0M@LKCEPKJL@?$NP?5?p?n?d?h?k?$OA?q?$PM?5@	; `string'
PUBLIC	??_C@_0CN@CMEOPOLI@?B?b?e?d?h?r?e?5?q?e?c?n?d?m?$PP?x?m?$PO?$PO?5?d?$OA?r?s?5?b?5?t?n?p?l@ ; `string'
PUBLIC	??_C@_0BE@DLECMKKF@?B?$PL?5?n?x?h?a?k?h?q?$PM?5?b?5?d?$OA?r?e?$CB@ ; `string'
PUBLIC	??_C@_0CF@ENAOLNIK@?O?n?p?$PP?d?j?n?b?$PL?i?5?m?n?l?e?p?5?q?e?c?n?d?m?$PP?x?m?e?c?n?5?d@ ; `string'
PUBLIC	??_C@_0BM@ECJLCKJH@?D?n?5?d?m?$PP?5?P?n?f?d?e?m?h?$PP?5?n?q?r?$OA?k?n?q?$PM?5?9?5@ ; `string'
PUBLIC	??_C@_08GIKPFBHL@?L?e?q?$PP?v?5?9?5@		; `string'
PUBLIC	??_C@_05PEDNBBBD@Pause@				; `string'
PUBLIC	??_C@_0DG@KGHKKGBC@null?5pointer?5cannot?5point?5to?5a?5@ ; `string'
PUBLIC	??_C@_1HA@FACCKGGH@?$AA?$CC?$AAn?$AAu?$AAl?$AAl?$AA?5?$AAp?$AAo?$AAi?$AAn?$AAt?$AAe?$AAr?$AA?5?$AAc@ ; `string'
PUBLIC	??_C@_0BI@CFPLBAOH@invalid?5string?5position@	; `string'
PUBLIC	?_Psave@?$_Facetptr@V?$ctype@D@std@@@std@@2PEBVfacet@locale@2@EB ; std::_Facetptr<std::ctype<char> >::_Psave
PUBLIC	??_R4exception@std@@6B@				; std::exception::`RTTI Complete Object Locator'
PUBLIC	??_R3exception@std@@8				; std::exception::`RTTI Class Hierarchy Descriptor'
PUBLIC	??_R2exception@std@@8				; std::exception::`RTTI Base Class Array'
PUBLIC	??_R1A@?0A@EA@exception@std@@8			; std::exception::`RTTI Base Class Descriptor at (0,-1,0,64)'
PUBLIC	??_R4bad_alloc@std@@6B@				; std::bad_alloc::`RTTI Complete Object Locator'
PUBLIC	??_R3bad_alloc@std@@8				; std::bad_alloc::`RTTI Class Hierarchy Descriptor'
PUBLIC	??_R2bad_alloc@std@@8				; std::bad_alloc::`RTTI Base Class Array'
PUBLIC	??_R1A@?0A@EA@bad_alloc@std@@8			; std::bad_alloc::`RTTI Base Class Descriptor at (0,-1,0,64)'
PUBLIC	??_R4bad_array_new_length@std@@6B@		; std::bad_array_new_length::`RTTI Complete Object Locator'
PUBLIC	??_R3bad_array_new_length@std@@8		; std::bad_array_new_length::`RTTI Class Hierarchy Descriptor'
PUBLIC	??_R2bad_array_new_length@std@@8		; std::bad_array_new_length::`RTTI Base Class Array'
PUBLIC	??_R1A@?0A@EA@bad_array_new_length@std@@8	; std::bad_array_new_length::`RTTI Base Class Descriptor at (0,-1,0,64)'
PUBLIC	??_R4bad_cast@std@@6B@				; std::bad_cast::`RTTI Complete Object Locator'
PUBLIC	??_R3bad_cast@std@@8				; std::bad_cast::`RTTI Class Hierarchy Descriptor'
PUBLIC	??_R2bad_cast@std@@8				; std::bad_cast::`RTTI Base Class Array'
PUBLIC	??_R1A@?0A@EA@bad_cast@std@@8			; std::bad_cast::`RTTI Base Class Descriptor at (0,-1,0,64)'
EXTRN	??2@YAPEAX_K@Z:PROC				; operator new
EXTRN	??3@YAXPEAX_K@Z:PROC				; operator delete
EXTRN	__imp__invalid_parameter:PROC
EXTRN	__imp__CrtDbgReport:PROC
EXTRN	__imp_??0_Lockit@std@@QEAA@H@Z:PROC
EXTRN	__imp_??1_Lockit@std@@QEAA@XZ:PROC
EXTRN	__imp__errno:PROC
EXTRN	__imp_strtol:PROC
EXTRN	__imp_system:PROC
EXTRN	memcpy:PROC
EXTRN	strlen:PROC
EXTRN	?_Xinvalid_argument@std@@YAXPEBD@Z:PROC		; std::_Xinvalid_argument
EXTRN	?_Xlength_error@std@@YAXPEBD@Z:PROC		; std::_Xlength_error
EXTRN	?_Xout_of_range@std@@YAXPEBD@Z:PROC		; std::_Xout_of_range
EXTRN	?uncaught_exception@std@@YA_NXZ:PROC		; std::uncaught_exception
EXTRN	__std_exception_copy:PROC
EXTRN	__std_exception_destroy:PROC
EXTRN	??_Eexception@std@@UEAAPEAXI@Z:PROC		; std::exception::`vector deleting destructor'
EXTRN	??_Ebad_alloc@std@@UEAAPEAXI@Z:PROC		; std::bad_alloc::`vector deleting destructor'
EXTRN	??_Ebad_array_new_length@std@@UEAAPEAXI@Z:PROC	; std::bad_array_new_length::`vector deleting destructor'
EXTRN	??_Ebad_cast@std@@UEAAPEAXI@Z:PROC		; std::bad_cast::`vector deleting destructor'
EXTRN	?_Facet_Register@std@@YAXPEAV_Facet_base@1@@Z:PROC ; std::_Facet_Register
EXTRN	__imp_setlocale:PROC
EXTRN	__imp_??Bid@locale@std@@QEAA_KXZ:PROC
EXTRN	?_Getgloballocale@locale@std@@CAPEAV_Locimp@12@XZ:PROC ; std::locale::_Getgloballocale
EXTRN	__imp_?is@?$ctype@D@std@@QEBA_NFD@Z:PROC
EXTRN	__imp_?_Getcat@?$ctype@D@std@@SA_KPEAPEBVfacet@locale@2@PEBV42@@Z:PROC
EXTRN	__imp_?good@ios_base@std@@QEBA_NXZ:PROC
EXTRN	__imp_?flags@ios_base@std@@QEBAHXZ:PROC
EXTRN	__imp_?width@ios_base@std@@QEBA_JXZ:PROC
EXTRN	__imp_?width@ios_base@std@@QEAA_J_J@Z:PROC
EXTRN	__imp_?getloc@ios_base@std@@QEBA?AVlocale@2@XZ:PROC
EXTRN	__imp_?sgetc@?$basic_streambuf@DU?$char_traits@D@std@@@std@@QEAAHXZ:PROC
EXTRN	__imp_?snextc@?$basic_streambuf@DU?$char_traits@D@std@@@std@@QEAAHXZ:PROC
EXTRN	__imp_?sputc@?$basic_streambuf@DU?$char_traits@D@std@@@std@@QEAAHD@Z:PROC
EXTRN	__imp_?sputn@?$basic_streambuf@DU?$char_traits@D@std@@@std@@QEAA_JPEBD_J@Z:PROC
EXTRN	__imp_?setstate@?$basic_ios@DU?$char_traits@D@std@@@std@@QEAAXH_N@Z:PROC
EXTRN	__imp_?tie@?$basic_ios@DU?$char_traits@D@std@@@std@@QEBAPEAV?$basic_ostream@DU?$char_traits@D@std@@@2@XZ:PROC
EXTRN	__imp_?rdbuf@?$basic_ios@DU?$char_traits@D@std@@@std@@QEBAPEAV?$basic_streambuf@DU?$char_traits@D@std@@@2@XZ:PROC
EXTRN	__imp_?fill@?$basic_ios@DU?$char_traits@D@std@@@std@@QEBADXZ:PROC
EXTRN	__imp_?widen@?$basic_ios@DU?$char_traits@D@std@@@std@@QEBADD@Z:PROC
EXTRN	__imp_?_Osfx@?$basic_ostream@DU?$char_traits@D@std@@@std@@QEAAXXZ:PROC
EXTRN	__imp_??6?$basic_ostream@DU?$char_traits@D@std@@@std@@QEAAAEAV01@P6AAEAV01@AEAV01@@Z@Z:PROC
EXTRN	__imp_??6?$basic_ostream@DU?$char_traits@D@std@@@std@@QEAAAEAV01@H@Z:PROC
EXTRN	__imp_?put@?$basic_ostream@DU?$char_traits@D@std@@@std@@QEAAAEAV12@D@Z:PROC
EXTRN	__imp_?flush@?$basic_ostream@DU?$char_traits@D@std@@@std@@QEAAAEAV12@XZ:PROC
EXTRN	__imp_?_Ipfx@?$basic_istream@DU?$char_traits@D@std@@@std@@QEAA_N_N@Z:PROC
EXTRN	?countTodaysDate@@YAHHHQEAH@Z:PROC		; countTodaysDate
EXTRN	?checkValidation@@YAHHHHQEAH@Z:PROC		; checkValidation
EXTRN	?makeLeft@@YAHHHHAEAH@Z:PROC			; makeLeft
EXTRN	?nameMonth@@YAXH@Z:PROC				; nameMonth
EXTRN	?congrat@@YAXH@Z:PROC				; congrat
EXTRN	_CxxThrowException:PROC
EXTRN	_RTC_CheckStackVars:PROC
EXTRN	_RTC_InitBase:PROC
EXTRN	_RTC_Shutdown:PROC
EXTRN	__CheckForDebuggerJustMyCode:PROC
EXTRN	__CxxFrameHandler4:PROC
EXTRN	__GSHandlerCheck:PROC
EXTRN	__GSHandlerCheck_EH4:PROC
EXTRN	__security_check_cookie:PROC
EXTRN	??_7type_info@@6B@:BYTE				; type_info::`vftable'
EXTRN	__imp_?id@?$ctype@D@std@@2V0locale@2@A:QWORD
EXTRN	__imp_?cin@std@@3V?$basic_istream@DU?$char_traits@D@std@@@1@A:BYTE
EXTRN	__imp_?cout@std@@3V?$basic_ostream@DU?$char_traits@D@std@@@1@A:BYTE
EXTRN	__security_cookie:QWORD
;	COMDAT ?_Psave@?$_Facetptr@V?$ctype@D@std@@@std@@2PEBVfacet@locale@2@EB
_BSS	SEGMENT
?_Psave@?$_Facetptr@V?$ctype@D@std@@@std@@2PEBVfacet@locale@2@EB DQ 01H DUP (?) ; std::_Facetptr<std::ctype<char> >::_Psave
_BSS	ENDS
;	COMDAT pdata
pdata	SEGMENT
$pdata$?__empty_global_delete@@YAXPEAX@Z DD imagerel $LN3
	DD	imagerel $LN3+41
	DD	imagerel $unwind$?__empty_global_delete@@YAXPEAX@Z
pdata	ENDS
;	COMDAT pdata
pdata	SEGMENT
$pdata$?__empty_global_delete@@YAXPEAX_K@Z DD imagerel $LN3
	DD	imagerel $LN3+46
	DD	imagerel $unwind$?__empty_global_delete@@YAXPEAX_K@Z
pdata	ENDS
;	COMDAT pdata
pdata	SEGMENT
$pdata$??2@YAPEAX_KPEAX@Z DD imagerel $LN3
	DD	imagerel $LN3+53
	DD	imagerel $unwind$??2@YAPEAX_KPEAX@Z
pdata	ENDS
;	COMDAT pdata
pdata	SEGMENT
$pdata$??0exception@std@@QEAA@QEBDH@Z DD imagerel $LN3
	DD	imagerel $LN3+116
	DD	imagerel $unwind$??0exception@std@@QEAA@QEBDH@Z
pdata	ENDS
;	COMDAT pdata
pdata	SEGMENT
$pdata$??0exception@std@@QEAA@AEBV01@@Z DD imagerel $LN3
	DD	imagerel $LN3+123
	DD	imagerel $unwind$??0exception@std@@QEAA@AEBV01@@Z
pdata	ENDS
;	COMDAT pdata
pdata	SEGMENT
$pdata$??1exception@std@@UEAA@XZ DD imagerel $LN3
	DD	imagerel $LN3+77
	DD	imagerel $unwind$??1exception@std@@UEAA@XZ
pdata	ENDS
;	COMDAT pdata
pdata	SEGMENT
$pdata$?what@exception@std@@UEBAPEBDXZ DD imagerel $LN5
	DD	imagerel $LN5+96
	DD	imagerel $unwind$?what@exception@std@@UEBAPEBDXZ
pdata	ENDS
;	COMDAT pdata
pdata	SEGMENT
$pdata$??_Gexception@std@@UEAAPEAXI@Z DD imagerel $LN4
	DD	imagerel $LN4+82
	DD	imagerel $unwind$??_Gexception@std@@UEAAPEAXI@Z
pdata	ENDS
;	COMDAT pdata
pdata	SEGMENT
$pdata$??0bad_alloc@std@@AEAA@QEBD@Z DD imagerel $LN3
	DD	imagerel $LN3+95
	DD	imagerel $unwind$??0bad_alloc@std@@AEAA@QEBD@Z
pdata	ENDS
;	COMDAT pdata
pdata	SEGMENT
$pdata$??1bad_alloc@std@@UEAA@XZ DD imagerel $LN3
	DD	imagerel $LN3+41
	DD	imagerel $unwind$??1bad_alloc@std@@UEAA@XZ
pdata	ENDS
;	COMDAT pdata
pdata	SEGMENT
$pdata$??0bad_alloc@std@@QEAA@AEBV01@@Z DD imagerel $LN3
	DD	imagerel $LN3+77
	DD	imagerel $unwind$??0bad_alloc@std@@QEAA@AEBV01@@Z
pdata	ENDS
;	COMDAT pdata
pdata	SEGMENT
$pdata$??_Gbad_alloc@std@@UEAAPEAXI@Z DD imagerel $LN4
	DD	imagerel $LN4+82
	DD	imagerel $unwind$??_Gbad_alloc@std@@UEAAPEAXI@Z
pdata	ENDS
;	COMDAT pdata
pdata	SEGMENT
$pdata$??0bad_array_new_length@std@@QEAA@XZ DD imagerel $LN3
	DD	imagerel $LN3+84
	DD	imagerel $unwind$??0bad_array_new_length@std@@QEAA@XZ
pdata	ENDS
;	COMDAT pdata
pdata	SEGMENT
$pdata$??1bad_array_new_length@std@@UEAA@XZ DD imagerel $LN3
	DD	imagerel $LN3+41
	DD	imagerel $unwind$??1bad_array_new_length@std@@UEAA@XZ
pdata	ENDS
;	COMDAT pdata
pdata	SEGMENT
$pdata$??0bad_array_new_length@std@@QEAA@AEBV01@@Z DD imagerel $LN3
	DD	imagerel $LN3+77
	DD	imagerel $unwind$??0bad_array_new_length@std@@QEAA@AEBV01@@Z
pdata	ENDS
;	COMDAT pdata
pdata	SEGMENT
$pdata$??_Gbad_array_new_length@std@@UEAAPEAXI@Z DD imagerel $LN4
	DD	imagerel $LN4+82
	DD	imagerel $unwind$??_Gbad_array_new_length@std@@UEAAPEAXI@Z
pdata	ENDS
;	COMDAT pdata
pdata	SEGMENT
$pdata$?_Throw_bad_array_new_length@std@@YAXXZ DD imagerel $LN3
	DD	imagerel $LN3+68
	DD	imagerel $unwind$?_Throw_bad_array_new_length@std@@YAXXZ
pdata	ENDS
;	COMDAT pdata
pdata	SEGMENT
$pdata$?max@?$numeric_limits@_J@std@@SA_JXZ DD imagerel $LN3
	DD	imagerel $LN3+47
	DD	imagerel $unwind$?max@?$numeric_limits@_J@std@@SA_JXZ
pdata	ENDS
;	COMDAT pdata
pdata	SEGMENT
$pdata$?_Allocate@_Default_allocate_traits@std@@SAPEAX_K@Z DD imagerel $LN3
	DD	imagerel $LN3+53
	DD	imagerel $unwind$?_Allocate@_Default_allocate_traits@std@@SAPEAX_K@Z
pdata	ENDS
;	COMDAT pdata
pdata	SEGMENT
$pdata$?_Adjust_manually_vector_aligned@std@@YAXAEAPEAXAEA_K@Z DD imagerel $LN21
	DD	imagerel $LN21+453
	DD	imagerel $unwind$?_Adjust_manually_vector_aligned@std@@YAXAEAPEAXAEA_K@Z
pdata	ENDS
;	COMDAT pdata
pdata	SEGMENT
$pdata$??0_Container_proxy@std@@QEAA@PEAU_Container_base12@1@@Z DD imagerel $LN3
	DD	imagerel $LN3+85
	DD	imagerel $unwind$??0_Container_proxy@std@@QEAA@PEAU_Container_base12@1@@Z
pdata	ENDS
;	COMDAT pdata
pdata	SEGMENT
$pdata$??0_Container_base12@std@@QEAA@XZ DD imagerel $LN3
	DD	imagerel $LN3+62
	DD	imagerel $unwind$??0_Container_base12@std@@QEAA@XZ
pdata	ENDS
;	COMDAT pdata
pdata	SEGMENT
$pdata$?_Orphan_all@_Container_base12@std@@QEAAXXZ DD imagerel $LN3
	DD	imagerel $LN3+53
	DD	imagerel $unwind$?_Orphan_all@_Container_base12@std@@QEAAXXZ
pdata	ENDS
;	COMDAT pdata
pdata	SEGMENT
$pdata$?_Swap_proxy_and_iterators@_Container_base12@std@@QEAAXAEAU12@@Z DD imagerel $LN3
	DD	imagerel $LN3+65
	DD	imagerel $unwind$?_Swap_proxy_and_iterators@_Container_base12@std@@QEAAXAEAU12@@Z
pdata	ENDS
;	COMDAT pdata
pdata	SEGMENT
$pdata$?_Orphan_all_unlocked_v3@_Container_base12@std@@AEAAXXZ DD imagerel $LN7
	DD	imagerel $LN7+134
	DD	imagerel $unwind$?_Orphan_all_unlocked_v3@_Container_base12@std@@AEAAXXZ
pdata	ENDS
;	COMDAT pdata
pdata	SEGMENT
$pdata$?_Swap_proxy_and_iterators_unlocked@_Container_base12@std@@AEAAXAEAU12@@Z DD imagerel $LN5
	DD	imagerel $LN5+160
	DD	imagerel $unwind$?_Swap_proxy_and_iterators_unlocked@_Container_base12@std@@AEAAXAEAU12@@Z
pdata	ENDS
;	COMDAT pdata
pdata	SEGMENT
$pdata$?_Orphan_all_locked_v3@_Container_base12@std@@AEAAXXZ DD imagerel $LN3
	DD	imagerel $LN3+151
	DD	imagerel $unwind$?_Orphan_all_locked_v3@_Container_base12@std@@AEAAXXZ
pdata	ENDS
;	COMDAT pdata
pdata	SEGMENT
$pdata$?_Swap_proxy_and_iterators_locked@_Container_base12@std@@AEAAXAEAU12@@Z DD imagerel $LN3
	DD	imagerel $LN3+163
	DD	imagerel $unwind$?_Swap_proxy_and_iterators_locked@_Container_base12@std@@AEAAXAEAU12@@Z
pdata	ENDS
;	COMDAT pdata
pdata	SEGMENT
$pdata$??$exchange@PEAU_Iterator_base12@std@@$$T@std@@YAPEAU_Iterator_base12@0@AEAPEAU10@$$QEA$$T@Z DD imagerel $LN3
	DD	imagerel $LN3+84
	DD	imagerel $unwind$??$exchange@PEAU_Iterator_base12@std@@$$T@std@@YAPEAU_Iterator_base12@0@AEAPEAU10@$$QEA$$T@Z
pdata	ENDS
;	COMDAT pdata
pdata	SEGMENT
$pdata$?_Release@_Basic_container_proxy_ptr12@std@@QEAAXXZ DD imagerel $LN3
	DD	imagerel $LN3+55
	DD	imagerel $unwind$?_Release@_Basic_container_proxy_ptr12@std@@QEAAXXZ
pdata	ENDS
;	COMDAT pdata
pdata	SEGMENT
$pdata$??0_Basic_container_proxy_ptr12@std@@IEAA@XZ DD imagerel $LN3
	DD	imagerel $LN3+62
	DD	imagerel $unwind$??0_Basic_container_proxy_ptr12@std@@IEAA@XZ
pdata	ENDS
;	COMDAT pdata
pdata	SEGMENT
$pdata$??$addressof@U_Container_base12@std@@@std@@YAPEAU_Container_base12@0@AEAU10@@Z DD imagerel $LN3
	DD	imagerel $LN3+48
	DD	imagerel $unwind$??$addressof@U_Container_base12@std@@@std@@YAPEAU_Container_base12@0@AEAU10@@Z
pdata	ENDS
;	COMDAT pdata
pdata	SEGMENT
$pdata$??$_Construct_in_place@U_Container_proxy@std@@PEAU_Container_base12@2@@std@@YAXAEAU_Container_proxy@0@$$QEAPEAU_Container_base12@0@@Z DD imagerel $LN3
	DD	imagerel $LN3+100
	DD	imagerel $unwind$??$_Construct_in_place@U_Container_proxy@std@@PEAU_Container_base12@2@@std@@YAXAEAU_Container_proxy@0@$$QEAPEAU_Container_base12@0@@Z
pdata	ENDS
;	COMDAT pdata
pdata	SEGMENT
$pdata$?copy@?$_Char_traits@DH@std@@SAPEADQEADQEBD_K@Z DD imagerel $LN3
	DD	imagerel $LN3+84
	DD	imagerel $unwind$?copy@?$_Char_traits@DH@std@@SAPEADQEADQEBD_K@Z
pdata	ENDS
;	COMDAT pdata
pdata	SEGMENT
$pdata$?length@?$_Narrow_char_traits@DH@std@@SA_KQEBD@Z DD imagerel $LN3
	DD	imagerel $LN3+53
	DD	imagerel $unwind$?length@?$_Narrow_char_traits@DH@std@@SA_KQEBD@Z
pdata	ENDS
;	COMDAT pdata
pdata	SEGMENT
$pdata$?assign@?$_Narrow_char_traits@DH@std@@SAXAEADAEBD@Z DD imagerel $LN3
	DD	imagerel $LN3+65
	DD	imagerel $unwind$?assign@?$_Narrow_char_traits@DH@std@@SAXAEADAEBD@Z
pdata	ENDS
;	COMDAT pdata
pdata	SEGMENT
$pdata$?to_char_type@?$_Narrow_char_traits@DH@std@@SADAEBH@Z DD imagerel $LN3
	DD	imagerel $LN3+51
	DD	imagerel $unwind$?to_char_type@?$_Narrow_char_traits@DH@std@@SADAEBH@Z
pdata	ENDS
;	COMDAT pdata
pdata	SEGMENT
$pdata$?eq_int_type@?$_Narrow_char_traits@DH@std@@SA_NAEBH0@Z DD imagerel $LN5
	DD	imagerel $LN5+95
	DD	imagerel $unwind$?eq_int_type@?$_Narrow_char_traits@DH@std@@SA_NAEBH0@Z
pdata	ENDS
;	COMDAT pdata
pdata	SEGMENT
$pdata$?eof@?$_Narrow_char_traits@DH@std@@SAHXZ DD imagerel $LN3
	DD	imagerel $LN3+42
	DD	imagerel $unwind$?eof@?$_Narrow_char_traits@DH@std@@SAHXZ
pdata	ENDS
;	COMDAT pdata
pdata	SEGMENT
$pdata$?_Xlen_string@std@@YAXXZ DD imagerel $LN3
	DD	imagerel $LN3+49
	DD	imagerel $unwind$?_Xlen_string@std@@YAXXZ
pdata	ENDS
;	COMDAT pdata
pdata	SEGMENT
$pdata$??0?$allocator@D@std@@QEAA@XZ DD imagerel $LN3
	DD	imagerel $LN3+48
	DD	imagerel $unwind$??0?$allocator@D@std@@QEAA@XZ
pdata	ENDS
;	COMDAT pdata
pdata	SEGMENT
$pdata$?deallocate@?$allocator@D@std@@QEAAXQEAD_K@Z DD imagerel $LN13
	DD	imagerel $LN13+209
	DD	imagerel $unwind$?deallocate@?$allocator@D@std@@QEAAXQEAD_K@Z
pdata	ENDS
;	COMDAT pdata
pdata	SEGMENT
$pdata$?allocate@?$allocator@D@std@@QEAAPEAD_K@Z DD imagerel $LN3
	DD	imagerel $LN3+66
	DD	imagerel $unwind$?allocate@?$allocator@D@std@@QEAAPEAD_K@Z
pdata	ENDS
;	COMDAT pdata
pdata	SEGMENT
$pdata$?max_size@?$_Default_allocator_traits@V?$allocator@D@std@@@std@@SA_KAEBV?$allocator@D@2@@Z DD imagerel $LN3
	DD	imagerel $LN3+48
	DD	imagerel $unwind$?max_size@?$_Default_allocator_traits@V?$allocator@D@std@@@std@@SA_KAEBV?$allocator@D@2@@Z
pdata	ENDS
;	COMDAT pdata
pdata	SEGMENT
$pdata$??0?$_String_val@U?$_Simple_types@D@std@@@std@@QEAA@XZ DD imagerel $LN3
	DD	imagerel $LN3+109
	DD	imagerel $unwind$??0?$_String_val@U?$_Simple_types@D@std@@@std@@QEAA@XZ
pdata	ENDS
;	COMDAT pdata
pdata	SEGMENT
$pdata$?_Myptr@?$_String_val@U?$_Simple_types@D@std@@@std@@QEAAPEADXZ DD imagerel $LN4
	DD	imagerel $LN4+99
	DD	imagerel $unwind$?_Myptr@?$_String_val@U?$_Simple_types@D@std@@@std@@QEAAPEADXZ
pdata	ENDS
;	COMDAT pdata
pdata	SEGMENT
$pdata$?_Myptr@?$_String_val@U?$_Simple_types@D@std@@@std@@QEBAPEBDXZ DD imagerel $LN4
	DD	imagerel $LN4+99
	DD	imagerel $unwind$?_Myptr@?$_String_val@U?$_Simple_types@D@std@@@std@@QEBAPEBDXZ
pdata	ENDS
;	COMDAT pdata
pdata	SEGMENT
$pdata$?_Large_string_engaged@?$_String_val@U?$_Simple_types@D@std@@@std@@QEBA_NXZ DD imagerel $LN5
	DD	imagerel $LN5+84
	DD	imagerel $unwind$?_Large_string_engaged@?$_String_val@U?$_Simple_types@D@std@@@std@@QEBA_NXZ
pdata	ENDS
;	COMDAT pdata
pdata	SEGMENT
$pdata$?_Activate_SSO_buffer@?$_String_val@U?$_Simple_types@D@std@@@std@@QEAAXXZ DD imagerel $LN3
	DD	imagerel $LN3+41
	DD	imagerel $unwind$?_Activate_SSO_buffer@?$_String_val@U?$_Simple_types@D@std@@@std@@QEAAXXZ
pdata	ENDS
;	COMDAT pdata
pdata	SEGMENT
$pdata$?_Check_offset@?$_String_val@U?$_Simple_types@D@std@@@std@@QEBAX_K@Z DD imagerel $LN4
	DD	imagerel $LN4+71
	DD	imagerel $unwind$?_Check_offset@?$_String_val@U?$_Simple_types@D@std@@@std@@QEBAX_K@Z
pdata	ENDS
;	COMDAT pdata
pdata	SEGMENT
$pdata$?_Xran@?$_String_val@U?$_Simple_types@D@std@@@std@@SAXXZ DD imagerel $LN3
	DD	imagerel $LN3+49
	DD	imagerel $unwind$?_Xran@?$_String_val@U?$_Simple_types@D@std@@@std@@SAXXZ
pdata	ENDS
;	COMDAT pdata
pdata	SEGMENT
$pdata$?_Clamp_suffix_size@?$_String_val@U?$_Simple_types@D@std@@@std@@QEBA_K_K0@Z DD imagerel $LN3
	DD	imagerel $LN3+101
	DD	imagerel $unwind$?_Clamp_suffix_size@?$_String_val@U?$_Simple_types@D@std@@@std@@QEBA_K_K0@Z
pdata	ENDS
;	COMDAT pdata
pdata	SEGMENT
$pdata$??0_Bxty@?$_String_val@U?$_Simple_types@D@std@@@std@@QEAA@XZ DD imagerel $LN3
	DD	imagerel $LN3+71
	DD	imagerel $unwind$??0_Bxty@?$_String_val@U?$_Simple_types@D@std@@@std@@QEAA@XZ
pdata	ENDS
;	COMDAT pdata
pdata	SEGMENT
$pdata$??1_Bxty@?$_String_val@U?$_Simple_types@D@std@@@std@@QEAA@XZ DD imagerel $LN3
	DD	imagerel $LN3+41
	DD	imagerel $unwind$??1_Bxty@?$_String_val@U?$_Simple_types@D@std@@@std@@QEAA@XZ
pdata	ENDS
;	COMDAT pdata
pdata	SEGMENT
$pdata$??1?$_String_val@U?$_Simple_types@D@std@@@std@@QEAA@XZ DD imagerel $LN3
	DD	imagerel $LN3+48
	DD	imagerel $unwind$??1?$_String_val@U?$_Simple_types@D@std@@@std@@QEAA@XZ
pdata	ENDS
;	COMDAT pdata
pdata	SEGMENT
$pdata$??0?$basic_string@DU?$char_traits@D@std@@V?$allocator@D@2@@std@@QEAA@XZ DD imagerel $LN3
	DD	imagerel $LN3+124
	DD	imagerel $unwind$??0?$basic_string@DU?$char_traits@D@std@@V?$allocator@D@2@@std@@QEAA@XZ
pdata	ENDS
;	COMDAT pdata
pdata	SEGMENT
$pdata$??0?$basic_string@DU?$char_traits@D@std@@V?$allocator@D@2@@std@@QEAA@AEBV01@_K1AEBV?$allocator@D@1@@Z DD imagerel $LN4
	DD	imagerel $LN4+196
	DD	imagerel $unwind$??0?$basic_string@DU?$char_traits@D@std@@V?$allocator@D@2@@std@@QEAA@AEBV01@_K1AEBV?$allocator@D@1@@Z
pdata	ENDS
;	COMDAT pdata
pdata	SEGMENT
$pdata$?dtor$0@?0???0?$basic_string@DU?$char_traits@D@std@@V?$allocator@D@2@@std@@QEAA@AEBV01@_K1AEBV?$allocator@D@1@@Z@4HA DD imagerel ?dtor$0@?0???0?$basic_string@DU?$char_traits@D@std@@V?$allocator@D@2@@std@@QEAA@AEBV01@_K1AEBV?$allocator@D@1@@Z@4HA
	DD	imagerel ?dtor$0@?0???0?$basic_string@DU?$char_traits@D@std@@V?$allocator@D@2@@std@@QEAA@AEBV01@_K1AEBV?$allocator@D@1@@Z@4HA+39
	DD	imagerel $unwind$?dtor$0@?0???0?$basic_string@DU?$char_traits@D@std@@V?$allocator@D@2@@std@@QEAA@AEBV01@_K1AEBV?$allocator@D@1@@Z@4HA
pdata	ENDS
;	COMDAT pdata
pdata	SEGMENT
$pdata$?_Start_element_lifetimes@?$basic_string@DU?$char_traits@D@std@@V?$allocator@D@2@@std@@CAXQEAD_K@Z DD imagerel $LN3
	DD	imagerel $LN3+46
	DD	imagerel $unwind$?_Start_element_lifetimes@?$basic_string@DU?$char_traits@D@std@@V?$allocator@D@2@@std@@CAXQEAD_K@Z
pdata	ENDS
;	COMDAT pdata
pdata	SEGMENT
$pdata$??4?$basic_string@DU?$char_traits@D@std@@V?$allocator@D@2@@std@@QEAAAEAV01@$$QEAV01@@Z DD imagerel $LN4
	DD	imagerel $LN4+166
	DD	imagerel $unwind$??4?$basic_string@DU?$char_traits@D@std@@V?$allocator@D@2@@std@@QEAAAEAV01@$$QEAV01@@Z
pdata	ENDS
;	COMDAT pdata
pdata	SEGMENT
$pdata$?_Memcpy_val_from@?$basic_string@DU?$char_traits@D@std@@V?$allocator@D@2@@std@@AEAAXAEBV12@@Z DD imagerel $LN3
	DD	imagerel $LN3+111
	DD	imagerel $unwind$?_Memcpy_val_from@?$basic_string@DU?$char_traits@D@std@@V?$allocator@D@2@@std@@AEAAXAEBV12@@Z
pdata	ENDS
;	COMDAT pdata
pdata	SEGMENT
$pdata$?_Take_contents@?$basic_string@DU?$char_traits@D@std@@V?$allocator@D@2@@std@@AEAAXAEAV12@@Z DD imagerel $LN7
	DD	imagerel $LN7+341
	DD	imagerel $unwind$?_Take_contents@?$basic_string@DU?$char_traits@D@std@@V?$allocator@D@2@@std@@AEAAXAEAV12@@Z
pdata	ENDS
;	COMDAT pdata
pdata	SEGMENT
$pdata$??1?$basic_string@DU?$char_traits@D@std@@V?$allocator@D@2@@std@@QEAA@XZ DD imagerel $LN3
	DD	imagerel $LN3+214
	DD	imagerel $unwind$??1?$basic_string@DU?$char_traits@D@std@@V?$allocator@D@2@@std@@QEAA@XZ
pdata	ENDS
;	COMDAT pdata
pdata	SEGMENT
$pdata$?erase@?$basic_string@DU?$char_traits@D@std@@V?$allocator@D@2@@std@@QEAAAEAV12@_K@Z DD imagerel $LN3
	DD	imagerel $LN3+94
	DD	imagerel $unwind$?erase@?$basic_string@DU?$char_traits@D@std@@V?$allocator@D@2@@std@@QEAAAEAV12@_K@Z
pdata	ENDS
;	COMDAT pdata
pdata	SEGMENT
$pdata$?push_back@?$basic_string@DU?$char_traits@D@std@@V?$allocator@D@2@@std@@QEAAXD@Z DD imagerel $LN4
	DD	imagerel $LN4+232
	DD	imagerel $unwind$?push_back@?$basic_string@DU?$char_traits@D@std@@V?$allocator@D@2@@std@@QEAAXD@Z
pdata	ENDS
;	COMDAT pdata
pdata	SEGMENT
$pdata$?c_str@?$basic_string@DU?$char_traits@D@std@@V?$allocator@D@2@@std@@QEBAPEBDXZ DD imagerel $LN3
	DD	imagerel $LN3+56
	DD	imagerel $unwind$?c_str@?$basic_string@DU?$char_traits@D@std@@V?$allocator@D@2@@std@@QEBAPEBDXZ
pdata	ENDS
;	COMDAT pdata
pdata	SEGMENT
$pdata$?size@?$basic_string@DU?$char_traits@D@std@@V?$allocator@D@2@@std@@QEBA_KXZ DD imagerel $LN3
	DD	imagerel $LN3+52
	DD	imagerel $unwind$?size@?$basic_string@DU?$char_traits@D@std@@V?$allocator@D@2@@std@@QEBA_KXZ
pdata	ENDS
;	COMDAT pdata
pdata	SEGMENT
$pdata$?max_size@?$basic_string@DU?$char_traits@D@std@@V?$allocator@D@2@@std@@QEBA_KXZ DD imagerel $LN3
	DD	imagerel $LN3+226
	DD	imagerel $unwind$?max_size@?$basic_string@DU?$char_traits@D@std@@V?$allocator@D@2@@std@@QEBA_KXZ
pdata	ENDS
;	COMDAT pdata
pdata	SEGMENT
$pdata$?substr@?$basic_string@DU?$char_traits@D@std@@V?$allocator@D@2@@std@@QEBA?AV12@_K0@Z DD imagerel $LN5
	DD	imagerel $LN5+138
	DD	imagerel $unwind$?substr@?$basic_string@DU?$char_traits@D@std@@V?$allocator@D@2@@std@@QEBA?AV12@_K0@Z
pdata	ENDS
;	COMDAT pdata
pdata	SEGMENT
$pdata$?_Calculate_growth@?$basic_string@DU?$char_traits@D@std@@V?$allocator@D@2@@std@@CA_K_K00@Z DD imagerel $LN5
	DD	imagerel $LN5+271
	DD	imagerel $unwind$?_Calculate_growth@?$basic_string@DU?$char_traits@D@std@@V?$allocator@D@2@@std@@CA_K_K00@Z
pdata	ENDS
;	COMDAT pdata
pdata	SEGMENT
$pdata$?_Calculate_growth@?$basic_string@DU?$char_traits@D@std@@V?$allocator@D@2@@std@@AEBA_K_K@Z DD imagerel $LN3
	DD	imagerel $LN3+84
	DD	imagerel $unwind$?_Calculate_growth@?$basic_string@DU?$char_traits@D@std@@V?$allocator@D@2@@std@@AEBA_K_K@Z
pdata	ENDS
;	COMDAT pdata
pdata	SEGMENT
$pdata$?_Eos@?$basic_string@DU?$char_traits@D@std@@V?$allocator@D@2@@std@@AEAAX_K@Z DD imagerel $LN3
	DD	imagerel $LN3+108
	DD	imagerel $unwind$?_Eos@?$basic_string@DU?$char_traits@D@std@@V?$allocator@D@2@@std@@AEAAX_K@Z
pdata	ENDS
;	COMDAT pdata
pdata	SEGMENT
$pdata$?_Tidy_init@?$basic_string@DU?$char_traits@D@std@@V?$allocator@D@2@@std@@AEAAXXZ DD imagerel $LN3
	DD	imagerel $LN3+125
	DD	imagerel $unwind$?_Tidy_init@?$basic_string@DU?$char_traits@D@std@@V?$allocator@D@2@@std@@AEAAXXZ
pdata	ENDS
;	COMDAT pdata
pdata	SEGMENT
$pdata$?_Tidy_deallocate@?$basic_string@DU?$char_traits@D@std@@V?$allocator@D@2@@std@@AEAAXXZ DD imagerel $LN4
	DD	imagerel $LN4+222
	DD	imagerel $unwind$?_Tidy_deallocate@?$basic_string@DU?$char_traits@D@std@@V?$allocator@D@2@@std@@AEAAXXZ
pdata	ENDS
;	COMDAT pdata
pdata	SEGMENT
$pdata$?_Swap_proxy_and_iterators@?$basic_string@DU?$char_traits@D@std@@V?$allocator@D@2@@std@@AEAAXAEAV12@@Z DD imagerel $LN3
	DD	imagerel $LN3+68
	DD	imagerel $unwind$?_Swap_proxy_and_iterators@?$basic_string@DU?$char_traits@D@std@@V?$allocator@D@2@@std@@AEAAXAEAV12@@Z
pdata	ENDS
;	COMDAT pdata
pdata	SEGMENT
$pdata$?_Getal@?$basic_string@DU?$char_traits@D@std@@V?$allocator@D@2@@std@@AEAAAEAV?$allocator@D@2@XZ DD imagerel $LN3
	DD	imagerel $LN3+56
	DD	imagerel $unwind$?_Getal@?$basic_string@DU?$char_traits@D@std@@V?$allocator@D@2@@std@@AEAAAEAV?$allocator@D@2@XZ
pdata	ENDS
;	COMDAT pdata
pdata	SEGMENT
$pdata$?_Getal@?$basic_string@DU?$char_traits@D@std@@V?$allocator@D@2@@std@@AEBAAEBV?$allocator@D@2@XZ DD imagerel $LN3
	DD	imagerel $LN3+56
	DD	imagerel $unwind$?_Getal@?$basic_string@DU?$char_traits@D@std@@V?$allocator@D@2@@std@@AEBAAEBV?$allocator@D@2@XZ
pdata	ENDS
;	COMDAT pdata
pdata	SEGMENT
$pdata$?_Get_first@?$_Compressed_pair@V?$allocator@D@std@@V?$_String_val@U?$_Simple_types@D@std@@@2@$00@std@@QEAAAEAV?$allocator@D@2@XZ DD imagerel $LN3
	DD	imagerel $LN3+48
	DD	imagerel $unwind$?_Get_first@?$_Compressed_pair@V?$allocator@D@std@@V?$_String_val@U?$_Simple_types@D@std@@@2@$00@std@@QEAAAEAV?$allocator@D@2@XZ
pdata	ENDS
;	COMDAT pdata
pdata	SEGMENT
$pdata$?_Get_first@?$_Compressed_pair@V?$allocator@D@std@@V?$_String_val@U?$_Simple_types@D@std@@@2@$00@std@@QEBAAEBV?$allocator@D@2@XZ DD imagerel $LN3
	DD	imagerel $LN3+48
	DD	imagerel $unwind$?_Get_first@?$_Compressed_pair@V?$allocator@D@std@@V?$_String_val@U?$_Simple_types@D@std@@@2@$00@std@@QEBAAEBV?$allocator@D@2@XZ
pdata	ENDS
;	COMDAT pdata
pdata	SEGMENT
$pdata$??1?$_Compressed_pair@V?$allocator@D@std@@V?$_String_val@U?$_Simple_types@D@std@@@2@$00@std@@QEAA@XZ DD imagerel $LN3
	DD	imagerel $LN3+44
	DD	imagerel $unwind$??1?$_Compressed_pair@V?$allocator@D@std@@V?$_String_val@U?$_Simple_types@D@std@@@2@$00@std@@QEAA@XZ
pdata	ENDS
;	COMDAT pdata
pdata	SEGMENT
$pdata$??0bad_cast@std@@QEAA@XZ DD imagerel $LN3
	DD	imagerel $LN3+90
	DD	imagerel $unwind$??0bad_cast@std@@QEAA@XZ
pdata	ENDS
;	COMDAT pdata
pdata	SEGMENT
$pdata$??1bad_cast@std@@UEAA@XZ DD imagerel $LN3
	DD	imagerel $LN3+41
	DD	imagerel $unwind$??1bad_cast@std@@UEAA@XZ
pdata	ENDS
;	COMDAT pdata
pdata	SEGMENT
$pdata$??0bad_cast@std@@QEAA@AEBV01@@Z DD imagerel $LN3
	DD	imagerel $LN3+77
	DD	imagerel $unwind$??0bad_cast@std@@QEAA@AEBV01@@Z
pdata	ENDS
;	COMDAT pdata
pdata	SEGMENT
$pdata$??_Gbad_cast@std@@UEAAPEAXI@Z DD imagerel $LN4
	DD	imagerel $LN4+82
	DD	imagerel $unwind$??_Gbad_cast@std@@UEAAPEAXI@Z
pdata	ENDS
;	COMDAT pdata
pdata	SEGMENT
$pdata$?_Throw_bad_cast@std@@YAXXZ DD imagerel $LN3
	DD	imagerel $LN3+68
	DD	imagerel $unwind$?_Throw_bad_cast@std@@YAXXZ
pdata	ENDS
;	COMDAT pdata
pdata	SEGMENT
$pdata$??1locale@std@@QEAA@XZ DD imagerel $LN6
	DD	imagerel $LN6+144
	DD	imagerel $unwind$??1locale@std@@QEAA@XZ
pdata	ENDS
;	COMDAT pdata
pdata	SEGMENT
$pdata$?_Getfacet@locale@std@@QEBAPEBVfacet@12@_K@Z DD imagerel $LN8
	DD	imagerel $LN8+208
	DD	imagerel $unwind$?_Getfacet@locale@std@@QEBAPEBVfacet@12@_K@Z
pdata	ENDS
;	COMDAT pdata
pdata	SEGMENT
$pdata$??$use_facet@V?$ctype@D@std@@@std@@YAAEBV?$ctype@D@0@AEBVlocale@0@@Z DD imagerel $LN11
	DD	imagerel $LN11+395
	DD	imagerel $unwind$??$use_facet@V?$ctype@D@std@@@std@@YAAEBV?$ctype@D@0@AEBVlocale@0@@Z
pdata	ENDS
;	COMDAT pdata
pdata	SEGMENT
$pdata$?dtor$0@?0???$use_facet@V?$ctype@D@std@@@std@@YAAEBV?$ctype@D@0@AEBVlocale@0@@Z@4HA DD imagerel ?dtor$0@?0???$use_facet@V?$ctype@D@std@@@std@@YAAEBV?$ctype@D@0@AEBVlocale@0@@Z@4HA
	DD	imagerel ?dtor$0@?0???$use_facet@V?$ctype@D@std@@@std@@YAAEBV?$ctype@D@0@AEBVlocale@0@@Z@4HA+37
	DD	imagerel $unwind$?dtor$0@?0???$use_facet@V?$ctype@D@std@@@std@@YAAEBV?$ctype@D@0@AEBVlocale@0@@Z@4HA
pdata	ENDS
;	COMDAT pdata
pdata	SEGMENT
$pdata$?dtor$1@?0???$use_facet@V?$ctype@D@std@@@std@@YAAEBV?$ctype@D@0@AEBVlocale@0@@Z@4HA DD imagerel ?dtor$1@?0???$use_facet@V?$ctype@D@std@@@std@@YAAEBV?$ctype@D@0@AEBVlocale@0@@Z@4HA
	DD	imagerel ?dtor$1@?0???$use_facet@V?$ctype@D@std@@@std@@YAAEBV?$ctype@D@0@AEBVlocale@0@@Z@4HA+39
	DD	imagerel $unwind$?dtor$1@?0???$use_facet@V?$ctype@D@std@@@std@@YAAEBV?$ctype@D@0@AEBVlocale@0@@Z@4HA
pdata	ENDS
;	COMDAT pdata
pdata	SEGMENT
$pdata$?stoi@std@@YAHAEBV?$basic_string@DU?$char_traits@D@std@@V?$allocator@D@2@@1@PEA_KH@Z DD imagerel $LN6
	DD	imagerel $LN6+270
	DD	imagerel $unwind$?stoi@std@@YAHAEBV?$basic_string@DU?$char_traits@D@std@@V?$allocator@D@2@@1@PEA_KH@Z
pdata	ENDS
;	COMDAT pdata
pdata	SEGMENT
$pdata$main DD	imagerel $LN21
	DD	imagerel $LN21+1720
	DD	imagerel $unwind$main
pdata	ENDS
;	COMDAT pdata
pdata	SEGMENT
$pdata$main$dtor$0 DD imagerel main$dtor$0
	DD	imagerel main$dtor$0+39
	DD	imagerel $unwind$main$dtor$0
pdata	ENDS
;	COMDAT pdata
pdata	SEGMENT
$pdata$main$dtor$1 DD imagerel main$dtor$1
	DD	imagerel main$dtor$1+39
	DD	imagerel $unwind$main$dtor$1
pdata	ENDS
;	COMDAT pdata
pdata	SEGMENT
$pdata$main$dtor$2 DD imagerel main$dtor$2
	DD	imagerel main$dtor$2+39
	DD	imagerel $unwind$main$dtor$2
pdata	ENDS
;	COMDAT pdata
pdata	SEGMENT
$pdata$main$dtor$3 DD imagerel main$dtor$3
	DD	imagerel main$dtor$3+39
	DD	imagerel $unwind$main$dtor$3
pdata	ENDS
;	COMDAT pdata
pdata	SEGMENT
$pdata$main$dtor$4 DD imagerel main$dtor$4
	DD	imagerel main$dtor$4+39
	DD	imagerel $unwind$main$dtor$4
pdata	ENDS
;	COMDAT pdata
pdata	SEGMENT
$pdata$main$dtor$5 DD imagerel main$dtor$5
	DD	imagerel main$dtor$5+39
	DD	imagerel $unwind$main$dtor$5
pdata	ENDS
;	COMDAT pdata
pdata	SEGMENT
$pdata$main$dtor$6 DD imagerel main$dtor$6
	DD	imagerel main$dtor$6+39
	DD	imagerel $unwind$main$dtor$6
pdata	ENDS
;	COMDAT pdata
pdata	SEGMENT
$pdata$main$dtor$7 DD imagerel main$dtor$7
	DD	imagerel main$dtor$7+39
	DD	imagerel $unwind$main$dtor$7
pdata	ENDS
;	COMDAT pdata
pdata	SEGMENT
$pdata$??$?6U?$char_traits@D@std@@@std@@YAAEAV?$basic_ostream@DU?$char_traits@D@std@@@0@AEAV10@PEBD@Z DD imagerel $LN25
	DD	imagerel $LN25+991
	DD	imagerel $unwind$??$?6U?$char_traits@D@std@@@std@@YAAEAV?$basic_ostream@DU?$char_traits@D@std@@@0@AEAV10@PEBD@Z
pdata	ENDS
;	COMDAT pdata
pdata	SEGMENT
$pdata$?dtor$0@?0???$?6U?$char_traits@D@std@@@std@@YAAEAV?$basic_ostream@DU?$char_traits@D@std@@@0@AEAV10@PEBD@Z@4HA DD imagerel ?dtor$0@?0???$?6U?$char_traits@D@std@@@std@@YAAEAV?$basic_ostream@DU?$char_traits@D@std@@@0@AEAV10@PEBD@Z@4HA
	DD	imagerel ?dtor$0@?0???$?6U?$char_traits@D@std@@@std@@YAAEAV?$basic_ostream@DU?$char_traits@D@std@@@0@AEAV10@PEBD@Z@4HA+36
	DD	imagerel $unwind$?dtor$0@?0???$?6U?$char_traits@D@std@@@std@@YAAEAV?$basic_ostream@DU?$char_traits@D@std@@@0@AEAV10@PEBD@Z@4HA
pdata	ENDS
;	COMDAT pdata
pdata	SEGMENT
$pdata$?catch$1@?0???$?6U?$char_traits@D@std@@@std@@YAAEAV?$basic_ostream@DU?$char_traits@D@std@@@0@AEAV10@PEBD@Z@4HA DD imagerel ?catch$1@?0???$?6U?$char_traits@D@std@@@std@@YAAEAV?$basic_ostream@DU?$char_traits@D@std@@@0@AEAV10@PEBD@Z@4HA
	DD	imagerel ?catch$1@?0???$?6U?$char_traits@D@std@@@std@@YAAEAV?$basic_ostream@DU?$char_traits@D@std@@@0@AEAV10@PEBD@Z@4HA+80
	DD	imagerel $unwind$?catch$1@?0???$?6U?$char_traits@D@std@@@std@@YAAEAV?$basic_ostream@DU?$char_traits@D@std@@@0@AEAV10@PEBD@Z@4HA
pdata	ENDS
;	COMDAT pdata
pdata	SEGMENT
$pdata$??$?5DU?$char_traits@D@std@@V?$allocator@D@1@@std@@YAAEAV?$basic_istream@DU?$char_traits@D@std@@@0@AEAV10@AEAV?$basic_string@DU?$char_traits@D@std@@V?$allocator@D@2@@0@@Z DD imagerel $LN22
	DD	imagerel $LN22+877
	DD	imagerel $unwind$??$?5DU?$char_traits@D@std@@V?$allocator@D@1@@std@@YAAEAV?$basic_istream@DU?$char_traits@D@std@@@0@AEAV10@AEAV?$basic_string@DU?$char_traits@D@std@@V?$allocator@D@2@@0@@Z
pdata	ENDS
;	COMDAT pdata
pdata	SEGMENT
$pdata$?dtor$0@?0???$?5DU?$char_traits@D@std@@V?$allocator@D@1@@std@@YAAEAV?$basic_istream@DU?$char_traits@D@std@@@0@AEAV10@AEAV?$basic_string@DU?$char_traits@D@std@@V?$allocator@D@2@@0@@Z@4HA DD imagerel ?dtor$0@?0???$?5DU?$char_traits@D@std@@V?$allocator@D@1@@std@@YAAEAV?$basic_istream@DU?$char_traits@D@std@@@0@AEAV10@AEAV?$basic_string@DU?$char_traits@D@std@@V?$allocator@D@2@@0@@Z@4HA
	DD	imagerel ?dtor$0@?0???$?5DU?$char_traits@D@std@@V?$allocator@D@1@@std@@YAAEAV?$basic_istream@DU?$char_traits@D@std@@@0@AEAV10@AEAV?$basic_string@DU?$char_traits@D@std@@V?$allocator@D@2@@0@@Z@4HA+36
	DD	imagerel $unwind$?dtor$0@?0???$?5DU?$char_traits@D@std@@V?$allocator@D@1@@std@@YAAEAV?$basic_istream@DU?$char_traits@D@std@@@0@AEAV10@AEAV?$basic_string@DU?$char_traits@D@std@@V?$allocator@D@2@@0@@Z@4HA
pdata	ENDS
;	COMDAT pdata
pdata	SEGMENT
$pdata$?dtor$1@?0???$?5DU?$char_traits@D@std@@V?$allocator@D@1@@std@@YAAEAV?$basic_istream@DU?$char_traits@D@std@@@0@AEAV10@AEAV?$basic_string@DU?$char_traits@D@std@@V?$allocator@D@2@@0@@Z@4HA DD imagerel ?dtor$1@?0???$?5DU?$char_traits@D@std@@V?$allocator@D@1@@std@@YAAEAV?$basic_istream@DU?$char_traits@D@std@@@0@AEAV10@AEAV?$basic_string@DU?$char_traits@D@std@@V?$allocator@D@2@@0@@Z@4HA
	DD	imagerel ?dtor$1@?0???$?5DU?$char_traits@D@std@@V?$allocator@D@1@@std@@YAAEAV?$basic_istream@DU?$char_traits@D@std@@@0@AEAV10@AEAV?$basic_string@DU?$char_traits@D@std@@V?$allocator@D@2@@0@@Z@4HA+39
	DD	imagerel $unwind$?dtor$1@?0???$?5DU?$char_traits@D@std@@V?$allocator@D@1@@std@@YAAEAV?$basic_istream@DU?$char_traits@D@std@@@0@AEAV10@AEAV?$basic_string@DU?$char_traits@D@std@@V?$allocator@D@2@@0@@Z@4HA
pdata	ENDS
;	COMDAT pdata
pdata	SEGMENT
$pdata$?catch$2@?0???$?5DU?$char_traits@D@std@@V?$allocator@D@1@@std@@YAAEAV?$basic_istream@DU?$char_traits@D@std@@@0@AEAV10@AEAV?$basic_string@DU?$char_traits@D@std@@V?$allocator@D@2@@0@@Z@4HA DD imagerel ?catch$2@?0???$?5DU?$char_traits@D@std@@V?$allocator@D@1@@std@@YAAEAV?$basic_istream@DU?$char_traits@D@std@@@0@AEAV10@AEAV?$basic_string@DU?$char_traits@D@std@@V?$allocator@D@2@@0@@Z@4HA
	DD	imagerel ?catch$2@?0???$?5DU?$char_traits@D@std@@V?$allocator@D@1@@std@@YAAEAV?$basic_istream@DU?$char_traits@D@std@@@0@AEAV10@AEAV?$basic_string@DU?$char_traits@D@std@@V?$allocator@D@2@@0@@Z@4HA+80
	DD	imagerel $unwind$?catch$2@?0???$?5DU?$char_traits@D@std@@V?$allocator@D@1@@std@@YAAEAV?$basic_istream@DU?$char_traits@D@std@@@0@AEAV10@AEAV?$basic_string@DU?$char_traits@D@std@@V?$allocator@D@2@@0@@Z@4HA
pdata	ENDS
;	COMDAT pdata
pdata	SEGMENT
$pdata$??$endl@DU?$char_traits@D@std@@@std@@YAAEAV?$basic_ostream@DU?$char_traits@D@std@@@0@AEAV10@@Z DD imagerel $LN3
	DD	imagerel $LN3+115
	DD	imagerel $unwind$??$endl@DU?$char_traits@D@std@@@std@@YAAEAV?$basic_ostream@DU?$char_traits@D@std@@@0@AEAV10@@Z
pdata	ENDS
;	COMDAT pdata
pdata	SEGMENT
$pdata$??0_Sentry_base@?$basic_ostream@DU?$char_traits@D@std@@@std@@QEAA@AEAV12@@Z DD imagerel $LN4
	DD	imagerel $LN4+148
	DD	imagerel $unwind$??0_Sentry_base@?$basic_ostream@DU?$char_traits@D@std@@@std@@QEAA@AEAV12@@Z
pdata	ENDS
;	COMDAT pdata
pdata	SEGMENT
$pdata$??1_Sentry_base@?$basic_ostream@DU?$char_traits@D@std@@@std@@QEAA@XZ DD imagerel $LN4
	DD	imagerel $LN4+120
	DD	imagerel $unwind$??1_Sentry_base@?$basic_ostream@DU?$char_traits@D@std@@@std@@QEAA@XZ
pdata	ENDS
;	COMDAT pdata
pdata	SEGMENT
$pdata$??0sentry@?$basic_ostream@DU?$char_traits@D@std@@@std@@QEAA@AEAV12@@Z DD imagerel $LN7
	DD	imagerel $LN7+261
	DD	imagerel $unwind$??0sentry@?$basic_ostream@DU?$char_traits@D@std@@@std@@QEAA@AEAV12@@Z
pdata	ENDS
;	COMDAT pdata
pdata	SEGMENT
$pdata$?dtor$0@?0???0sentry@?$basic_ostream@DU?$char_traits@D@std@@@std@@QEAA@AEAV12@@Z@4HA DD imagerel ?dtor$0@?0???0sentry@?$basic_ostream@DU?$char_traits@D@std@@@std@@QEAA@AEAV12@@Z@4HA
	DD	imagerel ?dtor$0@?0???0sentry@?$basic_ostream@DU?$char_traits@D@std@@@std@@QEAA@AEAV12@@Z@4HA+39
	DD	imagerel $unwind$?dtor$0@?0???0sentry@?$basic_ostream@DU?$char_traits@D@std@@@std@@QEAA@AEAV12@@Z@4HA
pdata	ENDS
;	COMDAT pdata
pdata	SEGMENT
$pdata$??1sentry@?$basic_ostream@DU?$char_traits@D@std@@@std@@QEAA@XZ DD imagerel $LN6
	DD	imagerel $LN6+115
	DD	imagerel $unwind$??1sentry@?$basic_ostream@DU?$char_traits@D@std@@@std@@QEAA@XZ
pdata	ENDS
;	COMDAT pdata
pdata	SEGMENT
$pdata$??Bsentry@?$basic_ostream@DU?$char_traits@D@std@@@std@@QEBA_NXZ DD imagerel $LN3
	DD	imagerel $LN3+52
	DD	imagerel $unwind$??Bsentry@?$basic_ostream@DU?$char_traits@D@std@@@std@@QEBA_NXZ
pdata	ENDS
;	COMDAT pdata
pdata	SEGMENT
$pdata$??$min@_K@std@@YAAEB_KAEB_K0@Z DD imagerel $LN5
	DD	imagerel $LN5+119
	DD	imagerel $unwind$??$min@_K@std@@YAAEB_KAEB_K0@Z
pdata	ENDS
;	COMDAT pdata
pdata	SEGMENT
$pdata$?allocate@?$allocator@U_Container_proxy@std@@@std@@QEAAPEAU_Container_proxy@2@_K@Z DD imagerel $LN3
	DD	imagerel $LN3+66
	DD	imagerel $unwind$?allocate@?$allocator@U_Container_proxy@std@@@std@@QEAAPEAU_Container_proxy@2@_K@Z
pdata	ENDS
;	COMDAT pdata
pdata	SEGMENT
$pdata$??$_Delete_plain_internal@V?$allocator@U_Container_proxy@std@@@std@@@std@@YAXAEAV?$allocator@U_Container_proxy@std@@@0@QEAU_Container_proxy@0@@Z DD imagerel $LN3
	DD	imagerel $LN3+65
	DD	imagerel $unwind$??$_Delete_plain_internal@V?$allocator@U_Container_proxy@std@@@std@@@std@@YAXAEAV?$allocator@U_Container_proxy@std@@@0@QEAU_Container_proxy@0@@Z
pdata	ENDS
;	COMDAT pdata
pdata	SEGMENT
$pdata$??$_Alloc_proxy@V?$allocator@U_Container_proxy@std@@@std@@@_Container_base12@std@@QEAAX$$QEAV?$allocator@U_Container_proxy@std@@@1@@Z DD imagerel $LN3
	DD	imagerel $LN3+133
	DD	imagerel $unwind$??$_Alloc_proxy@V?$allocator@U_Container_proxy@std@@@std@@@_Container_base12@std@@QEAAX$$QEAV?$allocator@U_Container_proxy@std@@@1@@Z
pdata	ENDS
;	COMDAT pdata
pdata	SEGMENT
$pdata$??$?0D@?$allocator@U_Container_proxy@std@@@std@@QEAA@AEBV?$allocator@D@1@@Z DD imagerel $LN3
	DD	imagerel $LN3+53
	DD	imagerel $unwind$??$?0D@?$allocator@U_Container_proxy@std@@@std@@QEAA@AEBV?$allocator@D@1@@Z
pdata	ENDS
;	COMDAT pdata
pdata	SEGMENT
$pdata$??$addressof@V?$basic_string@DU?$char_traits@D@std@@V?$allocator@D@2@@std@@@std@@YAPEAV?$basic_string@DU?$char_traits@D@std@@V?$allocator@D@2@@0@AEAV10@@Z DD imagerel $LN3
	DD	imagerel $LN3+48
	DD	imagerel $unwind$??$addressof@V?$basic_string@DU?$char_traits@D@std@@V?$allocator@D@2@@std@@@std@@YAPEAV?$basic_string@DU?$char_traits@D@std@@V?$allocator@D@2@@0@AEAV10@@Z
pdata	ENDS
;	COMDAT pdata
pdata	SEGMENT
$pdata$??$_Pocma@V?$allocator@D@std@@@std@@YAXAEAV?$allocator@D@0@0@Z DD imagerel $LN3
	DD	imagerel $LN3+46
	DD	imagerel $unwind$??$_Pocma@V?$allocator@D@std@@@std@@YAXAEAV?$allocator@D@0@0@Z
pdata	ENDS
;	COMDAT pdata
pdata	SEGMENT
$pdata$??$?0$$V@?$_Compressed_pair@V?$allocator@D@std@@V?$_String_val@U?$_Simple_types@D@std@@@2@$00@std@@QEAA@U_Zero_then_variadic_args_t@1@@Z DD imagerel $LN3
	DD	imagerel $LN3+79
	DD	imagerel $unwind$??$?0$$V@?$_Compressed_pair@V?$allocator@D@std@@V?$_String_val@U?$_Simple_types@D@std@@@2@$00@std@@QEAA@U_Zero_then_variadic_args_t@1@@Z
pdata	ENDS
;	COMDAT pdata
pdata	SEGMENT
$pdata$??$_Construct@$00PEBD@?$basic_string@DU?$char_traits@D@std@@V?$allocator@D@2@@std@@AEAAXQEBD_K@Z DD imagerel $LN7
	DD	imagerel $LN7+621
	DD	imagerel $unwind$??$_Construct@$00PEBD@?$basic_string@DU?$char_traits@D@std@@V?$allocator@D@2@@std@@AEAAXQEBD_K@Z
pdata	ENDS
;	COMDAT pdata
pdata	SEGMENT
$pdata$?dtor$0@?0???$_Construct@$00PEBD@?$basic_string@DU?$char_traits@D@std@@V?$allocator@D@2@@std@@AEAAXQEBD_K@Z@4HA DD imagerel ?dtor$0@?0???$_Construct@$00PEBD@?$basic_string@DU?$char_traits@D@std@@V?$allocator@D@2@@std@@AEAAXQEBD_K@Z@4HA
	DD	imagerel ?dtor$0@?0???$_Construct@$00PEBD@?$basic_string@DU?$char_traits@D@std@@V?$allocator@D@2@@std@@AEAAXQEBD_K@Z@4HA+39
	DD	imagerel $unwind$?dtor$0@?0???$_Construct@$00PEBD@?$basic_string@DU?$char_traits@D@std@@V?$allocator@D@2@@std@@AEAAXQEBD_K@Z@4HA
pdata	ENDS
;	COMDAT pdata
pdata	SEGMENT
$pdata$??$_Destroy_in_place@PEAD@std@@YAXAEAPEAD@Z DD imagerel $LN3
	DD	imagerel $LN3+41
	DD	imagerel $unwind$??$_Destroy_in_place@PEAD@std@@YAXAEAPEAD@Z
pdata	ENDS
;	COMDAT pdata
pdata	SEGMENT
$pdata$??R<lambda_1>@?1??push_back@?$basic_string@DU?$char_traits@D@std@@V?$allocator@D@2@@std@@QEAAXD@Z@QEBA@QEADQEBD_KD@Z DD imagerel $LN3
	DD	imagerel $LN3+158
	DD	imagerel $unwind$??R<lambda_1>@?1??push_back@?$basic_string@DU?$char_traits@D@std@@V?$allocator@D@2@@std@@QEAAXD@Z@QEBA@QEADQEBD_KD@Z
pdata	ENDS
;	COMDAT pdata
pdata	SEGMENT
$pdata$??$_Reallocate_grow_by@V<lambda_1>@?1??push_back@?$basic_string@DU?$char_traits@D@std@@V?$allocator@D@2@@std@@QEAAXD@Z@D@?$basic_string@DU?$char_traits@D@std@@V?$allocator@D@2@@std@@AEAAAEAV01@_KV<lambda_1>@?1??push_back@01@QEAAXD@Z@D@Z DD imagerel $LN6
	DD	imagerel $LN6+589
	DD	imagerel $unwind$??$_Reallocate_grow_by@V<lambda_1>@?1??push_back@?$basic_string@DU?$char_traits@D@std@@V?$allocator@D@2@@std@@QEAAXD@Z@D@?$basic_string@DU?$char_traits@D@std@@V?$allocator@D@2@@std@@AEAAAEAV01@_KV<lambda_1>@?1??push_back@01@QEAAXD@Z@D@Z
pdata	ENDS
;	COMDAT pdata
pdata	SEGMENT
$pdata$??$_Construct_in_place@PEADAEAPEAD@std@@YAXAEAPEAD0@Z DD imagerel $LN3
	DD	imagerel $LN3+98
	DD	imagerel $unwind$??$_Construct_in_place@PEADAEAPEAD@std@@YAXAEAPEAD0@Z
pdata	ENDS
;	COMDAT pdata
pdata	SEGMENT
$pdata$??$?0AEBV?$allocator@D@std@@$$V@?$_Compressed_pair@V?$allocator@D@std@@V?$_String_val@U?$_Simple_types@D@std@@@2@$00@std@@QEAA@U_One_then_variadic_args_t@1@AEBV?$allocator@D@1@@Z DD imagerel $LN3
	DD	imagerel $LN3+72
	DD	imagerel $unwind$??$?0AEBV?$allocator@D@std@@$$V@?$_Compressed_pair@V?$allocator@D@std@@V?$_String_val@U?$_Simple_types@D@std@@@2@$00@std@@QEAA@U_One_then_variadic_args_t@1@AEBV?$allocator@D@1@@Z
pdata	ENDS
;	COMDAT pdata
pdata	SEGMENT
$pdata$??$_Unfancy@D@std@@YAPEADPEAD@Z DD imagerel $LN3
	DD	imagerel $LN3+48
	DD	imagerel $unwind$??$_Unfancy@D@std@@YAPEADPEAD@Z
pdata	ENDS
;	COMDAT pdata
pdata	SEGMENT
$pdata$??$max@_K@std@@YAAEB_KAEB_K0@Z DD imagerel $LN5
	DD	imagerel $LN5+119
	DD	imagerel $unwind$??$max@_K@std@@YAAEB_KAEB_K0@Z
pdata	ENDS
;	COMDAT pdata
pdata	SEGMENT
$pdata$??$_Deallocate@$0BA@$0A@@std@@YAXPEAX_K@Z DD imagerel $LN4
	DD	imagerel $LN4+98
	DD	imagerel $unwind$??$_Deallocate@$0BA@$0A@@std@@YAXPEAX_K@Z
pdata	ENDS
;	COMDAT pdata
pdata	SEGMENT
$pdata$??$addressof@V?$_String_val@U?$_Simple_types@D@std@@@std@@@std@@YAPEAV?$_String_val@U?$_Simple_types@D@std@@@0@AEAV10@@Z DD imagerel $LN3
	DD	imagerel $LN3+48
	DD	imagerel $unwind$??$addressof@V?$_String_val@U?$_Simple_types@D@std@@@std@@@std@@YAPEAV?$_String_val@U?$_Simple_types@D@std@@@0@AEAV10@@Z
pdata	ENDS
;	COMDAT pdata
pdata	SEGMENT
$pdata$??$addressof@$$CBV?$_String_val@U?$_Simple_types@D@std@@@std@@@std@@YAPEBV?$_String_val@U?$_Simple_types@D@std@@@0@AEBV10@@Z DD imagerel $LN3
	DD	imagerel $LN3+48
	DD	imagerel $unwind$??$addressof@$$CBV?$_String_val@U?$_Simple_types@D@std@@@std@@@std@@YAPEBV?$_String_val@U?$_Simple_types@D@std@@@0@AEBV10@@Z
pdata	ENDS
;	COMDAT pdata
pdata	SEGMENT
$pdata$??R?$default_delete@V_Facet_base@std@@@std@@QEBAXPEAV_Facet_base@1@@Z DD imagerel $LN5
	DD	imagerel $LN5+114
	DD	imagerel $unwind$??R?$default_delete@V_Facet_base@std@@@std@@QEBAXPEAV_Facet_base@1@@Z
pdata	ENDS
;	COMDAT pdata
pdata	SEGMENT
$pdata$??1?$unique_ptr@V_Facet_base@std@@U?$default_delete@V_Facet_base@std@@@2@@std@@QEAA@XZ DD imagerel $LN4
	DD	imagerel $LN4+87
	DD	imagerel $unwind$??1?$unique_ptr@V_Facet_base@std@@U?$default_delete@V_Facet_base@std@@@2@@std@@QEAA@XZ
pdata	ENDS
;	COMDAT pdata
pdata	SEGMENT
$pdata$?release@?$unique_ptr@V_Facet_base@std@@U?$default_delete@V_Facet_base@std@@@2@@std@@QEAAPEAV_Facet_base@2@XZ DD imagerel $LN3
	DD	imagerel $LN3+74
	DD	imagerel $unwind$?release@?$unique_ptr@V_Facet_base@std@@U?$default_delete@V_Facet_base@std@@@2@@std@@QEAAPEAV_Facet_base@2@XZ
pdata	ENDS
;	COMDAT pdata
pdata	SEGMENT
$pdata$?_Get_first@?$_Compressed_pair@U?$default_delete@V_Facet_base@std@@@std@@PEAV_Facet_base@2@$00@std@@QEAAAEAU?$default_delete@V_Facet_base@std@@@2@XZ DD imagerel $LN3
	DD	imagerel $LN3+48
	DD	imagerel $unwind$?_Get_first@?$_Compressed_pair@U?$default_delete@V_Facet_base@std@@@std@@PEAV_Facet_base@2@$00@std@@QEAAAEAU?$default_delete@V_Facet_base@std@@@2@XZ
pdata	ENDS
;	COMDAT pdata
pdata	SEGMENT
$pdata$?__autoclassinit2@?$unique_ptr@V_Facet_base@std@@U?$default_delete@V_Facet_base@std@@@2@@std@@QEAAX_K@Z DD imagerel $LN3
	DD	imagerel $LN3+50
	DD	imagerel $unwind$?__autoclassinit2@?$unique_ptr@V_Facet_base@std@@U?$default_delete@V_Facet_base@std@@@2@@std@@QEAAX_K@Z
pdata	ENDS
;	COMDAT pdata
pdata	SEGMENT
$pdata$??$?0U?$default_delete@V_Facet_base@std@@@std@@$0A@@?$unique_ptr@V_Facet_base@std@@U?$default_delete@V_Facet_base@std@@@2@@std@@QEAA@PEAV_Facet_base@1@@Z DD imagerel $LN3
	DD	imagerel $LN3+82
	DD	imagerel $unwind$??$?0U?$default_delete@V_Facet_base@std@@@std@@$0A@@?$unique_ptr@V_Facet_base@std@@U?$default_delete@V_Facet_base@std@@@2@@std@@QEAA@PEAV_Facet_base@1@@Z
pdata	ENDS
;	COMDAT pdata
pdata	SEGMENT
$pdata$??0_Sentry_base@?$basic_istream@DU?$char_traits@D@std@@@std@@QEAA@AEAV12@@Z DD imagerel $LN4
	DD	imagerel $LN4+148
	DD	imagerel $unwind$??0_Sentry_base@?$basic_istream@DU?$char_traits@D@std@@@std@@QEAA@AEAV12@@Z
pdata	ENDS
;	COMDAT pdata
pdata	SEGMENT
$pdata$??1_Sentry_base@?$basic_istream@DU?$char_traits@D@std@@@std@@QEAA@XZ DD imagerel $LN4
	DD	imagerel $LN4+120
	DD	imagerel $unwind$??1_Sentry_base@?$basic_istream@DU?$char_traits@D@std@@@std@@QEAA@XZ
pdata	ENDS
;	COMDAT pdata
pdata	SEGMENT
$pdata$??0sentry@?$basic_istream@DU?$char_traits@D@std@@@std@@QEAA@AEAV12@_N@Z DD imagerel $LN4
	DD	imagerel $LN4+111
	DD	imagerel $unwind$??0sentry@?$basic_istream@DU?$char_traits@D@std@@@std@@QEAA@AEAV12@_N@Z
pdata	ENDS
;	COMDAT pdata
pdata	SEGMENT
$pdata$?dtor$0@?0???0sentry@?$basic_istream@DU?$char_traits@D@std@@@std@@QEAA@AEAV12@_N@Z@4HA DD imagerel ?dtor$0@?0???0sentry@?$basic_istream@DU?$char_traits@D@std@@@std@@QEAA@AEAV12@_N@Z@4HA
	DD	imagerel ?dtor$0@?0???0sentry@?$basic_istream@DU?$char_traits@D@std@@@std@@QEAA@AEAV12@_N@Z@4HA+39
	DD	imagerel $unwind$?dtor$0@?0???0sentry@?$basic_istream@DU?$char_traits@D@std@@@std@@QEAA@AEAV12@_N@Z@4HA
pdata	ENDS
;	COMDAT pdata
pdata	SEGMENT
$pdata$??Bsentry@?$basic_istream@DU?$char_traits@D@std@@@std@@QEBA_NXZ DD imagerel $LN3
	DD	imagerel $LN3+52
	DD	imagerel $unwind$??Bsentry@?$basic_istream@DU?$char_traits@D@std@@@std@@QEBA_NXZ
pdata	ENDS
;	COMDAT pdata
pdata	SEGMENT
$pdata$??1sentry@?$basic_istream@DU?$char_traits@D@std@@@std@@QEAA@XZ DD imagerel $LN3
	DD	imagerel $LN3+41
	DD	imagerel $unwind$??1sentry@?$basic_istream@DU?$char_traits@D@std@@@std@@QEAA@XZ
pdata	ENDS
;	COMDAT pdata
pdata	SEGMENT
$pdata$??$_Deallocate_plain@V?$allocator@U_Container_proxy@std@@@std@@@std@@YAXAEAV?$allocator@U_Container_proxy@std@@@0@QEAU_Container_proxy@0@@Z DD imagerel $LN3
	DD	imagerel $LN3+72
	DD	imagerel $unwind$??$_Deallocate_plain@V?$allocator@U_Container_proxy@std@@@std@@@std@@YAXAEAV?$allocator@U_Container_proxy@std@@@0@QEAU_Container_proxy@0@@Z
pdata	ENDS
;	COMDAT pdata
pdata	SEGMENT
$pdata$??0?$_Container_proxy_ptr12@V?$allocator@U_Container_proxy@std@@@std@@@std@@QEAA@AEAV?$allocator@U_Container_proxy@std@@@1@AEAU_Container_base12@1@@Z DD imagerel $LN3
	DD	imagerel $LN3+184
	DD	imagerel $unwind$??0?$_Container_proxy_ptr12@V?$allocator@U_Container_proxy@std@@@std@@@std@@QEAA@AEAV?$allocator@U_Container_proxy@std@@@1@AEAU_Container_base12@1@@Z
pdata	ENDS
;	COMDAT pdata
pdata	SEGMENT
$pdata$??1?$_Container_proxy_ptr12@V?$allocator@U_Container_proxy@std@@@std@@@std@@QEAA@XZ DD imagerel $LN4
	DD	imagerel $LN4+80
	DD	imagerel $unwind$??1?$_Container_proxy_ptr12@V?$allocator@U_Container_proxy@std@@@std@@@std@@QEAA@XZ
pdata	ENDS
;	COMDAT pdata
pdata	SEGMENT
$pdata$??$_Unfancy@U_Container_proxy@std@@@std@@YAPEAU_Container_proxy@0@PEAU10@@Z DD imagerel $LN3
	DD	imagerel $LN3+48
	DD	imagerel $unwind$??$_Unfancy@U_Container_proxy@std@@@std@@YAPEAU_Container_proxy@0@PEAU10@@Z
pdata	ENDS
;	COMDAT pdata
pdata	SEGMENT
$pdata$??$_Construct_in_place@PEADAEBQEAD@std@@YAXAEAPEADAEBQEAD@Z DD imagerel $LN3
	DD	imagerel $LN3+98
	DD	imagerel $unwind$??$_Construct_in_place@PEADAEBQEAD@std@@YAXAEAPEADAEBQEAD@Z
pdata	ENDS
;	COMDAT pdata
pdata	SEGMENT
$pdata$??$addressof@PEAD@std@@YAPEAPEADAEAPEAD@Z DD imagerel $LN3
	DD	imagerel $LN3+48
	DD	imagerel $unwind$??$addressof@PEAD@std@@YAPEAPEADAEAPEAD@Z
pdata	ENDS
;	COMDAT pdata
pdata	SEGMENT
$pdata$??$exchange@PEAV_Facet_base@std@@$$T@std@@YAPEAV_Facet_base@0@AEAPEAV10@$$QEA$$T@Z DD imagerel $LN3
	DD	imagerel $LN3+84
	DD	imagerel $unwind$??$exchange@PEAV_Facet_base@std@@$$T@std@@YAPEAV_Facet_base@0@AEAPEAV10@$$QEA$$T@Z
pdata	ENDS
;	COMDAT pdata
pdata	SEGMENT
$pdata$??$_Get_size_of_n@$0BA@@std@@YA_K_K@Z DD imagerel $LN4
	DD	imagerel $LN4+91
	DD	imagerel $unwind$??$_Get_size_of_n@$0BA@@std@@YA_K_K@Z
pdata	ENDS
;	COMDAT pdata
pdata	SEGMENT
$pdata$??$_Allocate@$0BA@U_Default_allocate_traits@std@@$0A@@std@@YAPEAX_K@Z DD imagerel $LN5
	DD	imagerel $LN5+94
	DD	imagerel $unwind$??$_Allocate@$0BA@U_Default_allocate_traits@std@@$0A@@std@@YAPEAX_K@Z
pdata	ENDS
;	COMDAT pdata
pdata	SEGMENT
$pdata$??$_Get_size_of_n@$00@std@@YA_K_K@Z DD imagerel $LN3
	DD	imagerel $LN3+52
	DD	imagerel $unwind$??$_Get_size_of_n@$00@std@@YA_K_K@Z
pdata	ENDS
;	COMDAT pdata
pdata	SEGMENT
$pdata$??$addressof@U_Container_proxy@std@@@std@@YAPEAU_Container_proxy@0@AEAU10@@Z DD imagerel $LN3
	DD	imagerel $LN3+48
	DD	imagerel $unwind$??$addressof@U_Container_proxy@std@@@std@@YAPEAU_Container_proxy@0@AEAU10@@Z
pdata	ENDS
;	COMDAT pdata
pdata	SEGMENT
$pdata$??$?0AEAPEAV_Facet_base@std@@@?$_Compressed_pair@U?$default_delete@V_Facet_base@std@@@std@@PEAV_Facet_base@2@$00@std@@QEAA@U_Zero_then_variadic_args_t@1@AEAPEAV_Facet_base@1@@Z DD imagerel $LN3
	DD	imagerel $LN3+77
	DD	imagerel $unwind$??$?0AEAPEAV_Facet_base@std@@@?$_Compressed_pair@U?$default_delete@V_Facet_base@std@@@std@@PEAV_Facet_base@2@$00@std@@QEAA@U_Zero_then_variadic_args_t@1@AEAPEAV_Facet_base@1@@Z
pdata	ENDS
;	COMDAT pdata
pdata	SEGMENT
$pdata$?deallocate@?$_Default_allocator_traits@V?$allocator@U_Container_proxy@std@@@std@@@std@@SAXAEAV?$allocator@U_Container_proxy@std@@@2@QEAU_Container_proxy@2@_K@Z DD imagerel $LN3
	DD	imagerel $LN3+74
	DD	imagerel $unwind$?deallocate@?$_Default_allocator_traits@V?$allocator@U_Container_proxy@std@@@std@@@std@@SAXAEAV?$allocator@U_Container_proxy@std@@@2@QEAU_Container_proxy@2@_K@Z
pdata	ENDS
;	COMDAT pdata
pdata	SEGMENT
$pdata$??$_Allocate_manually_vector_aligned@U_Default_allocate_traits@std@@@std@@YAPEAX_K@Z DD imagerel $LN13
	DD	imagerel $LN13+277
	DD	imagerel $unwind$??$_Allocate_manually_vector_aligned@U_Default_allocate_traits@std@@@std@@YAPEAX_K@Z
pdata	ENDS
;	COMDAT rtc$TMZ
rtc$TMZ	SEGMENT
_RTC_Shutdown.rtc$TMZ DQ FLAT:_RTC_Shutdown
rtc$TMZ	ENDS
;	COMDAT rtc$IMZ
rtc$IMZ	SEGMENT
_RTC_InitBase.rtc$IMZ DQ FLAT:_RTC_InitBase
rtc$IMZ	ENDS
;	COMDAT ??_R1A@?0A@EA@bad_cast@std@@8
rdata$r	SEGMENT
??_R1A@?0A@EA@bad_cast@std@@8 DD imagerel ??_R0?AVbad_cast@std@@@8 ; std::bad_cast::`RTTI Base Class Descriptor at (0,-1,0,64)'
	DD	01H
	DD	00H
	DD	0ffffffffH
	DD	00H
	DD	040H
	DD	imagerel ??_R3bad_cast@std@@8
rdata$r	ENDS
;	COMDAT ??_R2bad_cast@std@@8
rdata$r	SEGMENT
??_R2bad_cast@std@@8 DD imagerel ??_R1A@?0A@EA@bad_cast@std@@8 ; std::bad_cast::`RTTI Base Class Array'
	DD	imagerel ??_R1A@?0A@EA@exception@std@@8
	ORG $+3
rdata$r	ENDS
;	COMDAT ??_R3bad_cast@std@@8
rdata$r	SEGMENT
??_R3bad_cast@std@@8 DD 00H				; std::bad_cast::`RTTI Class Hierarchy Descriptor'
	DD	00H
	DD	02H
	DD	imagerel ??_R2bad_cast@std@@8
rdata$r	ENDS
;	COMDAT ??_R4bad_cast@std@@6B@
rdata$r	SEGMENT
??_R4bad_cast@std@@6B@ DD 01H				; std::bad_cast::`RTTI Complete Object Locator'
	DD	00H
	DD	00H
	DD	imagerel ??_R0?AVbad_cast@std@@@8
	DD	imagerel ??_R3bad_cast@std@@8
	DD	imagerel ??_R4bad_cast@std@@6B@
rdata$r	ENDS
;	COMDAT ??_R1A@?0A@EA@bad_array_new_length@std@@8
rdata$r	SEGMENT
??_R1A@?0A@EA@bad_array_new_length@std@@8 DD imagerel ??_R0?AVbad_array_new_length@std@@@8 ; std::bad_array_new_length::`RTTI Base Class Descriptor at (0,-1,0,64)'
	DD	02H
	DD	00H
	DD	0ffffffffH
	DD	00H
	DD	040H
	DD	imagerel ??_R3bad_array_new_length@std@@8
rdata$r	ENDS
;	COMDAT ??_R2bad_array_new_length@std@@8
rdata$r	SEGMENT
??_R2bad_array_new_length@std@@8 DD imagerel ??_R1A@?0A@EA@bad_array_new_length@std@@8 ; std::bad_array_new_length::`RTTI Base Class Array'
	DD	imagerel ??_R1A@?0A@EA@bad_alloc@std@@8
	DD	imagerel ??_R1A@?0A@EA@exception@std@@8
	ORG $+3
rdata$r	ENDS
;	COMDAT ??_R3bad_array_new_length@std@@8
rdata$r	SEGMENT
??_R3bad_array_new_length@std@@8 DD 00H			; std::bad_array_new_length::`RTTI Class Hierarchy Descriptor'
	DD	00H
	DD	03H
	DD	imagerel ??_R2bad_array_new_length@std@@8
rdata$r	ENDS
;	COMDAT ??_R4bad_array_new_length@std@@6B@
rdata$r	SEGMENT
??_R4bad_array_new_length@std@@6B@ DD 01H		; std::bad_array_new_length::`RTTI Complete Object Locator'
	DD	00H
	DD	00H
	DD	imagerel ??_R0?AVbad_array_new_length@std@@@8
	DD	imagerel ??_R3bad_array_new_length@std@@8
	DD	imagerel ??_R4bad_array_new_length@std@@6B@
rdata$r	ENDS
;	COMDAT ??_R1A@?0A@EA@bad_alloc@std@@8
rdata$r	SEGMENT
??_R1A@?0A@EA@bad_alloc@std@@8 DD imagerel ??_R0?AVbad_alloc@std@@@8 ; std::bad_alloc::`RTTI Base Class Descriptor at (0,-1,0,64)'
	DD	01H
	DD	00H
	DD	0ffffffffH
	DD	00H
	DD	040H
	DD	imagerel ??_R3bad_alloc@std@@8
rdata$r	ENDS
;	COMDAT ??_R2bad_alloc@std@@8
rdata$r	SEGMENT
??_R2bad_alloc@std@@8 DD imagerel ??_R1A@?0A@EA@bad_alloc@std@@8 ; std::bad_alloc::`RTTI Base Class Array'
	DD	imagerel ??_R1A@?0A@EA@exception@std@@8
	ORG $+3
rdata$r	ENDS
;	COMDAT ??_R3bad_alloc@std@@8
rdata$r	SEGMENT
??_R3bad_alloc@std@@8 DD 00H				; std::bad_alloc::`RTTI Class Hierarchy Descriptor'
	DD	00H
	DD	02H
	DD	imagerel ??_R2bad_alloc@std@@8
rdata$r	ENDS
;	COMDAT ??_R4bad_alloc@std@@6B@
rdata$r	SEGMENT
??_R4bad_alloc@std@@6B@ DD 01H				; std::bad_alloc::`RTTI Complete Object Locator'
	DD	00H
	DD	00H
	DD	imagerel ??_R0?AVbad_alloc@std@@@8
	DD	imagerel ??_R3bad_alloc@std@@8
	DD	imagerel ??_R4bad_alloc@std@@6B@
rdata$r	ENDS
;	COMDAT ??_R1A@?0A@EA@exception@std@@8
rdata$r	SEGMENT
??_R1A@?0A@EA@exception@std@@8 DD imagerel ??_R0?AVexception@std@@@8 ; std::exception::`RTTI Base Class Descriptor at (0,-1,0,64)'
	DD	00H
	DD	00H
	DD	0ffffffffH
	DD	00H
	DD	040H
	DD	imagerel ??_R3exception@std@@8
rdata$r	ENDS
;	COMDAT ??_R2exception@std@@8
rdata$r	SEGMENT
??_R2exception@std@@8 DD imagerel ??_R1A@?0A@EA@exception@std@@8 ; std::exception::`RTTI Base Class Array'
	ORG $+3
rdata$r	ENDS
;	COMDAT ??_R3exception@std@@8
rdata$r	SEGMENT
??_R3exception@std@@8 DD 00H				; std::exception::`RTTI Class Hierarchy Descriptor'
	DD	00H
	DD	01H
	DD	imagerel ??_R2exception@std@@8
rdata$r	ENDS
;	COMDAT ??_R4exception@std@@6B@
rdata$r	SEGMENT
??_R4exception@std@@6B@ DD 01H				; std::exception::`RTTI Complete Object Locator'
	DD	00H
	DD	00H
	DD	imagerel ??_R0?AVexception@std@@@8
	DD	imagerel ??_R3exception@std@@8
	DD	imagerel ??_R4exception@std@@6B@
rdata$r	ENDS
;	COMDAT ??_C@_0BI@CFPLBAOH@invalid?5string?5position@
CONST	SEGMENT
??_C@_0BI@CFPLBAOH@invalid?5string?5position@ DB 'invalid string position'
	DB	00H						; `string'
CONST	ENDS
;	COMDAT ??_C@_1HA@FACCKGGH@?$AA?$CC?$AAn?$AAu?$AAl?$AAl?$AA?5?$AAp?$AAo?$AAi?$AAn?$AAt?$AAe?$AAr?$AA?5?$AAc@
CONST	SEGMENT
??_C@_1HA@FACCKGGH@?$AA?$CC?$AAn?$AAu?$AAl?$AAl?$AA?5?$AAp?$AAo?$AAi?$AAn?$AAt?$AAe?$AAr?$AA?5?$AAc@ DB '"'
	DB	00H, 'n', 00H, 'u', 00H, 'l', 00H, 'l', 00H, ' ', 00H, 'p', 00H
	DB	'o', 00H, 'i', 00H, 'n', 00H, 't', 00H, 'e', 00H, 'r', 00H, ' '
	DB	00H, 'c', 00H, 'a', 00H, 'n', 00H, 'n', 00H, 'o', 00H, 't', 00H
	DB	' ', 00H, 'p', 00H, 'o', 00H, 'i', 00H, 'n', 00H, 't', 00H, ' '
	DB	00H, 't', 00H, 'o', 00H, ' ', 00H, 'a', 00H, ' ', 00H, 'b', 00H
	DB	'l', 00H, 'o', 00H, 'c', 00H, 'k', 00H, ' ', 00H, 'o', 00H, 'f'
	DB	00H, ' ', 00H, 'n', 00H, 'o', 00H, 'n', 00H, '-', 00H, 'z', 00H
	DB	'e', 00H, 'r', 00H, 'o', 00H, ' ', 00H, 's', 00H, 'i', 00H, 'z'
	DB	00H, 'e', 00H, '"', 00H, 00H, 00H		; `string'
CONST	ENDS
;	COMDAT ??_C@_0DG@KGHKKGBC@null?5pointer?5cannot?5point?5to?5a?5@
CONST	SEGMENT
??_C@_0DG@KGHKKGBC@null?5pointer?5cannot?5point?5to?5a?5@ DB 'null pointe'
	DB	'r cannot point to a block of non-zero size', 00H ; `string'
CONST	ENDS
;	COMDAT ??_C@_05PEDNBBBD@Pause@
CONST	SEGMENT
??_C@_05PEDNBBBD@Pause@ DB 'Pause', 00H			; `string'
CONST	ENDS
;	COMDAT ??_C@_08GIKPFBHL@?L?e?q?$PP?v?5?9?5@
CONST	SEGMENT
??_C@_08GIKPFBHL@?L?e?q?$PP?v?5?9?5@ DB 0ccH, 0e5H, 0f1H, 0ffH, 0f6H, ' -'
	DB	' ', 00H					; `string'
CONST	ENDS
;	COMDAT ??_C@_0BM@ECJLCKJH@?D?n?5?d?m?$PP?5?P?n?f?d?e?m?h?$PP?5?n?q?r?$OA?k?n?q?$PM?5?9?5@
CONST	SEGMENT
??_C@_0BM@ECJLCKJH@?D?n?5?d?m?$PP?5?P?n?f?d?e?m?h?$PP?5?n?q?r?$OA?k?n?q?$PM?5?9?5@ DB 0c4H
	DB	0eeH, ' ', 0e4H, 0edH, 0ffH, ' ', 0d0H, 0eeH, 0e6H, 0e4H, 0e5H
	DB	0edH, 0e8H, 0ffH, ' ', 0eeH, 0f1H, 0f2H, 0e0H, 0ebH, 0eeH, 0f1H
	DB	0fcH, ' - ', 00H				; `string'
CONST	ENDS
;	COMDAT ??_C@_0CF@ENAOLNIK@?O?n?p?$PP?d?j?n?b?$PL?i?5?m?n?l?e?p?5?q?e?c?n?d?m?$PP?x?m?e?c?n?5?d@
CONST	SEGMENT
??_C@_0CF@ENAOLNIK@?O?n?p?$PP?d?j?n?b?$PL?i?5?m?n?l?e?p?5?q?e?c?n?d?m?$PP?x?m?e?c?n?5?d@ DB 0cfH
	DB	0eeH, 0f0H, 0ffH, 0e4H, 0eaH, 0eeH, 0e2H, 0fbH, 0e9H, ' ', 0edH
	DB	0eeH, 0ecH, 0e5H, 0f0H, ' ', 0f1H, 0e5H, 0e3H, 0eeH, 0e4H, 0edH
	DB	0ffH, 0f8H, 0edH, 0e5H, 0e3H, 0eeH, ' ', 0e4H, 0edH, 0ffH, ' -'
	DB	' ', 00H					; `string'
CONST	ENDS
;	COMDAT ??_C@_0BE@DLECMKKF@?B?$PL?5?n?x?h?a?k?h?q?$PM?5?b?5?d?$OA?r?e?$CB@
CONST	SEGMENT
??_C@_0BE@DLECMKKF@?B?$PL?5?n?x?h?a?k?h?q?$PM?5?b?5?d?$OA?r?e?$CB@ DB 0c2H
	DB	0fbH, ' ', 0eeH, 0f8H, 0e8H, 0e1H, 0ebH, 0e8H, 0f1H, 0fcH, ' ', 0e2H
	DB	' ', 0e4H, 0e0H, 0f2H, 0e5H, '!', 00H	; `string'
CONST	ENDS
;	COMDAT ??_C@_0CN@CMEOPOLI@?B?b?e?d?h?r?e?5?q?e?c?n?d?m?$PP?x?m?$PO?$PO?5?d?$OA?r?s?5?b?5?t?n?p?l@
CONST	SEGMENT
??_C@_0CN@CMEOPOLI@?B?b?e?d?h?r?e?5?q?e?c?n?d?m?$PP?x?m?$PO?$PO?5?d?$OA?r?s?5?b?5?t?n?p?l@ DB 0c2H
	DB	0e2H, 0e5H, 0e4H, 0e8H, 0f2H, 0e5H, ' ', 0f1H, 0e5H, 0e3H, 0eeH
	DB	0e4H, 0edH, 0ffH, 0f8H, 0edH, 0feH, 0feH, ' ', 0e4H, 0e0H, 0f2H
	DB	0f3H, ' ', 0e2H, ' ', 0f4H, 0eeH, 0f0H, 0ecH, 0e0H, 0f2H, 0e5H
	DB	' ', 0c4H, 0c4H, 0ccH, 0ccH, 0c3H, 0c3H, 0c3H, 0c3H, ' ', 00H ; `string'
CONST	ENDS
;	COMDAT ??_C@_0M@LKCEPKJL@?$NP?5?p?n?d?h?k?$OA?q?$PM?5@
CONST	SEGMENT
??_C@_0M@LKCEPKJL@?$NP?5?p?n?d?h?k?$OA?q?$PM?5@ DB 0dfH, ' ', 0f0H, 0eeH, 0e4H
	DB	0e8H, 0ebH, 0e0H, 0f1H, 0fcH, ' ', 00H	; `string'
CONST	ENDS
;	COMDAT ??_C@_0BL@MFFNMGGC@stoi?5argument?5out?5of?5range@
CONST	SEGMENT
??_C@_0BL@MFFNMGGC@stoi?5argument?5out?5of?5range@ DB 'stoi argument out '
	DB	'of range', 00H				; `string'
CONST	ENDS
;	COMDAT ??_C@_0BG@HGEDEDEC@invalid?5stoi?5argument@
CONST	SEGMENT
??_C@_0BG@HGEDEDEC@invalid?5stoi?5argument@ DB 'invalid stoi argument', 00H ; `string'
CONST	ENDS
;	COMDAT ??_C@_00CNPNBAHC@@
CONST	SEGMENT
??_C@_00CNPNBAHC@@ DB 00H				; `string'
CONST	ENDS
;	COMDAT _CT??_R0?AVbad_cast@std@@@8??0bad_cast@std@@QEAA@AEBV01@@Z24
xdata$x	SEGMENT
_CT??_R0?AVbad_cast@std@@@8??0bad_cast@std@@QEAA@AEBV01@@Z24 DD 00H
	DD	imagerel ??_R0?AVbad_cast@std@@@8
	DD	00H
	DD	0ffffffffH
	ORG $+4
	DD	018H
	DD	imagerel ??0bad_cast@std@@QEAA@AEBV01@@Z
xdata$x	ENDS
;	COMDAT ??_R0?AVbad_cast@std@@@8
data$r	SEGMENT
??_R0?AVbad_cast@std@@@8 DQ FLAT:??_7type_info@@6B@	; std::bad_cast `RTTI Type Descriptor'
	DQ	0000000000000000H
	DB	'.?AVbad_cast@std@@', 00H
data$r	ENDS
;	COMDAT _CTA2?AVbad_cast@std@@
xdata$x	SEGMENT
_CTA2?AVbad_cast@std@@ DD 02H
	DD	imagerel _CT??_R0?AVbad_cast@std@@@8??0bad_cast@std@@QEAA@AEBV01@@Z24
	DD	imagerel _CT??_R0?AVexception@std@@@8??0exception@std@@QEAA@AEBV01@@Z24
xdata$x	ENDS
;	COMDAT _TI2?AVbad_cast@std@@
xdata$x	SEGMENT
_TI2?AVbad_cast@std@@ DD 00H
	DD	imagerel ??1bad_cast@std@@UEAA@XZ
	DD	00H
	DD	imagerel _CTA2?AVbad_cast@std@@
xdata$x	ENDS
;	COMDAT ??_C@_08EPJLHIJG@bad?5cast@
CONST	SEGMENT
??_C@_08EPJLHIJG@bad?5cast@ DB 'bad cast', 00H		; `string'
CONST	ENDS
;	COMDAT ??_7bad_cast@std@@6B@
CONST	SEGMENT
??_7bad_cast@std@@6B@ DQ FLAT:??_R4bad_cast@std@@6B@	; std::bad_cast::`vftable'
	DQ	FLAT:??_Ebad_cast@std@@UEAAPEAXI@Z
	DQ	FLAT:?what@exception@std@@UEBAPEBDXZ
CONST	ENDS
;	COMDAT ??_C@_0BA@JFNIOLAK@string?5too?5long@
CONST	SEGMENT
??_C@_0BA@JFNIOLAK@string?5too?5long@ DB 'string too long', 00H ; `string'
CONST	ENDS
;	COMDAT ??_C@_1CG@JNLFBNGN@?$AA?$CC?$AAi?$AAn?$AAv?$AAa?$AAl?$AAi?$AAd?$AA?5?$AAa?$AAr?$AAg?$AAu?$AAm?$AAe@
CONST	SEGMENT
??_C@_1CG@JNLFBNGN@?$AA?$CC?$AAi?$AAn?$AAv?$AAa?$AAl?$AAi?$AAd?$AA?5?$AAa?$AAr?$AAg?$AAu?$AAm?$AAe@ DB '"'
	DB	00H, 'i', 00H, 'n', 00H, 'v', 00H, 'a', 00H, 'l', 00H, 'i', 00H
	DB	'd', 00H, ' ', 00H, 'a', 00H, 'r', 00H, 'g', 00H, 'u', 00H, 'm'
	DB	00H, 'e', 00H, 'n', 00H, 't', 00H, '"', 00H, 00H, 00H ; `string'
CONST	ENDS
;	COMDAT ??_C@_11LOCGONAA@@
CONST	SEGMENT
??_C@_11LOCGONAA@@ DB 00H, 00H				; `string'
CONST	ENDS
;	COMDAT ??_C@_1ME@PPIEIJND@?$AAC?$AA?3?$AA?2?$AAP?$AAr?$AAo?$AAg?$AAr?$AAa?$AAm?$AA?5?$AAF?$AAi?$AAl?$AAe@
CONST	SEGMENT
??_C@_1ME@PPIEIJND@?$AAC?$AA?3?$AA?2?$AAP?$AAr?$AAo?$AAg?$AAr?$AAa?$AAm?$AA?5?$AAF?$AAi?$AAl?$AAe@ DB 'C'
	DB	00H, ':', 00H, '\', 00H, 'P', 00H, 'r', 00H, 'o', 00H, 'g', 00H
	DB	'r', 00H, 'a', 00H, 'm', 00H, ' ', 00H, 'F', 00H, 'i', 00H, 'l'
	DB	00H, 'e', 00H, 's', 00H, '\', 00H, 'M', 00H, 'i', 00H, 'c', 00H
	DB	'r', 00H, 'o', 00H, 's', 00H, 'o', 00H, 'f', 00H, 't', 00H, ' '
	DB	00H, 'V', 00H, 'i', 00H, 's', 00H, 'u', 00H, 'a', 00H, 'l', 00H
	DB	' ', 00H, 'S', 00H, 't', 00H, 'u', 00H, 'd', 00H, 'i', 00H, 'o'
	DB	00H, '\', 00H, '2', 00H, '0', 00H, '2', 00H, '2', 00H, '\', 00H
	DB	'C', 00H, 'o', 00H, 'm', 00H, 'm', 00H, 'u', 00H, 'n', 00H, 'i'
	DB	00H, 't', 00H, 'y', 00H, '\', 00H, 'V', 00H, 'C', 00H, '\', 00H
	DB	'T', 00H, 'o', 00H, 'o', 00H, 'l', 00H, 's', 00H, '\', 00H, 'M'
	DB	00H, 'S', 00H, 'V', 00H, 'C', 00H, '\', 00H, '1', 00H, '4', 00H
	DB	'.', 00H, '3', 00H, '7', 00H, '.', 00H, '3', 00H, '2', 00H, '8'
	DB	00H, '2', 00H, '2', 00H, '\', 00H, 'i', 00H, 'n', 00H, 'c', 00H
	DB	'l', 00H, 'u', 00H, 'd', 00H, 'e', 00H, '\', 00H, 'x', 00H, 'm'
	DB	00H, 'e', 00H, 'm', 00H, 'o', 00H, 'r', 00H, 'y', 00H, 00H, 00H ; `string'
CONST	ENDS
;	COMDAT ??_C@_0GC@JDLAECEI@C?3?2Program?5Files?2Microsoft?5Visu@
CONST	SEGMENT
??_C@_0GC@JDLAECEI@C?3?2Program?5Files?2Microsoft?5Visu@ DB 'C:\Program F'
	DB	'iles\Microsoft Visual Studio\2022\Community\VC\Tools\MSVC\14.'
	DB	'37.32822\include\xmemory', 00H		; `string'
CONST	ENDS
;	COMDAT ??_C@_02DKCKIIND@?$CFs@
CONST	SEGMENT
??_C@_02DKCKIIND@?$CFs@ DB '%s', 00H			; `string'
CONST	ENDS
;	COMDAT ??_C@_0BB@FCMFBGOM@invalid?5argument@
CONST	SEGMENT
??_C@_0BB@FCMFBGOM@invalid?5argument@ DB 'invalid argument', 00H ; `string'
CONST	ENDS
;	COMDAT ?__LINE__Var@?0??_Adjust_manually_vector_aligned@std@@YAXAEAPEAXAEA_K@Z@4JA
_DATA	SEGMENT
?__LINE__Var@?0??_Adjust_manually_vector_aligned@std@@YAXAEAPEAXAEA_K@Z@4JA DD 09bH ; `std::_Adjust_manually_vector_aligned'::`1'::__LINE__Var
_DATA	ENDS
;	COMDAT _CT??_R0?AVexception@std@@@8??0exception@std@@QEAA@AEBV01@@Z24
xdata$x	SEGMENT
_CT??_R0?AVexception@std@@@8??0exception@std@@QEAA@AEBV01@@Z24 DD 00H
	DD	imagerel ??_R0?AVexception@std@@@8
	DD	00H
	DD	0ffffffffH
	ORG $+4
	DD	018H
	DD	imagerel ??0exception@std@@QEAA@AEBV01@@Z
xdata$x	ENDS
;	COMDAT ??_R0?AVexception@std@@@8
data$r	SEGMENT
??_R0?AVexception@std@@@8 DQ FLAT:??_7type_info@@6B@	; std::exception `RTTI Type Descriptor'
	DQ	0000000000000000H
	DB	'.?AVexception@std@@', 00H
data$r	ENDS
;	COMDAT _CT??_R0?AVbad_alloc@std@@@8??0bad_alloc@std@@QEAA@AEBV01@@Z24
xdata$x	SEGMENT
_CT??_R0?AVbad_alloc@std@@@8??0bad_alloc@std@@QEAA@AEBV01@@Z24 DD 010H
	DD	imagerel ??_R0?AVbad_alloc@std@@@8
	DD	00H
	DD	0ffffffffH
	ORG $+4
	DD	018H
	DD	imagerel ??0bad_alloc@std@@QEAA@AEBV01@@Z
xdata$x	ENDS
;	COMDAT ??_R0?AVbad_alloc@std@@@8
data$r	SEGMENT
??_R0?AVbad_alloc@std@@@8 DQ FLAT:??_7type_info@@6B@	; std::bad_alloc `RTTI Type Descriptor'
	DQ	0000000000000000H
	DB	'.?AVbad_alloc@std@@', 00H
data$r	ENDS
;	COMDAT _CT??_R0?AVbad_array_new_length@std@@@8??0bad_array_new_length@std@@QEAA@AEBV01@@Z24
xdata$x	SEGMENT
_CT??_R0?AVbad_array_new_length@std@@@8??0bad_array_new_length@std@@QEAA@AEBV01@@Z24 DD 00H
	DD	imagerel ??_R0?AVbad_array_new_length@std@@@8
	DD	00H
	DD	0ffffffffH
	ORG $+4
	DD	018H
	DD	imagerel ??0bad_array_new_length@std@@QEAA@AEBV01@@Z
xdata$x	ENDS
;	COMDAT ??_R0?AVbad_array_new_length@std@@@8
data$r	SEGMENT
??_R0?AVbad_array_new_length@std@@@8 DQ FLAT:??_7type_info@@6B@ ; std::bad_array_new_length `RTTI Type Descriptor'
	DQ	0000000000000000H
	DB	'.?AVbad_array_new_length@std@@', 00H
data$r	ENDS
;	COMDAT _CTA3?AVbad_array_new_length@std@@
xdata$x	SEGMENT
_CTA3?AVbad_array_new_length@std@@ DD 03H
	DD	imagerel _CT??_R0?AVbad_array_new_length@std@@@8??0bad_array_new_length@std@@QEAA@AEBV01@@Z24
	DD	imagerel _CT??_R0?AVbad_alloc@std@@@8??0bad_alloc@std@@QEAA@AEBV01@@Z24
	DD	imagerel _CT??_R0?AVexception@std@@@8??0exception@std@@QEAA@AEBV01@@Z24
xdata$x	ENDS
;	COMDAT _TI3?AVbad_array_new_length@std@@
xdata$x	SEGMENT
_TI3?AVbad_array_new_length@std@@ DD 00H
	DD	imagerel ??1bad_array_new_length@std@@UEAA@XZ
	DD	00H
	DD	imagerel _CTA3?AVbad_array_new_length@std@@
xdata$x	ENDS
;	COMDAT ??_C@_0BF@KINCDENJ@bad?5array?5new?5length@
CONST	SEGMENT
??_C@_0BF@KINCDENJ@bad?5array?5new?5length@ DB 'bad array new length', 00H ; `string'
CONST	ENDS
;	COMDAT ??_7bad_array_new_length@std@@6B@
CONST	SEGMENT
??_7bad_array_new_length@std@@6B@ DQ FLAT:??_R4bad_array_new_length@std@@6B@ ; std::bad_array_new_length::`vftable'
	DQ	FLAT:??_Ebad_array_new_length@std@@UEAAPEAXI@Z
	DQ	FLAT:?what@exception@std@@UEBAPEBDXZ
CONST	ENDS
;	COMDAT ??_7bad_alloc@std@@6B@
CONST	SEGMENT
??_7bad_alloc@std@@6B@ DQ FLAT:??_R4bad_alloc@std@@6B@	; std::bad_alloc::`vftable'
	DQ	FLAT:??_Ebad_alloc@std@@UEAAPEAXI@Z
	DQ	FLAT:?what@exception@std@@UEBAPEBDXZ
CONST	ENDS
;	COMDAT ??_C@_0BC@EOODALEL@Unknown?5exception@
CONST	SEGMENT
??_C@_0BC@EOODALEL@Unknown?5exception@ DB 'Unknown exception', 00H ; `string'
CONST	ENDS
;	COMDAT ??_7exception@std@@6B@
CONST	SEGMENT
??_7exception@std@@6B@ DQ FLAT:??_R4exception@std@@6B@	; std::exception::`vftable'
	DQ	FLAT:??_Eexception@std@@UEAAPEAXI@Z
	DQ	FLAT:?what@exception@std@@UEBAPEBDXZ
CONST	ENDS
;	COMDAT xdata
xdata	SEGMENT
$unwind$??$_Allocate_manually_vector_aligned@U_Default_allocate_traits@std@@@std@@YAPEAX_K@Z DD 035051301H
	DD	010e3313H
	DD	07007002bH
	DD	05006H
xdata	ENDS
;	COMDAT xdata
xdata	SEGMENT
$unwind$?deallocate@?$_Default_allocator_traits@V?$allocator@U_Container_proxy@std@@@std@@@std@@SAXAEAV?$allocator@U_Container_proxy@std@@@2@QEAU_Container_proxy@2@_K@Z DD 025051d01H
	DD	0118231dH
	DD	07011001dH
	DD	05010H
xdata	ENDS
;	COMDAT xdata
xdata	SEGMENT
$unwind$??$?0AEAPEAV_Facet_base@std@@@?$_Compressed_pair@U?$default_delete@V_Facet_base@std@@@std@@PEAV_Facet_base@2@$00@std@@QEAA@U_Zero_then_variadic_args_t@1@AEAPEAV_Facet_base@1@@Z DD 025051c01H
	DD	0117231cH
	DD	07010001dH
	DD	0500fH
xdata	ENDS
;	COMDAT xdata
xdata	SEGMENT
$unwind$??$addressof@U_Container_proxy@std@@@std@@YAPEAU_Container_proxy@0@AEAU10@@Z DD 025051301H
	DD	010e2313H
	DD	07007001dH
	DD	05006H
xdata	ENDS
;	COMDAT xdata
xdata	SEGMENT
$unwind$??$_Get_size_of_n@$00@std@@YA_K_K@Z DD 025051301H
	DD	010e2313H
	DD	070070021H
	DD	05006H
xdata	ENDS
;	COMDAT xdata
xdata	SEGMENT
$unwind$??$_Allocate@$0BA@U_Default_allocate_traits@std@@$0A@@std@@YAPEAX_K@Z DD 025051301H
	DD	010e2313H
	DD	07007001dH
	DD	05006H
xdata	ENDS
;	COMDAT xdata
xdata	SEGMENT
$unwind$??$_Get_size_of_n@$0BA@@std@@YA_K_K@Z DD 025051301H
	DD	010e2313H
	DD	070070025H
	DD	05006H
xdata	ENDS
;	COMDAT xdata
xdata	SEGMENT
$unwind$??$exchange@PEAV_Facet_base@std@@$$T@std@@YAPEAV_Facet_base@0@AEAPEAV10@$$QEA$$T@Z DD 025051801H
	DD	01132318H
	DD	0700c0021H
	DD	0500bH
xdata	ENDS
;	COMDAT xdata
xdata	SEGMENT
$unwind$??$addressof@PEAD@std@@YAPEAPEADAEAPEAD@Z DD 025051301H
	DD	010e2313H
	DD	07007001dH
	DD	05006H
xdata	ENDS
;	COMDAT xdata
xdata	SEGMENT
$unwind$??$_Construct_in_place@PEADAEBQEAD@std@@YAXAEAPEADAEBQEAD@Z DD 025051801H
	DD	01132318H
	DD	0700c0021H
	DD	0500bH
xdata	ENDS
;	COMDAT xdata
xdata	SEGMENT
$unwind$??$_Unfancy@U_Container_proxy@std@@@std@@YAPEAU_Container_proxy@0@PEAU10@@Z DD 025051301H
	DD	010e2313H
	DD	07007001dH
	DD	05006H
xdata	ENDS
;	COMDAT xdata
xdata	SEGMENT
$unwind$??1?$_Container_proxy_ptr12@V?$allocator@U_Container_proxy@std@@@std@@@std@@QEAA@XZ DD 025051301H
	DD	010e2313H
	DD	07007001dH
	DD	05006H
xdata	ENDS
;	COMDAT xdata
xdata	SEGMENT
$unwind$??0?$_Container_proxy_ptr12@V?$allocator@U_Container_proxy@std@@@std@@@std@@QEAA@AEAV?$allocator@U_Container_proxy@std@@@1@AEAU_Container_base12@1@@Z DD 025051d01H
	DD	0118231dH
	DD	070110021H
	DD	05010H
xdata	ENDS
;	COMDAT xdata
xdata	SEGMENT
$ip2state$??$_Deallocate_plain@V?$allocator@U_Container_proxy@std@@@std@@@std@@YAXAEAV?$allocator@U_Container_proxy@std@@@0@QEAU_Container_proxy@0@@Z DB 02H
	DB	00H
	DB	00H
xdata	ENDS
;	COMDAT xdata
xdata	SEGMENT
$cppxdata$??$_Deallocate_plain@V?$allocator@U_Container_proxy@std@@@std@@@std@@YAXAEAV?$allocator@U_Container_proxy@std@@@0@QEAU_Container_proxy@0@@Z DB 060H
	DD	imagerel $ip2state$??$_Deallocate_plain@V?$allocator@U_Container_proxy@std@@@std@@@std@@YAXAEAV?$allocator@U_Container_proxy@std@@@0@QEAU_Container_proxy@0@@Z
xdata	ENDS
;	COMDAT xdata
xdata	SEGMENT
$unwind$??$_Deallocate_plain@V?$allocator@U_Container_proxy@std@@@std@@@std@@YAXAEAV?$allocator@U_Container_proxy@std@@@0@QEAU_Container_proxy@0@@Z DD 025051819H
	DD	01132318H
	DD	0700c001dH
	DD	0500bH
	DD	imagerel __CxxFrameHandler4
	DD	imagerel $cppxdata$??$_Deallocate_plain@V?$allocator@U_Container_proxy@std@@@std@@@std@@YAXAEAV?$allocator@U_Container_proxy@std@@@0@QEAU_Container_proxy@0@@Z
xdata	ENDS
;	COMDAT xdata
xdata	SEGMENT
$unwind$??1sentry@?$basic_istream@DU?$char_traits@D@std@@@std@@QEAA@XZ DD 025051301H
	DD	010e2313H
	DD	07007001dH
	DD	05006H
xdata	ENDS
;	COMDAT xdata
xdata	SEGMENT
$unwind$??Bsentry@?$basic_istream@DU?$char_traits@D@std@@@std@@QEBA_NXZ DD 025051301H
	DD	010e2313H
	DD	07007001dH
	DD	05006H
xdata	ENDS
;	COMDAT voltbl
voltbl	SEGMENT
_volmd	DB	00H
	DB	05H
voltbl	ENDS
;	COMDAT xdata
xdata	SEGMENT
$unwind$?dtor$0@?0???0sentry@?$basic_istream@DU?$char_traits@D@std@@@std@@QEAA@AEAV12@_N@Z@4HA DD 031001H
	DD	0700c4210H
	DD	0500bH
xdata	ENDS
;	COMDAT xdata
xdata	SEGMENT
$ip2state$??0sentry@?$basic_istream@DU?$char_traits@D@std@@@std@@QEAA@AEAV12@_N@Z DB 06H
	DB	00H
	DB	00H
	DB	'z'
	DB	02H
	DB	'B'
	DB	00H
xdata	ENDS
;	COMDAT xdata
xdata	SEGMENT
$stateUnwindMap$??0sentry@?$basic_istream@DU?$char_traits@D@std@@@std@@QEAA@AEAV12@_N@Z DB 02H
	DB	0eH
	DD	imagerel ?dtor$0@?0???0sentry@?$basic_istream@DU?$char_traits@D@std@@@std@@QEAA@AEAV12@_N@Z@4HA
xdata	ENDS
;	COMDAT xdata
xdata	SEGMENT
$cppxdata$??0sentry@?$basic_istream@DU?$char_traits@D@std@@@std@@QEAA@AEAV12@_N@Z DB 028H
	DD	imagerel $stateUnwindMap$??0sentry@?$basic_istream@DU?$char_traits@D@std@@@std@@QEAA@AEAV12@_N@Z
	DD	imagerel $ip2state$??0sentry@?$basic_istream@DU?$char_traits@D@std@@@std@@QEAA@AEAV12@_N@Z
xdata	ENDS
;	COMDAT xdata
xdata	SEGMENT
$unwind$??0sentry@?$basic_istream@DU?$char_traits@D@std@@@std@@QEAA@AEAV12@_N@Z DD 025051d11H
	DD	0118231dH
	DD	07011001dH
	DD	05010H
	DD	imagerel __CxxFrameHandler4
	DD	imagerel $cppxdata$??0sentry@?$basic_istream@DU?$char_traits@D@std@@@std@@QEAA@AEAV12@_N@Z
xdata	ENDS
;	COMDAT xdata
xdata	SEGMENT
$ip2state$??1_Sentry_base@?$basic_istream@DU?$char_traits@D@std@@@std@@QEAA@XZ DB 02H
	DB	00H
	DB	00H
xdata	ENDS
;	COMDAT xdata
xdata	SEGMENT
$cppxdata$??1_Sentry_base@?$basic_istream@DU?$char_traits@D@std@@@std@@QEAA@XZ DB 060H
	DD	imagerel $ip2state$??1_Sentry_base@?$basic_istream@DU?$char_traits@D@std@@@std@@QEAA@XZ
xdata	ENDS
;	COMDAT xdata
xdata	SEGMENT
$unwind$??1_Sentry_base@?$basic_istream@DU?$char_traits@D@std@@@std@@QEAA@XZ DD 025051319H
	DD	010e2313H
	DD	070070021H
	DD	05006H
	DD	imagerel __CxxFrameHandler4
	DD	imagerel $cppxdata$??1_Sentry_base@?$basic_istream@DU?$char_traits@D@std@@@std@@QEAA@XZ
xdata	ENDS
;	COMDAT xdata
xdata	SEGMENT
$unwind$??0_Sentry_base@?$basic_istream@DU?$char_traits@D@std@@@std@@QEAA@AEAV12@@Z DD 025051801H
	DD	01132318H
	DD	0700c0021H
	DD	0500bH
xdata	ENDS
;	COMDAT xdata
xdata	SEGMENT
$unwind$??$?0U?$default_delete@V_Facet_base@std@@@std@@$0A@@?$unique_ptr@V_Facet_base@std@@U?$default_delete@V_Facet_base@std@@@2@@std@@QEAA@PEAV_Facet_base@1@@Z DD 025051801H
	DD	01132318H
	DD	0700c0021H
	DD	0500bH
xdata	ENDS
;	COMDAT xdata
xdata	SEGMENT
$unwind$?__autoclassinit2@?$unique_ptr@V_Facet_base@std@@U?$default_delete@V_Facet_base@std@@@2@@std@@QEAAX_K@Z DD 05051601H
	DD	01130316H
	DD	0700c0019H
	DD	0500bH
xdata	ENDS
;	COMDAT xdata
xdata	SEGMENT
$unwind$?_Get_first@?$_Compressed_pair@U?$default_delete@V_Facet_base@std@@@std@@PEAV_Facet_base@2@$00@std@@QEAAAEAU?$default_delete@V_Facet_base@std@@@2@XZ DD 025051301H
	DD	010e2313H
	DD	07007001dH
	DD	05006H
xdata	ENDS
;	COMDAT xdata
xdata	SEGMENT
$unwind$?release@?$unique_ptr@V_Facet_base@std@@U?$default_delete@V_Facet_base@std@@@2@@std@@QEAAPEAV_Facet_base@2@XZ DD 025051301H
	DD	010e2313H
	DD	070070021H
	DD	05006H
xdata	ENDS
;	COMDAT xdata
xdata	SEGMENT
$unwind$??1?$unique_ptr@V_Facet_base@std@@U?$default_delete@V_Facet_base@std@@@2@@std@@QEAA@XZ DD 025051301H
	DD	010e2313H
	DD	07007001dH
	DD	05006H
xdata	ENDS
;	COMDAT xdata
xdata	SEGMENT
$unwind$??R?$default_delete@V_Facet_base@std@@@std@@QEBAXPEAV_Facet_base@1@@Z DD 025051801H
	DD	01132318H
	DD	0700c0021H
	DD	0500bH
xdata	ENDS
;	COMDAT xdata
xdata	SEGMENT
$unwind$??$addressof@$$CBV?$_String_val@U?$_Simple_types@D@std@@@std@@@std@@YAPEBV?$_String_val@U?$_Simple_types@D@std@@@0@AEBV10@@Z DD 025051301H
	DD	010e2313H
	DD	07007001dH
	DD	05006H
xdata	ENDS
;	COMDAT xdata
xdata	SEGMENT
$unwind$??$addressof@V?$_String_val@U?$_Simple_types@D@std@@@std@@@std@@YAPEAV?$_String_val@U?$_Simple_types@D@std@@@0@AEAV10@@Z DD 025051301H
	DD	010e2313H
	DD	07007001dH
	DD	05006H
xdata	ENDS
;	COMDAT xdata
xdata	SEGMENT
$ip2state$??$_Deallocate@$0BA@$0A@@std@@YAXPEAX_K@Z DB 02H
	DB	00H
	DB	00H
xdata	ENDS
;	COMDAT xdata
xdata	SEGMENT
$cppxdata$??$_Deallocate@$0BA@$0A@@std@@YAXPEAX_K@Z DB 060H
	DD	imagerel $ip2state$??$_Deallocate@$0BA@$0A@@std@@YAXPEAX_K@Z
xdata	ENDS
;	COMDAT xdata
xdata	SEGMENT
$unwind$??$_Deallocate@$0BA@$0A@@std@@YAXPEAX_K@Z DD 025051819H
	DD	01132318H
	DD	0700c001dH
	DD	0500bH
	DD	imagerel __CxxFrameHandler4
	DD	imagerel $cppxdata$??$_Deallocate@$0BA@$0A@@std@@YAXPEAX_K@Z
xdata	ENDS
;	COMDAT xdata
xdata	SEGMENT
$unwind$??$max@_K@std@@YAAEB_KAEB_K0@Z DD 025051801H
	DD	01132318H
	DD	0700c0021H
	DD	0500bH
xdata	ENDS
;	COMDAT xdata
xdata	SEGMENT
$unwind$??$_Unfancy@D@std@@YAPEADPEAD@Z DD 025051301H
	DD	010e2313H
	DD	07007001dH
	DD	05006H
xdata	ENDS
;	COMDAT xdata
xdata	SEGMENT
$unwind$??$?0AEBV?$allocator@D@std@@$$V@?$_Compressed_pair@V?$allocator@D@std@@V?$_String_val@U?$_Simple_types@D@std@@@2@$00@std@@QEAA@U_One_then_variadic_args_t@1@AEBV?$allocator@D@1@@Z DD 025051c01H
	DD	0117231cH
	DD	07010001dH
	DD	0500fH
xdata	ENDS
;	COMDAT xdata
xdata	SEGMENT
$unwind$??$_Construct_in_place@PEADAEAPEAD@std@@YAXAEAPEAD0@Z DD 025051801H
	DD	01132318H
	DD	0700c0021H
	DD	0500bH
xdata	ENDS
;	COMDAT voltbl
voltbl	SEGMENT
_volmd	DW	045H
	DW	0234H
voltbl	ENDS
;	COMDAT xdata
xdata	SEGMENT
$unwind$??$_Reallocate_grow_by@V<lambda_1>@?1??push_back@?$basic_string@DU?$char_traits@D@std@@V?$allocator@D@2@@std@@QEAAXD@Z@D@?$basic_string@DU?$char_traits@D@std@@V?$allocator@D@2@@std@@AEAAAEAV01@_KV<lambda_1>@?1??push_back@01@QEAAXD@Z@D@Z DD 035054c19H
	DD	011d3322H
	DD	070160045H
	DD	05015H
	DD	imagerel __GSHandlerCheck
	DD	0210H
xdata	ENDS
;	COMDAT CONST
CONST	SEGMENT
??$_Reallocate_grow_by@V<lambda_1>@?1??push_back@?$basic_string@DU?$char_traits@D@std@@V?$allocator@D@2@@std@@QEAAXD@Z@D@?$basic_string@DU?$char_traits@D@std@@V?$allocator@D@2@@std@@AEAAAEAV01@_KV<lambda_1>@?1??push_back@01@QEAAXD@Z@D@Z$rtcName$0 DB 05fH ; std::basic_string<char,std::char_traits<char>,std::allocator<char> >::_Reallocate_grow_by<`std::basic_string<char,std::char_traits<char>,std::allocator<char> >::push_back'::`2'::<lambda_1>,char>
	DB	04eH
	DB	065H
	DB	077H
	DB	05fH
	DB	070H
	DB	074H
	DB	072H
	DB	00H
	ORG $+7
??$_Reallocate_grow_by@V<lambda_1>@?1??push_back@?$basic_string@DU?$char_traits@D@std@@V?$allocator@D@2@@std@@QEAAXD@Z@D@?$basic_string@DU?$char_traits@D@std@@V?$allocator@D@2@@std@@AEAAAEAV01@_KV<lambda_1>@?1??push_back@01@QEAAXD@Z@D@Z$rtcVarDesc DD 0f8H ; std::basic_string<char,std::char_traits<char>,std::allocator<char> >::_Reallocate_grow_by<`std::basic_string<char,std::char_traits<char>,std::allocator<char> >::push_back'::`2'::<lambda_1>,char>
	DD	08H
	DQ	FLAT:??$_Reallocate_grow_by@V<lambda_1>@?1??push_back@?$basic_string@DU?$char_traits@D@std@@V?$allocator@D@2@@std@@QEAAXD@Z@D@?$basic_string@DU?$char_traits@D@std@@V?$allocator@D@2@@std@@AEAAAEAV01@_KV<lambda_1>@?1??push_back@01@QEAAXD@Z@D@Z$rtcName$0
	ORG $+48
??$_Reallocate_grow_by@V<lambda_1>@?1??push_back@?$basic_string@DU?$char_traits@D@std@@V?$allocator@D@2@@std@@QEAAXD@Z@D@?$basic_string@DU?$char_traits@D@std@@V?$allocator@D@2@@std@@AEAAAEAV01@_KV<lambda_1>@?1??push_back@01@QEAAXD@Z@D@Z$rtcFrameData DD 01H ; std::basic_string<char,std::char_traits<char>,std::allocator<char> >::_Reallocate_grow_by<`std::basic_string<char,std::char_traits<char>,std::allocator<char> >::push_back'::`2'::<lambda_1>,char>
	DD	00H
	DQ	FLAT:??$_Reallocate_grow_by@V<lambda_1>@?1??push_back@?$basic_string@DU?$char_traits@D@std@@V?$allocator@D@2@@std@@QEAAXD@Z@D@?$basic_string@DU?$char_traits@D@std@@V?$allocator@D@2@@std@@AEAAAEAV01@_KV<lambda_1>@?1??push_back@01@QEAAXD@Z@D@Z$rtcVarDesc
CONST	ENDS
;	COMDAT xdata
xdata	SEGMENT
$unwind$??R<lambda_1>@?1??push_back@?$basic_string@DU?$char_traits@D@std@@V?$allocator@D@2@@std@@QEAAXD@Z@QEBA@QEADQEBD_KD@Z DD 025052201H
	DD	011d2322H
	DD	070160021H
	DD	05015H
xdata	ENDS
;	COMDAT xdata
xdata	SEGMENT
$unwind$??$_Destroy_in_place@PEAD@std@@YAXAEAPEAD@Z DD 025051301H
	DD	010e2313H
	DD	07007001dH
	DD	05006H
xdata	ENDS
;	COMDAT voltbl
voltbl	SEGMENT
_volmd	DB	00H
	DB	05H
voltbl	ENDS
;	COMDAT voltbl
voltbl	SEGMENT
_volmd	DW	040H
	DW	0254H
voltbl	ENDS
;	COMDAT xdata
xdata	SEGMENT
$unwind$?dtor$0@?0???$_Construct@$00PEBD@?$basic_string@DU?$char_traits@D@std@@V?$allocator@D@2@@std@@AEAAXQEBD_K@Z@4HA DD 031001H
	DD	0700c4210H
	DD	0500bH
xdata	ENDS
;	COMDAT xdata
xdata	SEGMENT
$ip2state$??$_Construct@$00PEBD@?$basic_string@DU?$char_traits@D@std@@V?$allocator@D@2@@std@@AEAAXQEBD_K@Z DB 0aH
	DB	00H
	DB	00H
	DB	0c9H, 02H
	DB	02H
	DB	0ecH
	DB	00H
	DB	'"'
	DB	02H
	DB	0fdH, 03H
	DB	00H
xdata	ENDS
;	COMDAT xdata
xdata	SEGMENT
$stateUnwindMap$??$_Construct@$00PEBD@?$basic_string@DU?$char_traits@D@std@@V?$allocator@D@2@@std@@AEAAXQEBD_K@Z DB 02H
	DB	0eH
	DD	imagerel ?dtor$0@?0???$_Construct@$00PEBD@?$basic_string@DU?$char_traits@D@std@@V?$allocator@D@2@@std@@AEAAXQEBD_K@Z@4HA
xdata	ENDS
;	COMDAT xdata
xdata	SEGMENT
$cppxdata$??$_Construct@$00PEBD@?$basic_string@DU?$char_traits@D@std@@V?$allocator@D@2@@std@@AEAAXQEBD_K@Z DB 028H
	DD	imagerel $stateUnwindMap$??$_Construct@$00PEBD@?$basic_string@DU?$char_traits@D@std@@V?$allocator@D@2@@std@@AEAAXQEBD_K@Z
	DD	imagerel $ip2state$??$_Construct@$00PEBD@?$basic_string@DU?$char_traits@D@std@@V?$allocator@D@2@@std@@AEAAXQEBD_K@Z
xdata	ENDS
;	COMDAT xdata
xdata	SEGMENT
$unwind$??$_Construct@$00PEBD@?$basic_string@DU?$char_traits@D@std@@V?$allocator@D@2@@std@@AEAAXQEBD_K@Z DD 025054719H
	DD	0118231dH
	DD	070110045H
	DD	05010H
	DD	imagerel __GSHandlerCheck_EH4
	DD	imagerel $cppxdata$??$_Construct@$00PEBD@?$basic_string@DU?$char_traits@D@std@@V?$allocator@D@2@@std@@AEAAXQEBD_K@Z
	DD	0212H
xdata	ENDS
;	COMDAT CONST
CONST	SEGMENT
??$_Construct@$00PEBD@?$basic_string@DU?$char_traits@D@std@@V?$allocator@D@2@@std@@AEAAXQEBD_K@Z$rtcName$0 DB 024H ; std::basic_string<char,std::char_traits<char>,std::allocator<char> >::_Construct<1,char const *>
	DB	053H
	DB	031H
	DB	030H
	DB	00H
	ORG $+3
??$_Construct@$00PEBD@?$basic_string@DU?$char_traits@D@std@@V?$allocator@D@2@@std@@AEAAXQEBD_K@Z$rtcName$1 DB 05fH ; std::basic_string<char,std::char_traits<char>,std::allocator<char> >::_Construct<1,char const *>
	DB	050H
	DB	072H
	DB	06fH
	DB	078H
	DB	079H
	DB	00H
	ORG $+1
??$_Construct@$00PEBD@?$basic_string@DU?$char_traits@D@std@@V?$allocator@D@2@@std@@AEAAXQEBD_K@Z$rtcName$2 DB 05fH ; std::basic_string<char,std::char_traits<char>,std::allocator<char> >::_Construct<1,char const *>
	DB	04eH
	DB	065H
	DB	077H
	DB	05fH
	DB	070H
	DB	074H
	DB	072H
	DB	00H
	ORG $+7
??$_Construct@$00PEBD@?$basic_string@DU?$char_traits@D@std@@V?$allocator@D@2@@std@@AEAAXQEBD_K@Z$rtcVarDesc DD 0f8H ; std::basic_string<char,std::char_traits<char>,std::allocator<char> >::_Construct<1,char const *>
	DD	08H
	DQ	FLAT:??$_Construct@$00PEBD@?$basic_string@DU?$char_traits@D@std@@V?$allocator@D@2@@std@@AEAAXQEBD_K@Z$rtcName$2
	DD	0a8H
	DD	010H
	DQ	FLAT:??$_Construct@$00PEBD@?$basic_string@DU?$char_traits@D@std@@V?$allocator@D@2@@std@@AEAAXQEBD_K@Z$rtcName$1
	DD	084H
	DD	01H
	DQ	FLAT:??$_Construct@$00PEBD@?$basic_string@DU?$char_traits@D@std@@V?$allocator@D@2@@std@@AEAAXQEBD_K@Z$rtcName$0
	ORG $+144
??$_Construct@$00PEBD@?$basic_string@DU?$char_traits@D@std@@V?$allocator@D@2@@std@@AEAAXQEBD_K@Z$rtcFrameData DD 03H ; std::basic_string<char,std::char_traits<char>,std::allocator<char> >::_Construct<1,char const *>
	DD	00H
	DQ	FLAT:??$_Construct@$00PEBD@?$basic_string@DU?$char_traits@D@std@@V?$allocator@D@2@@std@@AEAAXQEBD_K@Z$rtcVarDesc
CONST	ENDS
;	COMDAT xdata
xdata	SEGMENT
$unwind$??$?0$$V@?$_Compressed_pair@V?$allocator@D@std@@V?$_String_val@U?$_Simple_types@D@std@@@2@$00@std@@QEAA@U_Zero_then_variadic_args_t@1@@Z DD 025051701H
	DD	01122317H
	DD	0700b001dH
	DD	0500aH
xdata	ENDS
;	COMDAT xdata
xdata	SEGMENT
$unwind$??$_Pocma@V?$allocator@D@std@@@std@@YAXAEAV?$allocator@D@0@0@Z DD 025051801H
	DD	01132318H
	DD	0700c001dH
	DD	0500bH
xdata	ENDS
;	COMDAT xdata
xdata	SEGMENT
$unwind$??$addressof@V?$basic_string@DU?$char_traits@D@std@@V?$allocator@D@2@@std@@@std@@YAPEAV?$basic_string@DU?$char_traits@D@std@@V?$allocator@D@2@@0@AEAV10@@Z DD 025051301H
	DD	010e2313H
	DD	07007001dH
	DD	05006H
xdata	ENDS
;	COMDAT xdata
xdata	SEGMENT
$unwind$??$?0D@?$allocator@U_Container_proxy@std@@@std@@QEAA@AEBV?$allocator@D@1@@Z DD 025051801H
	DD	01132318H
	DD	0700c001dH
	DD	0500bH
xdata	ENDS
;	COMDAT xdata
xdata	SEGMENT
$unwind$??$_Alloc_proxy@V?$allocator@U_Container_proxy@std@@@std@@@_Container_base12@std@@QEAAX$$QEAV?$allocator@U_Container_proxy@std@@@1@@Z DD 025051801H
	DD	01132318H
	DD	0700c0025H
	DD	0500bH
xdata	ENDS
;	COMDAT xdata
xdata	SEGMENT
$unwind$??$_Delete_plain_internal@V?$allocator@U_Container_proxy@std@@@std@@@std@@YAXAEAV?$allocator@U_Container_proxy@std@@@0@QEAU_Container_proxy@0@@Z DD 025051801H
	DD	01132318H
	DD	0700c001dH
	DD	0500bH
xdata	ENDS
;	COMDAT xdata
xdata	SEGMENT
$unwind$?allocate@?$allocator@U_Container_proxy@std@@@std@@QEAAPEAU_Container_proxy@2@_K@Z DD 025051801H
	DD	01132318H
	DD	0700c001dH
	DD	0500bH
xdata	ENDS
;	COMDAT xdata
xdata	SEGMENT
$unwind$??$min@_K@std@@YAAEB_KAEB_K0@Z DD 025051801H
	DD	01132318H
	DD	0700c0021H
	DD	0500bH
xdata	ENDS
;	COMDAT xdata
xdata	SEGMENT
$unwind$??Bsentry@?$basic_ostream@DU?$char_traits@D@std@@@std@@QEBA_NXZ DD 025051301H
	DD	010e2313H
	DD	07007001dH
	DD	05006H
xdata	ENDS
;	COMDAT xdata
xdata	SEGMENT
$unwind$??1sentry@?$basic_ostream@DU?$char_traits@D@std@@@std@@QEAA@XZ DD 025051301H
	DD	010e2313H
	DD	070070021H
	DD	05006H
xdata	ENDS
;	COMDAT voltbl
voltbl	SEGMENT
_volmd	DB	00H
	DB	05H
voltbl	ENDS
;	COMDAT xdata
xdata	SEGMENT
$unwind$?dtor$0@?0???0sentry@?$basic_ostream@DU?$char_traits@D@std@@@std@@QEAA@AEAV12@@Z@4HA DD 031001H
	DD	0700c4210H
	DD	0500bH
xdata	ENDS
;	COMDAT xdata
xdata	SEGMENT
$ip2state$??0sentry@?$basic_ostream@DU?$char_traits@D@std@@@std@@QEAA@AEAV12@@Z DB 06H
	DB	00H
	DB	00H
	DB	'p'
	DB	02H
	DB	0f1H, 02H
	DB	00H
xdata	ENDS
;	COMDAT xdata
xdata	SEGMENT
$stateUnwindMap$??0sentry@?$basic_ostream@DU?$char_traits@D@std@@@std@@QEAA@AEAV12@@Z DB 02H
	DB	0eH
	DD	imagerel ?dtor$0@?0???0sentry@?$basic_ostream@DU?$char_traits@D@std@@@std@@QEAA@AEAV12@@Z@4HA
xdata	ENDS
;	COMDAT xdata
xdata	SEGMENT
$cppxdata$??0sentry@?$basic_ostream@DU?$char_traits@D@std@@@std@@QEAA@AEAV12@@Z DB 028H
	DD	imagerel $stateUnwindMap$??0sentry@?$basic_ostream@DU?$char_traits@D@std@@@std@@QEAA@AEAV12@@Z
	DD	imagerel $ip2state$??0sentry@?$basic_ostream@DU?$char_traits@D@std@@@std@@QEAA@AEAV12@@Z
xdata	ENDS
;	COMDAT xdata
xdata	SEGMENT
$unwind$??0sentry@?$basic_ostream@DU?$char_traits@D@std@@@std@@QEAA@AEAV12@@Z DD 025051811H
	DD	01132318H
	DD	0700c0021H
	DD	0500bH
	DD	imagerel __CxxFrameHandler4
	DD	imagerel $cppxdata$??0sentry@?$basic_ostream@DU?$char_traits@D@std@@@std@@QEAA@AEAV12@@Z
xdata	ENDS
;	COMDAT xdata
xdata	SEGMENT
$ip2state$??1_Sentry_base@?$basic_ostream@DU?$char_traits@D@std@@@std@@QEAA@XZ DB 02H
	DB	00H
	DB	00H
xdata	ENDS
;	COMDAT xdata
xdata	SEGMENT
$cppxdata$??1_Sentry_base@?$basic_ostream@DU?$char_traits@D@std@@@std@@QEAA@XZ DB 060H
	DD	imagerel $ip2state$??1_Sentry_base@?$basic_ostream@DU?$char_traits@D@std@@@std@@QEAA@XZ
xdata	ENDS
;	COMDAT xdata
xdata	SEGMENT
$unwind$??1_Sentry_base@?$basic_ostream@DU?$char_traits@D@std@@@std@@QEAA@XZ DD 025051319H
	DD	010e2313H
	DD	070070021H
	DD	05006H
	DD	imagerel __CxxFrameHandler4
	DD	imagerel $cppxdata$??1_Sentry_base@?$basic_ostream@DU?$char_traits@D@std@@@std@@QEAA@XZ
xdata	ENDS
;	COMDAT xdata
xdata	SEGMENT
$unwind$??0_Sentry_base@?$basic_ostream@DU?$char_traits@D@std@@@std@@QEAA@AEAV12@@Z DD 025051801H
	DD	01132318H
	DD	0700c0021H
	DD	0500bH
xdata	ENDS
;	COMDAT xdata
xdata	SEGMENT
$unwind$??$endl@DU?$char_traits@D@std@@@std@@YAAEAV?$basic_ostream@DU?$char_traits@D@std@@@0@AEAV10@@Z DD 025051301H
	DD	010e2313H
	DD	07007001dH
	DD	05006H
xdata	ENDS
;	COMDAT voltbl
voltbl	SEGMENT
_volmd	DB	00H
	DB	05H
voltbl	ENDS
;	COMDAT voltbl
voltbl	SEGMENT
_volmd	DB	00H
	DB	05H
voltbl	ENDS
;	COMDAT voltbl
voltbl	SEGMENT
_volmd	DB	00H
	DB	05H
voltbl	ENDS
;	COMDAT voltbl
voltbl	SEGMENT
_volmd	DW	03bH
	DW	0354H
voltbl	ENDS
;	COMDAT xdata
xdata	SEGMENT
$unwind$?catch$2@?0???$?5DU?$char_traits@D@std@@V?$allocator@D@1@@std@@YAAEAV?$basic_istream@DU?$char_traits@D@std@@@0@AEAV10@AEAV?$basic_string@DU?$char_traits@D@std@@V?$allocator@D@2@@0@@Z@4HA DD 031001H
	DD	0700c4210H
	DD	0500bH
xdata	ENDS
;	COMDAT xdata
xdata	SEGMENT
$unwind$?dtor$1@?0???$?5DU?$char_traits@D@std@@V?$allocator@D@1@@std@@YAAEAV?$basic_istream@DU?$char_traits@D@std@@@0@AEAV10@AEAV?$basic_string@DU?$char_traits@D@std@@V?$allocator@D@2@@0@@Z@4HA DD 031001H
	DD	0700c4210H
	DD	0500bH
xdata	ENDS
;	COMDAT xdata
xdata	SEGMENT
$unwind$?dtor$0@?0???$?5DU?$char_traits@D@std@@V?$allocator@D@1@@std@@YAAEAV?$basic_istream@DU?$char_traits@D@std@@@0@AEAV10@AEAV?$basic_string@DU?$char_traits@D@std@@V?$allocator@D@2@@0@@Z@4HA DD 031001H
	DD	0700c4210H
	DD	0500bH
xdata	ENDS
;	COMDAT xdata
xdata	SEGMENT
$ip2state$??$?5DU?$char_traits@D@std@@V?$allocator@D@1@@std@@YAAEAV?$basic_istream@DU?$char_traits@D@std@@@0@AEAV10@AEAV?$basic_string@DU?$char_traits@D@std@@V?$allocator@D@2@@0@@Z DB 0eH
	DB	00H
	DB	00H
	DB	0daH
	DB	02H
	DB	0a8H
	DB	04H
	DB	' '
	DB	02H
	DB	'6'
	DB	06H
	DB	'E', 07H
	DB	02H
	DB	0e2H
	DB	00H
xdata	ENDS
;	COMDAT xdata
xdata	SEGMENT
$handlerMap$??$?5DU?$char_traits@D@std@@V?$allocator@D@1@@std@@YAAEAV?$basic_istream@DU?$char_traits@D@std@@@0@AEAV10@AEAV?$basic_string@DU?$char_traits@D@std@@V?$allocator@D@2@@0@@Z DB 02H
	DB	01H
	DB	080H
	DD	imagerel ?catch$2@?0???$?5DU?$char_traits@D@std@@V?$allocator@D@1@@std@@YAAEAV?$basic_istream@DU?$char_traits@D@std@@@0@AEAV10@AEAV?$basic_string@DU?$char_traits@D@std@@V?$allocator@D@2@@0@@Z@4HA
xdata	ENDS
;	COMDAT xdata
xdata	SEGMENT
$tryMap$??$?5DU?$char_traits@D@std@@V?$allocator@D@1@@std@@YAAEAV?$basic_istream@DU?$char_traits@D@std@@@0@AEAV10@AEAV?$basic_string@DU?$char_traits@D@std@@V?$allocator@D@2@@0@@Z DB 02H
	DB	04H
	DB	04H
	DB	06H
	DD	imagerel $handlerMap$??$?5DU?$char_traits@D@std@@V?$allocator@D@1@@std@@YAAEAV?$basic_istream@DU?$char_traits@D@std@@@0@AEAV10@AEAV?$basic_string@DU?$char_traits@D@std@@V?$allocator@D@2@@0@@Z
xdata	ENDS
;	COMDAT xdata
xdata	SEGMENT
$stateUnwindMap$??$?5DU?$char_traits@D@std@@V?$allocator@D@1@@std@@YAAEAV?$basic_istream@DU?$char_traits@D@std@@@0@AEAV10@AEAV?$basic_string@DU?$char_traits@D@std@@V?$allocator@D@2@@0@@Z DB 08H
	DB	0eH
	DD	imagerel ?dtor$0@?0???$?5DU?$char_traits@D@std@@V?$allocator@D@1@@std@@YAAEAV?$basic_istream@DU?$char_traits@D@std@@@0@AEAV10@AEAV?$basic_string@DU?$char_traits@D@std@@V?$allocator@D@2@@0@@Z@4HA
	DB	02eH
	DD	imagerel ?dtor$1@?0???$?5DU?$char_traits@D@std@@V?$allocator@D@1@@std@@YAAEAV?$basic_istream@DU?$char_traits@D@std@@@0@AEAV10@AEAV?$basic_string@DU?$char_traits@D@std@@V?$allocator@D@2@@0@@Z@4HA
	DB	050H
	DB	058H
xdata	ENDS
;	COMDAT xdata
xdata	SEGMENT
$cppxdata$??$?5DU?$char_traits@D@std@@V?$allocator@D@1@@std@@YAAEAV?$basic_istream@DU?$char_traits@D@std@@@0@AEAV10@AEAV?$basic_string@DU?$char_traits@D@std@@V?$allocator@D@2@@0@@Z DB 038H
	DD	imagerel $stateUnwindMap$??$?5DU?$char_traits@D@std@@V?$allocator@D@1@@std@@YAAEAV?$basic_istream@DU?$char_traits@D@std@@@0@AEAV10@AEAV?$basic_string@DU?$char_traits@D@std@@V?$allocator@D@2@@0@@Z
	DD	imagerel $tryMap$??$?5DU?$char_traits@D@std@@V?$allocator@D@1@@std@@YAAEAV?$basic_istream@DU?$char_traits@D@std@@@0@AEAV10@AEAV?$basic_string@DU?$char_traits@D@std@@V?$allocator@D@2@@0@@Z
	DD	imagerel $ip2state$??$?5DU?$char_traits@D@std@@V?$allocator@D@1@@std@@YAAEAV?$basic_istream@DU?$char_traits@D@std@@@0@AEAV10@AEAV?$basic_string@DU?$char_traits@D@std@@V?$allocator@D@2@@0@@Z
xdata	ENDS
;	COMDAT xdata
xdata	SEGMENT
$unwind$??$?5DU?$char_traits@D@std@@V?$allocator@D@1@@std@@YAAEAV?$basic_istream@DU?$char_traits@D@std@@@0@AEAV10@AEAV?$basic_string@DU?$char_traits@D@std@@V?$allocator@D@2@@0@@Z DD 025054219H
	DD	01132318H
	DD	0700c0047H
	DD	0500bH
	DD	imagerel __GSHandlerCheck_EH4
	DD	imagerel $cppxdata$??$?5DU?$char_traits@D@std@@V?$allocator@D@1@@std@@YAAEAV?$basic_istream@DU?$char_traits@D@std@@@0@AEAV10@AEAV?$basic_string@DU?$char_traits@D@std@@V?$allocator@D@2@@0@@Z
	DD	022bH
xdata	ENDS
;	COMDAT CONST
CONST	SEGMENT
??$?5DU?$char_traits@D@std@@V?$allocator@D@1@@std@@YAAEAV?$basic_istream@DU?$char_traits@D@std@@@0@AEAV10@AEAV?$basic_string@DU?$char_traits@D@std@@V?$allocator@D@2@@0@@Z$rtcName$0 DB 05fH ; std::operator>><char,std::char_traits<char>,std::allocator<char> >
	DB	04fH
	DB	06bH
	DB	00H
??$?5DU?$char_traits@D@std@@V?$allocator@D@1@@std@@YAAEAV?$basic_istream@DU?$char_traits@D@std@@@0@AEAV10@AEAV?$basic_string@DU?$char_traits@D@std@@V?$allocator@D@2@@0@@Z$rtcName$1 DB 05fH ; std::operator>><char,std::char_traits<char>,std::allocator<char> >
	DB	04dH
	DB	065H
	DB	074H
	DB	061H
	DB	00H
	ORG $+6
??$?5DU?$char_traits@D@std@@V?$allocator@D@1@@std@@YAAEAV?$basic_istream@DU?$char_traits@D@std@@@0@AEAV10@AEAV?$basic_string@DU?$char_traits@D@std@@V?$allocator@D@2@@0@@Z$rtcVarDesc DD 0d4H ; std::operator>><char,std::char_traits<char>,std::allocator<char> >
	DD	04H
	DQ	FLAT:??$?5DU?$char_traits@D@std@@V?$allocator@D@1@@std@@YAAEAV?$basic_istream@DU?$char_traits@D@std@@@0@AEAV10@AEAV?$basic_string@DU?$char_traits@D@std@@V?$allocator@D@2@@0@@Z$rtcName$1
	DD	068H
	DD	010H
	DQ	FLAT:??$?5DU?$char_traits@D@std@@V?$allocator@D@1@@std@@YAAEAV?$basic_istream@DU?$char_traits@D@std@@@0@AEAV10@AEAV?$basic_string@DU?$char_traits@D@std@@V?$allocator@D@2@@0@@Z$rtcName$0
	ORG $+96
??$?5DU?$char_traits@D@std@@V?$allocator@D@1@@std@@YAAEAV?$basic_istream@DU?$char_traits@D@std@@@0@AEAV10@AEAV?$basic_string@DU?$char_traits@D@std@@V?$allocator@D@2@@0@@Z$rtcFrameData DD 02H ; std::operator>><char,std::char_traits<char>,std::allocator<char> >
	DD	00H
	DQ	FLAT:??$?5DU?$char_traits@D@std@@V?$allocator@D@1@@std@@YAAEAV?$basic_istream@DU?$char_traits@D@std@@@0@AEAV10@AEAV?$basic_string@DU?$char_traits@D@std@@V?$allocator@D@2@@0@@Z$rtcVarDesc
CONST	ENDS
;	COMDAT voltbl
voltbl	SEGMENT
_volmd	DB	00H
	DB	05H
voltbl	ENDS
;	COMDAT voltbl
voltbl	SEGMENT
_volmd	DB	00H
	DB	05H
voltbl	ENDS
;	COMDAT voltbl
voltbl	SEGMENT
_volmd	DW	03bH
	DW	03c6H
voltbl	ENDS
;	COMDAT xdata
xdata	SEGMENT
$unwind$?catch$1@?0???$?6U?$char_traits@D@std@@@std@@YAAEAV?$basic_ostream@DU?$char_traits@D@std@@@0@AEAV10@PEBD@Z@4HA DD 031001H
	DD	0700c4210H
	DD	0500bH
xdata	ENDS
;	COMDAT xdata
xdata	SEGMENT
$unwind$?dtor$0@?0???$?6U?$char_traits@D@std@@@std@@YAAEAV?$basic_ostream@DU?$char_traits@D@std@@@0@AEAV10@PEBD@Z@4HA DD 031001H
	DD	0700c4210H
	DD	0500bH
xdata	ENDS
;	COMDAT xdata
xdata	SEGMENT
$ip2state$??$?6U?$char_traits@D@std@@@std@@YAAEAV?$basic_ostream@DU?$char_traits@D@std@@@0@AEAV10@PEBD@Z DB 0aH
	DB	00H
	DB	00H
	DB	'A', 04H
	DB	02H
	DB	'<'
	DB	04H
	DB	0e1H, 08H
	DB	02H
	DB	't'
	DB	00H
xdata	ENDS
;	COMDAT xdata
xdata	SEGMENT
$handlerMap$??$?6U?$char_traits@D@std@@@std@@YAAEAV?$basic_ostream@DU?$char_traits@D@std@@@0@AEAV10@PEBD@Z DB 02H
	DB	01H
	DB	080H
	DD	imagerel ?catch$1@?0???$?6U?$char_traits@D@std@@@std@@YAAEAV?$basic_ostream@DU?$char_traits@D@std@@@0@AEAV10@PEBD@Z@4HA
xdata	ENDS
;	COMDAT xdata
xdata	SEGMENT
$tryMap$??$?6U?$char_traits@D@std@@@std@@YAAEAV?$basic_ostream@DU?$char_traits@D@std@@@0@AEAV10@PEBD@Z DB 02H
	DB	02H
	DB	02H
	DB	04H
	DD	imagerel $handlerMap$??$?6U?$char_traits@D@std@@@std@@YAAEAV?$basic_ostream@DU?$char_traits@D@std@@@0@AEAV10@PEBD@Z
xdata	ENDS
;	COMDAT xdata
xdata	SEGMENT
$stateUnwindMap$??$?6U?$char_traits@D@std@@@std@@YAAEAV?$basic_ostream@DU?$char_traits@D@std@@@0@AEAV10@PEBD@Z DB 06H
	DB	0eH
	DD	imagerel ?dtor$0@?0???$?6U?$char_traits@D@std@@@std@@YAAEAV?$basic_ostream@DU?$char_traits@D@std@@@0@AEAV10@PEBD@Z@4HA
	DB	028H
	DB	030H
xdata	ENDS
;	COMDAT xdata
xdata	SEGMENT
$cppxdata$??$?6U?$char_traits@D@std@@@std@@YAAEAV?$basic_ostream@DU?$char_traits@D@std@@@0@AEAV10@PEBD@Z DB 038H
	DD	imagerel $stateUnwindMap$??$?6U?$char_traits@D@std@@@std@@YAAEAV?$basic_ostream@DU?$char_traits@D@std@@@0@AEAV10@PEBD@Z
	DD	imagerel $tryMap$??$?6U?$char_traits@D@std@@@std@@YAAEAV?$basic_ostream@DU?$char_traits@D@std@@@0@AEAV10@PEBD@Z
	DD	imagerel $ip2state$??$?6U?$char_traits@D@std@@@std@@YAAEAV?$basic_ostream@DU?$char_traits@D@std@@@0@AEAV10@PEBD@Z
xdata	ENDS
;	COMDAT xdata
xdata	SEGMENT
$unwind$??$?6U?$char_traits@D@std@@@std@@YAAEAV?$basic_ostream@DU?$char_traits@D@std@@@0@AEAV10@PEBD@Z DD 025054219H
	DD	01132318H
	DD	0700c0045H
	DD	0500bH
	DD	imagerel __GSHandlerCheck_EH4
	DD	imagerel $cppxdata$??$?6U?$char_traits@D@std@@@std@@YAAEAV?$basic_ostream@DU?$char_traits@D@std@@@0@AEAV10@PEBD@Z
	DD	0213H
xdata	ENDS
;	COMDAT CONST
CONST	SEGMENT
??$?6U?$char_traits@D@std@@@std@@YAAEAV?$basic_ostream@DU?$char_traits@D@std@@@0@AEAV10@PEBD@Z$rtcName$0 DB 05fH ; std::operator<<<std::char_traits<char> >
	DB	04fH
	DB	06bH
	DB	00H
	ORG $+12
??$?6U?$char_traits@D@std@@@std@@YAAEAV?$basic_ostream@DU?$char_traits@D@std@@@0@AEAV10@PEBD@Z$rtcVarDesc DD 088H ; std::operator<<<std::char_traits<char> >
	DD	010H
	DQ	FLAT:??$?6U?$char_traits@D@std@@@std@@YAAEAV?$basic_ostream@DU?$char_traits@D@std@@@0@AEAV10@PEBD@Z$rtcName$0
	ORG $+48
??$?6U?$char_traits@D@std@@@std@@YAAEAV?$basic_ostream@DU?$char_traits@D@std@@@0@AEAV10@PEBD@Z$rtcFrameData DD 01H ; std::operator<<<std::char_traits<char> >
	DD	00H
	DQ	FLAT:??$?6U?$char_traits@D@std@@@std@@YAAEAV?$basic_ostream@DU?$char_traits@D@std@@@0@AEAV10@PEBD@Z$rtcVarDesc
CONST	ENDS
;	COMDAT voltbl
voltbl	SEGMENT
_volmd	DB	00H
	DB	05H
voltbl	ENDS
;	COMDAT voltbl
voltbl	SEGMENT
_volmd	DB	00H
	DB	05H
voltbl	ENDS
;	COMDAT voltbl
voltbl	SEGMENT
_volmd	DB	00H
	DB	05H
voltbl	ENDS
;	COMDAT voltbl
voltbl	SEGMENT
_volmd	DB	00H
	DB	05H
voltbl	ENDS
;	COMDAT voltbl
voltbl	SEGMENT
_volmd	DB	00H
	DB	05H
voltbl	ENDS
;	COMDAT voltbl
voltbl	SEGMENT
_volmd	DB	00H
	DB	05H
voltbl	ENDS
;	COMDAT voltbl
voltbl	SEGMENT
_volmd	DB	00H
	DB	05H
voltbl	ENDS
;	COMDAT voltbl
voltbl	SEGMENT
_volmd	DB	00H
	DB	05H
voltbl	ENDS
;	COMDAT voltbl
voltbl	SEGMENT
_volmd	DW	02aH
	DW	069fH
voltbl	ENDS
;	COMDAT xdata
xdata	SEGMENT
$unwind$main$dtor$7 DD 031001H
	DD	0700c4210H
	DD	0500bH
xdata	ENDS
;	COMDAT xdata
xdata	SEGMENT
$unwind$main$dtor$6 DD 031001H
	DD	0700c4210H
	DD	0500bH
xdata	ENDS
;	COMDAT xdata
xdata	SEGMENT
$unwind$main$dtor$5 DD 031001H
	DD	0700c4210H
	DD	0500bH
xdata	ENDS
;	COMDAT xdata
xdata	SEGMENT
$unwind$main$dtor$4 DD 031001H
	DD	0700c4210H
	DD	0500bH
xdata	ENDS
;	COMDAT xdata
xdata	SEGMENT
$unwind$main$dtor$3 DD 031001H
	DD	0700c4210H
	DD	0500bH
xdata	ENDS
;	COMDAT xdata
xdata	SEGMENT
$unwind$main$dtor$2 DD 031001H
	DD	0700c4210H
	DD	0500bH
xdata	ENDS
;	COMDAT xdata
xdata	SEGMENT
$unwind$main$dtor$1 DD 031001H
	DD	0700c4210H
	DD	0500bH
xdata	ENDS
;	COMDAT xdata
xdata	SEGMENT
$unwind$main$dtor$0 DD 031001H
	DD	0700c4210H
	DD	0500bH
xdata	ENDS
;	COMDAT xdata
xdata	SEGMENT
$ip2state$main DB 'F'
	DB	00H
	DB	00H
	DB	0edH, 02H
	DB	02H
	DB	01aH
	DB	04H
	DB	01aH
	DB	06H
	DB	01aH
	DB	08H
	DB	01aH
	DB	0aH
	DB	01aH
	DB	0cH
	DB	01aH
	DB	0eH
	DB	01aH
	DB	010H
	DB	0feH
	DB	0eH
	DB	01aH
	DB	0cH
	DB	01aH
	DB	0aH
	DB	01aH
	DB	08H
	DB	01aH
	DB	06H
	DB	01aH
	DB	04H
	DB	01aH
	DB	02H
	DB	01aH
	DB	00H
	DB	'.'
	DB	010H
	DB	'f'
	DB	0eH
	DB	01aH
	DB	0cH
	DB	01aH
	DB	0aH
	DB	01aH
	DB	08H
	DB	01aH
	DB	06H
	DB	01aH
	DB	04H
	DB	01aH
	DB	02H
	DB	01aH
	DB	00H
	DB	'.'
	DB	010H
	DB	0c1H, 0dH
	DB	0eH
	DB	01aH
	DB	0cH
	DB	01aH
	DB	0aH
	DB	01aH
	DB	08H
	DB	01aH
	DB	06H
	DB	01aH
	DB	04H
	DB	01aH
	DB	02H
	DB	01aH
	DB	00H
xdata	ENDS
;	COMDAT xdata
xdata	SEGMENT
$stateUnwindMap$main DB 010H
	DB	0eH
	DD	imagerel main$dtor$0
	DB	02eH
	DD	imagerel main$dtor$1
	DB	02eH
	DD	imagerel main$dtor$2
	DB	02eH
	DD	imagerel main$dtor$3
	DB	02eH
	DD	imagerel main$dtor$4
	DB	02eH
	DD	imagerel main$dtor$5
	DB	02eH
	DD	imagerel main$dtor$6
	DB	02eH
	DD	imagerel main$dtor$7
xdata	ENDS
;	COMDAT xdata
xdata	SEGMENT
$cppxdata$main DB 028H
	DD	imagerel $stateUnwindMap$main
	DD	imagerel $ip2state$main
xdata	ENDS
;	COMDAT xdata
xdata	SEGMENT
$unwind$main DD	025053119H
	DD	010a230fH
	DD	0700300f9H
	DD	05002H
	DD	imagerel __GSHandlerCheck_EH4
	DD	imagerel $cppxdata$main
	DD	07b2H
xdata	ENDS
;	COMDAT CONST
CONST	SEGMENT
main$rtcName$0 DB 06cH
	DB	065H
	DB	066H
	DB	074H
	DB	00H
	ORG $+3
main$rtcName$1 DB 064H
	DB	061H
	DB	079H
	DB	073H
	DB	041H
	DB	072H
	DB	072H
	DB	061H
	DB	079H
	DB	00H
	ORG $+2
main$rtcName$2 DB 064H
	DB	061H
	DB	074H
	DB	065H
	DB	042H
	DB	044H
	DB	00H
	ORG $+1
main$rtcName$3 DB 064H
	DB	061H
	DB	074H
	DB	065H
	DB	054H
	DB	044H
	DB	00H
	ORG $+1
main$rtcName$4 DB 064H
	DB	061H
	DB	079H
	DB	00H
main$rtcName$5 DB 06dH
	DB	06fH
	DB	06eH
	DB	074H
	DB	068H
	DB	00H
	ORG $+2
main$rtcName$6 DB 079H
	DB	065H
	DB	061H
	DB	072H
	DB	00H
	ORG $+3
main$rtcName$7 DB 042H
	DB	064H
	DB	061H
	DB	079H
	DB	00H
	ORG $+3
main$rtcName$8 DB 042H
	DB	06dH
	DB	06fH
	DB	06eH
	DB	074H
	DB	068H
	DB	00H
	ORG $+1
main$rtcName$9 DB 042H
	DB	079H
	DB	065H
	DB	061H
	DB	072H
	DB	00H
	ORG $+2
main$rtcVarDesc DD 0278H
	DD	028H
	DQ	FLAT:main$rtcName$9
	DD	0238H
	DD	028H
	DQ	FLAT:main$rtcName$8
	DD	01f8H
	DD	028H
	DQ	FLAT:main$rtcName$7
	DD	01b8H
	DD	028H
	DQ	FLAT:main$rtcName$6
	DD	0178H
	DD	028H
	DQ	FLAT:main$rtcName$5
	DD	0138H
	DD	028H
	DQ	FLAT:main$rtcName$4
	DD	0f8H
	DD	028H
	DQ	FLAT:main$rtcName$3
	DD	0b8H
	DD	028H
	DQ	FLAT:main$rtcName$2
	DD	068H
	DD	030H
	DQ	FLAT:main$rtcName$1
	DD	044H
	DD	04H
	DQ	FLAT:main$rtcName$0
	ORG $+480
main$rtcFrameData DD 0aH
	DD	00H
	DQ	FLAT:main$rtcVarDesc
CONST	ENDS
;	COMDAT voltbl
voltbl	SEGMENT
_volmd	DB	040H
	DB	0f5H
voltbl	ENDS
;	COMDAT xdata
xdata	SEGMENT
$unwind$?stoi@std@@YAHAEBV?$basic_string@DU?$char_traits@D@std@@V?$allocator@D@2@@1@PEA_KH@Z DD 025054719H
	DD	0118231dH
	DD	07011002dH
	DD	05010H
	DD	imagerel __GSHandlerCheck
	DD	0158H
xdata	ENDS
;	COMDAT CONST
CONST	SEGMENT
?stoi@std@@YAHAEBV?$basic_string@DU?$char_traits@D@std@@V?$allocator@D@2@@1@PEA_KH@Z$rtcName$0 DB 05fH ; std::stoi
	DB	045H
	DB	070H
	DB	074H
	DB	072H
	DB	00H
	ORG $+10
?stoi@std@@YAHAEBV?$basic_string@DU?$char_traits@D@std@@V?$allocator@D@2@@1@PEA_KH@Z$rtcVarDesc DD 068H ; std::stoi
	DD	08H
	DQ	FLAT:?stoi@std@@YAHAEBV?$basic_string@DU?$char_traits@D@std@@V?$allocator@D@2@@1@PEA_KH@Z$rtcName$0
	ORG $+48
?stoi@std@@YAHAEBV?$basic_string@DU?$char_traits@D@std@@V?$allocator@D@2@@1@PEA_KH@Z$rtcFrameData DD 01H ; std::stoi
	DD	00H
	DQ	FLAT:?stoi@std@@YAHAEBV?$basic_string@DU?$char_traits@D@std@@V?$allocator@D@2@@1@PEA_KH@Z$rtcVarDesc
CONST	ENDS
;	COMDAT voltbl
voltbl	SEGMENT
_volmd	DB	00H
	DB	05H
voltbl	ENDS
;	COMDAT voltbl
voltbl	SEGMENT
_volmd	DB	00H
	DB	05H
voltbl	ENDS
;	COMDAT voltbl
voltbl	SEGMENT
_volmd	DW	036H
	DW	0172H
voltbl	ENDS
;	COMDAT xdata
xdata	SEGMENT
$unwind$?dtor$1@?0???$use_facet@V?$ctype@D@std@@@std@@YAAEBV?$ctype@D@0@AEBVlocale@0@@Z@4HA DD 031001H
	DD	0700c4210H
	DD	0500bH
xdata	ENDS
;	COMDAT xdata
xdata	SEGMENT
$unwind$?dtor$0@?0???$use_facet@V?$ctype@D@std@@@std@@YAAEBV?$ctype@D@0@AEBVlocale@0@@Z@4HA DD 031001H
	DD	0700c4210H
	DD	0500bH
xdata	ENDS
;	COMDAT xdata
xdata	SEGMENT
$ip2state$??$use_facet@V?$ctype@D@std@@@std@@YAAEBV?$ctype@D@0@AEBVlocale@0@@Z DB 0aH
	DB	00H
	DB	00H
	DB	0acH
	DB	02H
	DB	'y', 02H
	DB	04H
	DB	080H
	DB	02H
	DB	'.'
	DB	00H
xdata	ENDS
;	COMDAT xdata
xdata	SEGMENT
$stateUnwindMap$??$use_facet@V?$ctype@D@std@@@std@@YAAEBV?$ctype@D@0@AEBVlocale@0@@Z DB 04H
	DB	0eH
	DD	imagerel ?dtor$0@?0???$use_facet@V?$ctype@D@std@@@std@@YAAEBV?$ctype@D@0@AEBVlocale@0@@Z@4HA
	DB	02eH
	DD	imagerel ?dtor$1@?0???$use_facet@V?$ctype@D@std@@@std@@YAAEBV?$ctype@D@0@AEBVlocale@0@@Z@4HA
xdata	ENDS
;	COMDAT xdata
xdata	SEGMENT
$cppxdata$??$use_facet@V?$ctype@D@std@@@std@@YAAEBV?$ctype@D@0@AEBVlocale@0@@Z DB 028H
	DD	imagerel $stateUnwindMap$??$use_facet@V?$ctype@D@std@@@std@@YAAEBV?$ctype@D@0@AEBVlocale@0@@Z
	DD	imagerel $ip2state$??$use_facet@V?$ctype@D@std@@@std@@YAAEBV?$ctype@D@0@AEBVlocale@0@@Z
xdata	ENDS
;	COMDAT xdata
xdata	SEGMENT
$unwind$??$use_facet@V?$ctype@D@std@@@std@@YAAEBV?$ctype@D@0@AEBVlocale@0@@Z DD 025053d19H
	DD	010e2313H
	DD	070070039H
	DD	05006H
	DD	imagerel __GSHandlerCheck_EH4
	DD	imagerel $cppxdata$??$use_facet@V?$ctype@D@std@@@std@@YAAEBV?$ctype@D@0@AEBVlocale@0@@Z
	DD	01baH
xdata	ENDS
;	COMDAT CONST
CONST	SEGMENT
??$use_facet@V?$ctype@D@std@@@std@@YAAEBV?$ctype@D@0@AEBVlocale@0@@Z$rtcName$0 DB 05fH ; std::use_facet<std::ctype<char> >
	DB	04cH
	DB	06fH
	DB	063H
	DB	06bH
	DB	00H
	ORG $+2
??$use_facet@V?$ctype@D@std@@@std@@YAAEBV?$ctype@D@0@AEBVlocale@0@@Z$rtcName$1 DB 05fH ; std::use_facet<std::ctype<char> >
	DB	050H
	DB	073H
	DB	061H
	DB	076H
	DB	065H
	DB	00H
	ORG $+1
??$use_facet@V?$ctype@D@std@@@std@@YAAEBV?$ctype@D@0@AEBVlocale@0@@Z$rtcName$2 DB 05fH ; std::use_facet<std::ctype<char> >
	DB	050H
	DB	073H
	DB	061H
	DB	076H
	DB	065H
	DB	05fH
	DB	067H
	DB	075H
	DB	061H
	DB	072H
	DB	064H
	DB	00H
	ORG $+3
??$use_facet@V?$ctype@D@std@@@std@@YAAEBV?$ctype@D@0@AEBVlocale@0@@Z$rtcVarDesc DD 0c8H ; std::use_facet<std::ctype<char> >
	DD	08H
	DQ	FLAT:??$use_facet@V?$ctype@D@std@@@std@@YAAEBV?$ctype@D@0@AEBVlocale@0@@Z$rtcName$2
	DD	048H
	DD	08H
	DQ	FLAT:??$use_facet@V?$ctype@D@std@@@std@@YAAEBV?$ctype@D@0@AEBVlocale@0@@Z$rtcName$1
	DD	024H
	DD	04H
	DQ	FLAT:??$use_facet@V?$ctype@D@std@@@std@@YAAEBV?$ctype@D@0@AEBVlocale@0@@Z$rtcName$0
	ORG $+144
??$use_facet@V?$ctype@D@std@@@std@@YAAEBV?$ctype@D@0@AEBVlocale@0@@Z$rtcFrameData DD 03H ; std::use_facet<std::ctype<char> >
	DD	00H
	DQ	FLAT:??$use_facet@V?$ctype@D@std@@@std@@YAAEBV?$ctype@D@0@AEBVlocale@0@@Z$rtcVarDesc
CONST	ENDS
;	COMDAT xdata
xdata	SEGMENT
$unwind$?_Getfacet@locale@std@@QEBAPEBVfacet@12@_K@Z DD 025051801H
	DD	01132318H
	DD	0700c0025H
	DD	0500bH
xdata	ENDS
;	COMDAT xdata
xdata	SEGMENT
$unwind$??1locale@std@@QEAA@XZ DD 025051301H
	DD	010e2313H
	DD	070070021H
	DD	05006H
xdata	ENDS
;	COMDAT xdata
xdata	SEGMENT
$unwind$?_Throw_bad_cast@std@@YAXXZ DD 025050f01H
	DD	010a230fH
	DD	070030023H
	DD	05002H
xdata	ENDS
;	COMDAT xdata
xdata	SEGMENT
$unwind$??_Gbad_cast@std@@UEAAPEAXI@Z DD 025051701H
	DD	01122317H
	DD	0700b001dH
	DD	0500aH
xdata	ENDS
;	COMDAT xdata
xdata	SEGMENT
$unwind$??0bad_cast@std@@QEAA@AEBV01@@Z DD 025051801H
	DD	01132318H
	DD	0700c001dH
	DD	0500bH
xdata	ENDS
;	COMDAT xdata
xdata	SEGMENT
$unwind$??1bad_cast@std@@UEAA@XZ DD 025051301H
	DD	010e2313H
	DD	07007001dH
	DD	05006H
xdata	ENDS
;	COMDAT xdata
xdata	SEGMENT
$unwind$??0bad_cast@std@@QEAA@XZ DD 025051301H
	DD	010e2313H
	DD	07007001dH
	DD	05006H
xdata	ENDS
;	COMDAT xdata
xdata	SEGMENT
$unwind$??1?$_Compressed_pair@V?$allocator@D@std@@V?$_String_val@U?$_Simple_types@D@std@@@2@$00@std@@QEAA@XZ DD 025051301H
	DD	010e2313H
	DD	07007001dH
	DD	05006H
xdata	ENDS
;	COMDAT xdata
xdata	SEGMENT
$unwind$?_Get_first@?$_Compressed_pair@V?$allocator@D@std@@V?$_String_val@U?$_Simple_types@D@std@@@2@$00@std@@QEBAAEBV?$allocator@D@2@XZ DD 025051301H
	DD	010e2313H
	DD	07007001dH
	DD	05006H
xdata	ENDS
;	COMDAT xdata
xdata	SEGMENT
$unwind$?_Get_first@?$_Compressed_pair@V?$allocator@D@std@@V?$_String_val@U?$_Simple_types@D@std@@@2@$00@std@@QEAAAEAV?$allocator@D@2@XZ DD 025051301H
	DD	010e2313H
	DD	07007001dH
	DD	05006H
xdata	ENDS
;	COMDAT xdata
xdata	SEGMENT
$unwind$?_Getal@?$basic_string@DU?$char_traits@D@std@@V?$allocator@D@2@@std@@AEBAAEBV?$allocator@D@2@XZ DD 025051301H
	DD	010e2313H
	DD	07007001dH
	DD	05006H
xdata	ENDS
;	COMDAT xdata
xdata	SEGMENT
$unwind$?_Getal@?$basic_string@DU?$char_traits@D@std@@V?$allocator@D@2@@std@@AEAAAEAV?$allocator@D@2@XZ DD 025051301H
	DD	010e2313H
	DD	07007001dH
	DD	05006H
xdata	ENDS
;	COMDAT xdata
xdata	SEGMENT
$unwind$?_Swap_proxy_and_iterators@?$basic_string@DU?$char_traits@D@std@@V?$allocator@D@2@@std@@AEAAXAEAV12@@Z DD 025051801H
	DD	01132318H
	DD	0700c001dH
	DD	0500bH
xdata	ENDS
;	COMDAT xdata
xdata	SEGMENT
$ip2state$?_Tidy_deallocate@?$basic_string@DU?$char_traits@D@std@@V?$allocator@D@2@@std@@AEAAXXZ DB 02H
	DB	00H
	DB	00H
xdata	ENDS
;	COMDAT xdata
xdata	SEGMENT
$cppxdata$?_Tidy_deallocate@?$basic_string@DU?$char_traits@D@std@@V?$allocator@D@2@@std@@AEAAXXZ DB 060H
	DD	imagerel $ip2state$?_Tidy_deallocate@?$basic_string@DU?$char_traits@D@std@@V?$allocator@D@2@@std@@AEAAXXZ
xdata	ENDS
;	COMDAT xdata
xdata	SEGMENT
$unwind$?_Tidy_deallocate@?$basic_string@DU?$char_traits@D@std@@V?$allocator@D@2@@std@@AEAAXXZ DD 025051319H
	DD	010e2313H
	DD	07007002dH
	DD	05006H
	DD	imagerel __CxxFrameHandler4
	DD	imagerel $cppxdata$?_Tidy_deallocate@?$basic_string@DU?$char_traits@D@std@@V?$allocator@D@2@@std@@AEAAXXZ
xdata	ENDS
;	COMDAT xdata
xdata	SEGMENT
$unwind$?_Tidy_init@?$basic_string@DU?$char_traits@D@std@@V?$allocator@D@2@@std@@AEAAXXZ DD 025051301H
	DD	010e2313H
	DD	070070025H
	DD	05006H
xdata	ENDS
;	COMDAT xdata
xdata	SEGMENT
$unwind$?_Eos@?$basic_string@DU?$char_traits@D@std@@V?$allocator@D@2@@std@@AEAAX_K@Z DD 025051801H
	DD	01132318H
	DD	0700c0021H
	DD	0500bH
xdata	ENDS
;	COMDAT xdata
xdata	SEGMENT
$unwind$?_Calculate_growth@?$basic_string@DU?$char_traits@D@std@@V?$allocator@D@2@@std@@AEBA_K_K@Z DD 025051801H
	DD	01132318H
	DD	0700c001dH
	DD	0500bH
xdata	ENDS
;	COMDAT voltbl
voltbl	SEGMENT
_volmd	DB	040H
	DB	0f6H
voltbl	ENDS
;	COMDAT xdata
xdata	SEGMENT
$unwind$?_Calculate_growth@?$basic_string@DU?$char_traits@D@std@@V?$allocator@D@2@@std@@CA_K_K00@Z DD 025054719H
	DD	0118231dH
	DD	070110025H
	DD	05010H
	DD	imagerel __GSHandlerCheck
	DD	0118H
xdata	ENDS
;	COMDAT CONST
CONST	SEGMENT
?_Calculate_growth@?$basic_string@DU?$char_traits@D@std@@V?$allocator@D@2@@std@@CA_K_K00@Z$rtcName$0 DB 05fH ; std::basic_string<char,std::char_traits<char>,std::allocator<char> >::_Calculate_growth
	DB	04dH
	DB	061H
	DB	073H
	DB	06bH
	DB	065H
	DB	064H
	DB	00H
	ORG $+8
?_Calculate_growth@?$basic_string@DU?$char_traits@D@std@@V?$allocator@D@2@@std@@CA_K_K00@Z$rtcVarDesc DD 028H ; std::basic_string<char,std::char_traits<char>,std::allocator<char> >::_Calculate_growth
	DD	08H
	DQ	FLAT:?_Calculate_growth@?$basic_string@DU?$char_traits@D@std@@V?$allocator@D@2@@std@@CA_K_K00@Z$rtcName$0
	ORG $+48
?_Calculate_growth@?$basic_string@DU?$char_traits@D@std@@V?$allocator@D@2@@std@@CA_K_K00@Z$rtcFrameData DD 01H ; std::basic_string<char,std::char_traits<char>,std::allocator<char> >::_Calculate_growth
	DD	00H
	DQ	FLAT:?_Calculate_growth@?$basic_string@DU?$char_traits@D@std@@V?$allocator@D@2@@std@@CA_K_K00@Z$rtcVarDesc
CONST	ENDS
;	COMDAT xdata
xdata	SEGMENT
$unwind$?substr@?$basic_string@DU?$char_traits@D@std@@V?$allocator@D@2@@std@@QEBA?AV12@_K0@Z DD 035052201H
	DD	011d3322H
	DD	070160027H
	DD	05015H
xdata	ENDS
;	COMDAT voltbl
voltbl	SEGMENT
_volmd	DB	036H
	DB	0c9H
voltbl	ENDS
;	COMDAT xdata
xdata	SEGMENT
$unwind$?max_size@?$basic_string@DU?$char_traits@D@std@@V?$allocator@D@2@@std@@QEBA_KXZ DD 025053d19H
	DD	010e2313H
	DD	070070031H
	DD	05006H
	DD	imagerel __GSHandlerCheck
	DD	0178H
xdata	ENDS
;	COMDAT CONST
CONST	SEGMENT
?max_size@?$basic_string@DU?$char_traits@D@std@@V?$allocator@D@2@@std@@QEBA_KXZ$rtcName$0 DB 05fH ; std::basic_string<char,std::char_traits<char>,std::allocator<char> >::max_size
	DB	041H
	DB	06cH
	DB	06cH
	DB	06fH
	DB	063H
	DB	05fH
	DB	06dH
	DB	061H
	DB	078H
	DB	00H
	ORG $+5
?max_size@?$basic_string@DU?$char_traits@D@std@@V?$allocator@D@2@@std@@QEBA_KXZ$rtcVarDesc DD 028H ; std::basic_string<char,std::char_traits<char>,std::allocator<char> >::max_size
	DD	08H
	DQ	FLAT:?max_size@?$basic_string@DU?$char_traits@D@std@@V?$allocator@D@2@@std@@QEBA_KXZ$rtcName$0
	ORG $+48
?max_size@?$basic_string@DU?$char_traits@D@std@@V?$allocator@D@2@@std@@QEBA_KXZ$rtcFrameData DD 01H ; std::basic_string<char,std::char_traits<char>,std::allocator<char> >::max_size
	DD	00H
	DQ	FLAT:?max_size@?$basic_string@DU?$char_traits@D@std@@V?$allocator@D@2@@std@@QEBA_KXZ$rtcVarDesc
CONST	ENDS
;	COMDAT xdata
xdata	SEGMENT
$unwind$?size@?$basic_string@DU?$char_traits@D@std@@V?$allocator@D@2@@std@@QEBA_KXZ DD 025051301H
	DD	010e2313H
	DD	07007001dH
	DD	05006H
xdata	ENDS
;	COMDAT xdata
xdata	SEGMENT
$unwind$?c_str@?$basic_string@DU?$char_traits@D@std@@V?$allocator@D@2@@std@@QEBAPEBDXZ DD 025051301H
	DD	010e2313H
	DD	07007001dH
	DD	05006H
xdata	ENDS
;	COMDAT xdata
xdata	SEGMENT
$unwind$?push_back@?$basic_string@DU?$char_traits@D@std@@V?$allocator@D@2@@std@@QEAAXD@Z DD 025051701H
	DD	01122317H
	DD	0700b002dH
	DD	0500aH
xdata	ENDS
;	COMDAT xdata
xdata	SEGMENT
$unwind$?erase@?$basic_string@DU?$char_traits@D@std@@V?$allocator@D@2@@std@@QEAAAEAV12@_K@Z DD 025051801H
	DD	01132318H
	DD	0700c001dH
	DD	0500bH
xdata	ENDS
;	COMDAT voltbl
voltbl	SEGMENT
_volmd	DB	036H
	DB	0bdH
voltbl	ENDS
;	COMDAT xdata
xdata	SEGMENT
$unwind$??1?$basic_string@DU?$char_traits@D@std@@V?$allocator@D@2@@std@@QEAA@XZ DD 025053d19H
	DD	010e2313H
	DD	070070029H
	DD	05006H
	DD	imagerel __GSHandlerCheck
	DD	0138H
xdata	ENDS
;	COMDAT CONST
CONST	SEGMENT
??1?$basic_string@DU?$char_traits@D@std@@V?$allocator@D@2@@std@@QEAA@XZ$rtcName$0 DB 024H ; std::basic_string<char,std::char_traits<char>,std::allocator<char> >::~basic_string<char,std::char_traits<char>,std::allocator<char> >
	DB	053H
	DB	034H
	DB	00H
	ORG $+12
??1?$basic_string@DU?$char_traits@D@std@@V?$allocator@D@2@@std@@QEAA@XZ$rtcVarDesc DD 044H ; std::basic_string<char,std::char_traits<char>,std::allocator<char> >::~basic_string<char,std::char_traits<char>,std::allocator<char> >
	DD	01H
	DQ	FLAT:??1?$basic_string@DU?$char_traits@D@std@@V?$allocator@D@2@@std@@QEAA@XZ$rtcName$0
	ORG $+48
??1?$basic_string@DU?$char_traits@D@std@@V?$allocator@D@2@@std@@QEAA@XZ$rtcFrameData DD 01H ; std::basic_string<char,std::char_traits<char>,std::allocator<char> >::~basic_string<char,std::char_traits<char>,std::allocator<char> >
	DD	00H
	DQ	FLAT:??1?$basic_string@DU?$char_traits@D@std@@V?$allocator@D@2@@std@@QEAA@XZ$rtcVarDesc
CONST	ENDS
;	COMDAT xdata
xdata	SEGMENT
$ip2state$?_Take_contents@?$basic_string@DU?$char_traits@D@std@@V?$allocator@D@2@@std@@AEAAXAEAV12@@Z DB 02H
	DB	00H
	DB	00H
xdata	ENDS
;	COMDAT xdata
xdata	SEGMENT
$cppxdata$?_Take_contents@?$basic_string@DU?$char_traits@D@std@@V?$allocator@D@2@@std@@AEAAXAEAV12@@Z DB 060H
	DD	imagerel $ip2state$?_Take_contents@?$basic_string@DU?$char_traits@D@std@@V?$allocator@D@2@@std@@AEAAXAEAV12@@Z
xdata	ENDS
;	COMDAT xdata
xdata	SEGMENT
$unwind$?_Take_contents@?$basic_string@DU?$char_traits@D@std@@V?$allocator@D@2@@std@@AEAAXAEAV12@@Z DD 025051819H
	DD	01132318H
	DD	0700c0025H
	DD	0500bH
	DD	imagerel __CxxFrameHandler4
	DD	imagerel $cppxdata$?_Take_contents@?$basic_string@DU?$char_traits@D@std@@V?$allocator@D@2@@std@@AEAAXAEAV12@@Z
xdata	ENDS
;	COMDAT xdata
xdata	SEGMENT
$unwind$?_Memcpy_val_from@?$basic_string@DU?$char_traits@D@std@@V?$allocator@D@2@@std@@AEAAXAEBV12@@Z DD 025051801H
	DD	01132318H
	DD	0700c0025H
	DD	0500bH
xdata	ENDS
;	COMDAT xdata
xdata	SEGMENT
$unwind$??4?$basic_string@DU?$char_traits@D@std@@V?$allocator@D@2@@std@@QEAAAEAV01@$$QEAV01@@Z DD 025051801H
	DD	01132318H
	DD	0700c0029H
	DD	0500bH
xdata	ENDS
;	COMDAT xdata
xdata	SEGMENT
$unwind$?_Start_element_lifetimes@?$basic_string@DU?$char_traits@D@std@@V?$allocator@D@2@@std@@CAXQEAD_K@Z DD 025051801H
	DD	01132318H
	DD	0700c001dH
	DD	0500bH
xdata	ENDS
;	COMDAT voltbl
voltbl	SEGMENT
_volmd	DB	00H
	DB	05H
voltbl	ENDS
;	COMDAT xdata
xdata	SEGMENT
$unwind$?dtor$0@?0???0?$basic_string@DU?$char_traits@D@std@@V?$allocator@D@2@@std@@QEAA@AEBV01@_K1AEBV?$allocator@D@1@@Z@4HA DD 031001H
	DD	0700c4210H
	DD	0500bH
xdata	ENDS
;	COMDAT xdata
xdata	SEGMENT
$ip2state$??0?$basic_string@DU?$char_traits@D@std@@V?$allocator@D@2@@std@@QEAA@AEBV01@_K1AEBV?$allocator@D@1@@Z DB 06H
	DB	00H
	DB	00H
	DB	098H
	DB	02H
	DB	0ceH
	DB	00H
xdata	ENDS
;	COMDAT xdata
xdata	SEGMENT
$stateUnwindMap$??0?$basic_string@DU?$char_traits@D@std@@V?$allocator@D@2@@std@@QEAA@AEBV01@_K1AEBV?$allocator@D@1@@Z DB 02H
	DB	0eH
	DD	imagerel ?dtor$0@?0???0?$basic_string@DU?$char_traits@D@std@@V?$allocator@D@2@@std@@QEAA@AEBV01@_K1AEBV?$allocator@D@1@@Z@4HA
xdata	ENDS
;	COMDAT xdata
xdata	SEGMENT
$cppxdata$??0?$basic_string@DU?$char_traits@D@std@@V?$allocator@D@2@@std@@QEAA@AEBV01@_K1AEBV?$allocator@D@1@@Z DB 028H
	DD	imagerel $stateUnwindMap$??0?$basic_string@DU?$char_traits@D@std@@V?$allocator@D@2@@std@@QEAA@AEBV01@_K1AEBV?$allocator@D@1@@Z
	DD	imagerel $ip2state$??0?$basic_string@DU?$char_traits@D@std@@V?$allocator@D@2@@std@@QEAA@AEBV01@_K1AEBV?$allocator@D@1@@Z
xdata	ENDS
;	COMDAT xdata
xdata	SEGMENT
$unwind$??0?$basic_string@DU?$char_traits@D@std@@V?$allocator@D@2@@std@@QEAA@AEBV01@_K1AEBV?$allocator@D@1@@Z DD 025052211H
	DD	011d2322H
	DD	070160021H
	DD	05015H
	DD	imagerel __CxxFrameHandler4
	DD	imagerel $cppxdata$??0?$basic_string@DU?$char_traits@D@std@@V?$allocator@D@2@@std@@QEAA@AEBV01@_K1AEBV?$allocator@D@1@@Z
xdata	ENDS
;	COMDAT xdata
xdata	SEGMENT
$ip2state$??0?$basic_string@DU?$char_traits@D@std@@V?$allocator@D@2@@std@@QEAA@XZ DB 02H
	DB	00H
	DB	00H
xdata	ENDS
;	COMDAT xdata
xdata	SEGMENT
$cppxdata$??0?$basic_string@DU?$char_traits@D@std@@V?$allocator@D@2@@std@@QEAA@XZ DB 060H
	DD	imagerel $ip2state$??0?$basic_string@DU?$char_traits@D@std@@V?$allocator@D@2@@std@@QEAA@XZ
xdata	ENDS
;	COMDAT xdata
xdata	SEGMENT
$unwind$??0?$basic_string@DU?$char_traits@D@std@@V?$allocator@D@2@@std@@QEAA@XZ DD 025051319H
	DD	010e2313H
	DD	070070025H
	DD	05006H
	DD	imagerel __CxxFrameHandler4
	DD	imagerel $cppxdata$??0?$basic_string@DU?$char_traits@D@std@@V?$allocator@D@2@@std@@QEAA@XZ
xdata	ENDS
;	COMDAT xdata
xdata	SEGMENT
$unwind$??1?$_String_val@U?$_Simple_types@D@std@@@std@@QEAA@XZ DD 025051301H
	DD	010e2313H
	DD	07007001dH
	DD	05006H
xdata	ENDS
;	COMDAT xdata
xdata	SEGMENT
$unwind$??1_Bxty@?$_String_val@U?$_Simple_types@D@std@@@std@@QEAA@XZ DD 025051301H
	DD	010e2313H
	DD	07007001dH
	DD	05006H
xdata	ENDS
;	COMDAT xdata
xdata	SEGMENT
$unwind$??0_Bxty@?$_String_val@U?$_Simple_types@D@std@@@std@@QEAA@XZ DD 025051301H
	DD	010e2313H
	DD	07007001dH
	DD	05006H
xdata	ENDS
;	COMDAT xdata
xdata	SEGMENT
$unwind$?_Clamp_suffix_size@?$_String_val@U?$_Simple_types@D@std@@@std@@QEBA_K_K0@Z DD 025051d01H
	DD	0118231dH
	DD	070110021H
	DD	05010H
xdata	ENDS
;	COMDAT xdata
xdata	SEGMENT
$unwind$?_Xran@?$_String_val@U?$_Simple_types@D@std@@@std@@SAXXZ DD 025050f01H
	DD	010a230fH
	DD	07003001dH
	DD	05002H
xdata	ENDS
;	COMDAT xdata
xdata	SEGMENT
$unwind$?_Check_offset@?$_String_val@U?$_Simple_types@D@std@@@std@@QEBAX_K@Z DD 025051801H
	DD	01132318H
	DD	0700c001dH
	DD	0500bH
xdata	ENDS
;	COMDAT xdata
xdata	SEGMENT
$unwind$?_Activate_SSO_buffer@?$_String_val@U?$_Simple_types@D@std@@@std@@QEAAXXZ DD 025051301H
	DD	010e2313H
	DD	07007001dH
	DD	05006H
xdata	ENDS
;	COMDAT xdata
xdata	SEGMENT
$unwind$?_Large_string_engaged@?$_String_val@U?$_Simple_types@D@std@@@std@@QEBA_NXZ DD 025051301H
	DD	010e2313H
	DD	07007001fH
	DD	05006H
xdata	ENDS
;	COMDAT xdata
xdata	SEGMENT
$unwind$?_Myptr@?$_String_val@U?$_Simple_types@D@std@@@std@@QEBAPEBDXZ DD 025051301H
	DD	010e2313H
	DD	070070021H
	DD	05006H
xdata	ENDS
;	COMDAT xdata
xdata	SEGMENT
$unwind$?_Myptr@?$_String_val@U?$_Simple_types@D@std@@@std@@QEAAPEADXZ DD 025051301H
	DD	010e2313H
	DD	070070021H
	DD	05006H
xdata	ENDS
;	COMDAT xdata
xdata	SEGMENT
$unwind$??0?$_String_val@U?$_Simple_types@D@std@@@std@@QEAA@XZ DD 025051301H
	DD	010e2313H
	DD	07007001dH
	DD	05006H
xdata	ENDS
;	COMDAT xdata
xdata	SEGMENT
$unwind$?max_size@?$_Default_allocator_traits@V?$allocator@D@std@@@std@@SA_KAEBV?$allocator@D@2@@Z DD 025051301H
	DD	010e2313H
	DD	07007001dH
	DD	05006H
xdata	ENDS
;	COMDAT xdata
xdata	SEGMENT
$unwind$?allocate@?$allocator@D@std@@QEAAPEAD_K@Z DD 025051801H
	DD	01132318H
	DD	0700c001dH
	DD	0500bH
xdata	ENDS
;	COMDAT xdata
xdata	SEGMENT
$unwind$?deallocate@?$allocator@D@std@@QEAAXQEAD_K@Z DD 035051d01H
	DD	0118331dH
	DD	07011001fH
	DD	05010H
xdata	ENDS
;	COMDAT xdata
xdata	SEGMENT
$unwind$??0?$allocator@D@std@@QEAA@XZ DD 025051301H
	DD	010e2313H
	DD	07007001dH
	DD	05006H
xdata	ENDS
;	COMDAT xdata
xdata	SEGMENT
$unwind$?_Xlen_string@std@@YAXXZ DD 025050f01H
	DD	010a230fH
	DD	07003001dH
	DD	05002H
xdata	ENDS
;	COMDAT xdata
xdata	SEGMENT
$unwind$?eof@?$_Narrow_char_traits@DH@std@@SAHXZ DD 025050f01H
	DD	010a230fH
	DD	07003001dH
	DD	05002H
xdata	ENDS
;	COMDAT xdata
xdata	SEGMENT
$unwind$?eq_int_type@?$_Narrow_char_traits@DH@std@@SA_NAEBH0@Z DD 025051801H
	DD	01132318H
	DD	0700c001fH
	DD	0500bH
xdata	ENDS
;	COMDAT xdata
xdata	SEGMENT
$unwind$?to_char_type@?$_Narrow_char_traits@DH@std@@SADAEBH@Z DD 025051301H
	DD	010e2313H
	DD	07007001dH
	DD	05006H
xdata	ENDS
;	COMDAT xdata
xdata	SEGMENT
$unwind$?assign@?$_Narrow_char_traits@DH@std@@SAXAEADAEBD@Z DD 025051801H
	DD	01132318H
	DD	0700c001dH
	DD	0500bH
xdata	ENDS
;	COMDAT xdata
xdata	SEGMENT
$unwind$?length@?$_Narrow_char_traits@DH@std@@SA_KQEBD@Z DD 025051301H
	DD	010e2313H
	DD	07007001dH
	DD	05006H
xdata	ENDS
;	COMDAT xdata
xdata	SEGMENT
$unwind$?copy@?$_Char_traits@DH@std@@SAPEADQEADQEBD_K@Z DD 025051d01H
	DD	0118231dH
	DD	07011001dH
	DD	05010H
xdata	ENDS
;	COMDAT xdata
xdata	SEGMENT
$unwind$??$_Construct_in_place@U_Container_proxy@std@@PEAU_Container_base12@2@@std@@YAXAEAU_Container_proxy@0@$$QEAPEAU_Container_base12@0@@Z DD 025051801H
	DD	01132318H
	DD	0700c0021H
	DD	0500bH
xdata	ENDS
;	COMDAT xdata
xdata	SEGMENT
$unwind$??$addressof@U_Container_base12@std@@@std@@YAPEAU_Container_base12@0@AEAU10@@Z DD 025051301H
	DD	010e2313H
	DD	07007001dH
	DD	05006H
xdata	ENDS
;	COMDAT xdata
xdata	SEGMENT
$unwind$??0_Basic_container_proxy_ptr12@std@@IEAA@XZ DD 025051301H
	DD	010e2313H
	DD	07007001dH
	DD	05006H
xdata	ENDS
;	COMDAT xdata
xdata	SEGMENT
$unwind$?_Release@_Basic_container_proxy_ptr12@std@@QEAAXXZ DD 025051301H
	DD	010e2313H
	DD	07007001dH
	DD	05006H
xdata	ENDS
;	COMDAT xdata
xdata	SEGMENT
$unwind$??$exchange@PEAU_Iterator_base12@std@@$$T@std@@YAPEAU_Iterator_base12@0@AEAPEAU10@$$QEA$$T@Z DD 025051801H
	DD	01132318H
	DD	0700c0021H
	DD	0500bH
xdata	ENDS
;	COMDAT voltbl
voltbl	SEGMENT
_volmd	DB	03bH
	DB	08aH
voltbl	ENDS
;	COMDAT xdata
xdata	SEGMENT
$unwind$?_Swap_proxy_and_iterators_locked@_Container_base12@std@@AEAAXAEAU12@@Z DD 025054219H
	DD	01132318H
	DD	0700c0021H
	DD	0500bH
	DD	imagerel __GSHandlerCheck
	DD	0f8H
xdata	ENDS
;	COMDAT CONST
CONST	SEGMENT
?_Swap_proxy_and_iterators_locked@_Container_base12@std@@AEAAXAEAU12@@Z$rtcName$0 DB 05fH ; std::_Container_base12::_Swap_proxy_and_iterators_locked
	DB	04cH
	DB	06fH
	DB	063H
	DB	06bH
	DB	00H
	ORG $+10
?_Swap_proxy_and_iterators_locked@_Container_base12@std@@AEAAXAEAU12@@Z$rtcVarDesc DD 024H ; std::_Container_base12::_Swap_proxy_and_iterators_locked
	DD	04H
	DQ	FLAT:?_Swap_proxy_and_iterators_locked@_Container_base12@std@@AEAAXAEAU12@@Z$rtcName$0
	ORG $+48
?_Swap_proxy_and_iterators_locked@_Container_base12@std@@AEAAXAEAU12@@Z$rtcFrameData DD 01H ; std::_Container_base12::_Swap_proxy_and_iterators_locked
	DD	00H
	DQ	FLAT:?_Swap_proxy_and_iterators_locked@_Container_base12@std@@AEAAXAEAU12@@Z$rtcVarDesc
CONST	ENDS
;	COMDAT voltbl
voltbl	SEGMENT
_volmd	DB	036H
	DB	07eH
voltbl	ENDS
;	COMDAT xdata
xdata	SEGMENT
$unwind$?_Orphan_all_locked_v3@_Container_base12@std@@AEAAXXZ DD 025053d19H
	DD	010e2313H
	DD	070070021H
	DD	05006H
	DD	imagerel __GSHandlerCheck
	DD	0f8H
xdata	ENDS
;	COMDAT CONST
CONST	SEGMENT
?_Orphan_all_locked_v3@_Container_base12@std@@AEAAXXZ$rtcName$0 DB 05fH ; std::_Container_base12::_Orphan_all_locked_v3
	DB	04cH
	DB	06fH
	DB	063H
	DB	06bH
	DB	00H
	ORG $+10
?_Orphan_all_locked_v3@_Container_base12@std@@AEAAXXZ$rtcVarDesc DD 024H ; std::_Container_base12::_Orphan_all_locked_v3
	DD	04H
	DQ	FLAT:?_Orphan_all_locked_v3@_Container_base12@std@@AEAAXXZ$rtcName$0
	ORG $+48
?_Orphan_all_locked_v3@_Container_base12@std@@AEAAXXZ$rtcFrameData DD 01H ; std::_Container_base12::_Orphan_all_locked_v3
	DD	00H
	DQ	FLAT:?_Orphan_all_locked_v3@_Container_base12@std@@AEAAXXZ$rtcVarDesc
CONST	ENDS
;	COMDAT xdata
xdata	SEGMENT
$unwind$?_Swap_proxy_and_iterators_unlocked@_Container_base12@std@@AEAAXAEAU12@@Z DD 025051801H
	DD	01132318H
	DD	0700c0021H
	DD	0500bH
xdata	ENDS
;	COMDAT xdata
xdata	SEGMENT
$unwind$?_Orphan_all_unlocked_v3@_Container_base12@std@@AEAAXXZ DD 025051301H
	DD	010e2313H
	DD	070070025H
	DD	05006H
xdata	ENDS
;	COMDAT xdata
xdata	SEGMENT
$unwind$?_Swap_proxy_and_iterators@_Container_base12@std@@QEAAXAEAU12@@Z DD 025051801H
	DD	01132318H
	DD	0700c001dH
	DD	0500bH
xdata	ENDS
;	COMDAT xdata
xdata	SEGMENT
$unwind$?_Orphan_all@_Container_base12@std@@QEAAXXZ DD 025051301H
	DD	010e2313H
	DD	07007001dH
	DD	05006H
xdata	ENDS
;	COMDAT xdata
xdata	SEGMENT
$unwind$??0_Container_base12@std@@QEAA@XZ DD 025051301H
	DD	010e2313H
	DD	07007001dH
	DD	05006H
xdata	ENDS
;	COMDAT xdata
xdata	SEGMENT
$unwind$??0_Container_proxy@std@@QEAA@PEAU_Container_base12@1@@Z DD 025051801H
	DD	01132318H
	DD	0700c001dH
	DD	0500bH
xdata	ENDS
;	COMDAT xdata
xdata	SEGMENT
$unwind$?_Adjust_manually_vector_aligned@std@@YAXAEAPEAXAEA_K@Z DD 035051801H
	DD	01133318H
	DD	0700c002fH
	DD	0500bH
xdata	ENDS
;	COMDAT xdata
xdata	SEGMENT
$unwind$?_Allocate@_Default_allocate_traits@std@@SAPEAX_K@Z DD 025051301H
	DD	010e2313H
	DD	07007001dH
	DD	05006H
xdata	ENDS
;	COMDAT xdata
xdata	SEGMENT
$unwind$?max@?$numeric_limits@_J@std@@SA_JXZ DD 025050f01H
	DD	010a230fH
	DD	07003001dH
	DD	05002H
xdata	ENDS
;	COMDAT xdata
xdata	SEGMENT
$unwind$?_Throw_bad_array_new_length@std@@YAXXZ DD 025050f01H
	DD	010a230fH
	DD	070030023H
	DD	05002H
xdata	ENDS
;	COMDAT xdata
xdata	SEGMENT
$unwind$??_Gbad_array_new_length@std@@UEAAPEAXI@Z DD 025051701H
	DD	01122317H
	DD	0700b001dH
	DD	0500aH
xdata	ENDS
;	COMDAT xdata
xdata	SEGMENT
$unwind$??0bad_array_new_length@std@@QEAA@AEBV01@@Z DD 025051801H
	DD	01132318H
	DD	0700c001dH
	DD	0500bH
xdata	ENDS
;	COMDAT xdata
xdata	SEGMENT
$unwind$??1bad_array_new_length@std@@UEAA@XZ DD 025051301H
	DD	010e2313H
	DD	07007001dH
	DD	05006H
xdata	ENDS
;	COMDAT xdata
xdata	SEGMENT
$unwind$??0bad_array_new_length@std@@QEAA@XZ DD 025051301H
	DD	010e2313H
	DD	07007001dH
	DD	05006H
xdata	ENDS
;	COMDAT xdata
xdata	SEGMENT
$unwind$??_Gbad_alloc@std@@UEAAPEAXI@Z DD 025051701H
	DD	01122317H
	DD	0700b001dH
	DD	0500aH
xdata	ENDS
;	COMDAT xdata
xdata	SEGMENT
$unwind$??0bad_alloc@std@@QEAA@AEBV01@@Z DD 025051801H
	DD	01132318H
	DD	0700c001dH
	DD	0500bH
xdata	ENDS
;	COMDAT xdata
xdata	SEGMENT
$unwind$??1bad_alloc@std@@UEAA@XZ DD 025051301H
	DD	010e2313H
	DD	07007001dH
	DD	05006H
xdata	ENDS
;	COMDAT xdata
xdata	SEGMENT
$unwind$??0bad_alloc@std@@AEAA@QEBD@Z DD 025051801H
	DD	01132318H
	DD	0700c001dH
	DD	0500bH
xdata	ENDS
;	COMDAT xdata
xdata	SEGMENT
$unwind$??_Gexception@std@@UEAAPEAXI@Z DD 025051701H
	DD	01122317H
	DD	0700b001dH
	DD	0500aH
xdata	ENDS
;	COMDAT xdata
xdata	SEGMENT
$unwind$?what@exception@std@@UEBAPEBDXZ DD 025051301H
	DD	010e2313H
	DD	07007001fH
	DD	05006H
xdata	ENDS
;	COMDAT xdata
xdata	SEGMENT
$unwind$??1exception@std@@UEAA@XZ DD 025051301H
	DD	010e2313H
	DD	07007001dH
	DD	05006H
xdata	ENDS
;	COMDAT xdata
xdata	SEGMENT
$unwind$??0exception@std@@QEAA@AEBV01@@Z DD 025051801H
	DD	01132318H
	DD	0700c001dH
	DD	0500bH
xdata	ENDS
;	COMDAT xdata
xdata	SEGMENT
$unwind$??0exception@std@@QEAA@QEBDH@Z DD 025051d01H
	DD	0118231dH
	DD	07011001dH
	DD	05010H
xdata	ENDS
;	COMDAT xdata
xdata	SEGMENT
$unwind$??2@YAPEAX_KPEAX@Z DD 025051801H
	DD	01132318H
	DD	0700c001dH
	DD	0500bH
xdata	ENDS
;	COMDAT xdata
xdata	SEGMENT
$unwind$?__empty_global_delete@@YAXPEAX_K@Z DD 025051801H
	DD	01132318H
	DD	0700c001dH
	DD	0500bH
xdata	ENDS
;	COMDAT xdata
xdata	SEGMENT
$unwind$?__empty_global_delete@@YAXPEAX@Z DD 025051301H
	DD	010e2313H
	DD	07007001dH
	DD	05006H
xdata	ENDS
; Function compile flags: /Odt
;	COMDAT __JustMyCode_Default
_TEXT	SEGMENT
__JustMyCode_Default PROC				; COMDAT
  00000	c2 00 00	 ret	 0
__JustMyCode_Default ENDP
_TEXT	ENDS
; Function compile flags: /Odtp /RTCsu /ZI
; File C:\Program Files\Microsoft Visual Studio\2022\Community\VC\Tools\MSVC\14.37.32822\include\xmemory
;	COMDAT ??$_Allocate_manually_vector_aligned@U_Default_allocate_traits@std@@@std@@YAPEAX_K@Z
_TEXT	SEGMENT
_Block_size$ = 8
_Ptr_container$ = 40
_Ptr$ = 72
_Bytes$ = 320
??$_Allocate_manually_vector_aligned@U_Default_allocate_traits@std@@@std@@YAPEAX_K@Z PROC ; std::_Allocate_manually_vector_aligned<std::_Default_allocate_traits>, COMDAT

; 137  : __declspec(allocator) void* _Allocate_manually_vector_aligned(const size_t _Bytes) {

$LN13:
  00000	48 89 4c 24 08	 mov	 QWORD PTR [rsp+8], rcx
  00005	55		 push	 rbp
  00006	57		 push	 rdi
  00007	48 81 ec 58 01
	00 00		 sub	 rsp, 344		; 00000158H
  0000e	48 8d 6c 24 30	 lea	 rbp, QWORD PTR [rsp+48]
  00013	48 8d 0d 00 00
	00 00		 lea	 rcx, OFFSET FLAT:__A594BF75_xmemory
  0001a	e8 00 00 00 00	 call	 __CheckForDebuggerJustMyCode

; 138  :     // allocate _Bytes manually aligned to at least _Big_allocation_alignment
; 139  :     const size_t _Block_size = _Non_user_size + _Bytes;

  0001f	48 8b 85 40 01
	00 00		 mov	 rax, QWORD PTR _Bytes$[rbp]
  00026	48 83 c0 2f	 add	 rax, 47			; 0000002fH
  0002a	48 89 45 08	 mov	 QWORD PTR _Block_size$[rbp], rax

; 140  :     if (_Block_size <= _Bytes) {

  0002e	48 8b 85 40 01
	00 00		 mov	 rax, QWORD PTR _Bytes$[rbp]
  00035	48 39 45 08	 cmp	 QWORD PTR _Block_size$[rbp], rax
  00039	77 05		 ja	 SHORT $LN8@Allocate_m

; 141  :         _Throw_bad_array_new_length(); // add overflow

  0003b	e8 00 00 00 00	 call	 ?_Throw_bad_array_new_length@std@@YAXXZ ; std::_Throw_bad_array_new_length
$LN8@Allocate_m:

; 142  :     }
; 143  : 
; 144  :     const uintptr_t _Ptr_container = reinterpret_cast<uintptr_t>(_Traits::_Allocate(_Block_size));

  00040	48 8b 4d 08	 mov	 rcx, QWORD PTR _Block_size$[rbp]
  00044	e8 00 00 00 00	 call	 ?_Allocate@_Default_allocate_traits@std@@SAPEAX_K@Z ; std::_Default_allocate_traits::_Allocate
  00049	48 89 45 28	 mov	 QWORD PTR _Ptr_container$[rbp], rax
$LN4@Allocate_m:

; 145  :     _STL_VERIFY(_Ptr_container != 0, "invalid argument"); // validate even in release since we're doing p[-1]

  0004d	48 83 7d 28 00	 cmp	 QWORD PTR _Ptr_container$[rbp], 0
  00052	74 02		 je	 SHORT $LN9@Allocate_m
  00054	eb 6b		 jmp	 SHORT $LN10@Allocate_m
$LN9@Allocate_m:
$LN7@Allocate_m:
  00056	48 8d 05 00 00
	00 00		 lea	 rax, OFFSET FLAT:??_C@_0BB@FCMFBGOM@invalid?5argument@
  0005d	48 89 44 24 28	 mov	 QWORD PTR [rsp+40], rax
  00062	48 8d 05 00 00
	00 00		 lea	 rax, OFFSET FLAT:??_C@_02DKCKIIND@?$CFs@
  00069	48 89 44 24 20	 mov	 QWORD PTR [rsp+32], rax
  0006e	45 33 c9	 xor	 r9d, r9d
  00071	41 b8 91 00 00
	00		 mov	 r8d, 145		; 00000091H
  00077	48 8d 15 00 00
	00 00		 lea	 rdx, OFFSET FLAT:??_C@_0GC@JDLAECEI@C?3?2Program?5Files?2Microsoft?5Visu@
  0007e	b9 02 00 00 00	 mov	 ecx, 2
  00083	ff 15 00 00 00
	00		 call	 QWORD PTR __imp__CrtDbgReport
  00089	83 f8 01	 cmp	 eax, 1
  0008c	75 03		 jne	 SHORT $LN12@Allocate_m
  0008e	cc		 int	 3
  0008f	33 c0		 xor	 eax, eax
$LN12@Allocate_m:
  00091	48 c7 44 24 20
	00 00 00 00	 mov	 QWORD PTR [rsp+32], 0
  0009a	41 b9 91 00 00
	00		 mov	 r9d, 145		; 00000091H
  000a0	4c 8d 05 00 00
	00 00		 lea	 r8, OFFSET FLAT:??_C@_1ME@PPIEIJND@?$AAC?$AA?3?$AA?2?$AAP?$AAr?$AAo?$AAg?$AAr?$AAa?$AAm?$AA?5?$AAF?$AAi?$AAl?$AAe@
  000a7	48 8d 15 00 00
	00 00		 lea	 rdx, OFFSET FLAT:??_C@_11LOCGONAA@@
  000ae	48 8d 0d 00 00
	00 00		 lea	 rcx, OFFSET FLAT:??_C@_1CG@JNLFBNGN@?$AA?$CC?$AAi?$AAn?$AAv?$AAa?$AAl?$AAi?$AAd?$AA?5?$AAa?$AAr?$AAg?$AAu?$AAm?$AAe@
  000b5	ff 15 00 00 00
	00		 call	 QWORD PTR __imp__invalid_parameter
  000bb	33 c0		 xor	 eax, eax
  000bd	85 c0		 test	 eax, eax
  000bf	75 95		 jne	 SHORT $LN7@Allocate_m
$LN10@Allocate_m:
  000c1	33 c0		 xor	 eax, eax
  000c3	85 c0		 test	 eax, eax
  000c5	75 86		 jne	 SHORT $LN4@Allocate_m

; 146  :     void* const _Ptr = reinterpret_cast<void*>((_Ptr_container + _Non_user_size) & ~(_Big_allocation_alignment - 1));

  000c7	48 8b 45 28	 mov	 rax, QWORD PTR _Ptr_container$[rbp]
  000cb	48 83 c0 2f	 add	 rax, 47			; 0000002fH
  000cf	48 83 e0 e0	 and	 rax, -32		; ffffffffffffffe0H
  000d3	48 89 45 48	 mov	 QWORD PTR _Ptr$[rbp], rax

; 147  :     static_cast<uintptr_t*>(_Ptr)[-1] = _Ptr_container;

  000d7	b8 08 00 00 00	 mov	 eax, 8
  000dc	48 6b c0 ff	 imul	 rax, rax, -1
  000e0	48 8b 4d 48	 mov	 rcx, QWORD PTR _Ptr$[rbp]
  000e4	48 8b 55 28	 mov	 rdx, QWORD PTR _Ptr_container$[rbp]
  000e8	48 89 14 01	 mov	 QWORD PTR [rcx+rax], rdx

; 148  : 
; 149  : #ifdef _DEBUG
; 150  :     static_cast<uintptr_t*>(_Ptr)[-2] = _Big_allocation_sentinel;

  000ec	b8 08 00 00 00	 mov	 eax, 8
  000f1	48 6b c0 fe	 imul	 rax, rax, -2
  000f5	48 8b 4d 48	 mov	 rcx, QWORD PTR _Ptr$[rbp]
  000f9	48 ba fa fa fa
	fa fa fa fa fa	 mov	 rdx, -361700864190383366 ; fafafafafafafafaH
  00103	48 89 14 01	 mov	 QWORD PTR [rcx+rax], rdx

; 151  : #endif // _DEBUG
; 152  :     return _Ptr;

  00107	48 8b 45 48	 mov	 rax, QWORD PTR _Ptr$[rbp]
$LN11@Allocate_m:

; 153  : }

  0010b	48 8d a5 28 01
	00 00		 lea	 rsp, QWORD PTR [rbp+296]
  00112	5f		 pop	 rdi
  00113	5d		 pop	 rbp
  00114	c3		 ret	 0
??$_Allocate_manually_vector_aligned@U_Default_allocate_traits@std@@@std@@YAPEAX_K@Z ENDP ; std::_Allocate_manually_vector_aligned<std::_Default_allocate_traits>
_TEXT	ENDS
; Function compile flags: /Odtp /RTCsu /ZI
; File C:\Program Files\Microsoft Visual Studio\2022\Community\VC\Tools\MSVC\14.37.32822\include\xmemory
;	COMDAT ?deallocate@?$_Default_allocator_traits@V?$allocator@U_Container_proxy@std@@@std@@@std@@SAXAEAV?$allocator@U_Container_proxy@std@@@2@QEAU_Container_proxy@2@_K@Z
_TEXT	SEGMENT
_Al$ = 224
_Ptr$ = 232
_Count$ = 240
?deallocate@?$_Default_allocator_traits@V?$allocator@U_Container_proxy@std@@@std@@@std@@SAXAEAV?$allocator@U_Container_proxy@std@@@2@QEAU_Container_proxy@2@_K@Z PROC ; std::_Default_allocator_traits<std::allocator<std::_Container_proxy> >::deallocate, COMDAT

; 701  :     static _CONSTEXPR20 void deallocate(_Alloc& _Al, const pointer _Ptr, const size_type _Count) {

$LN3:
  00000	4c 89 44 24 18	 mov	 QWORD PTR [rsp+24], r8
  00005	48 89 54 24 10	 mov	 QWORD PTR [rsp+16], rdx
  0000a	48 89 4c 24 08	 mov	 QWORD PTR [rsp+8], rcx
  0000f	55		 push	 rbp
  00010	57		 push	 rdi
  00011	48 81 ec e8 00
	00 00		 sub	 rsp, 232		; 000000e8H
  00018	48 8d 6c 24 20	 lea	 rbp, QWORD PTR [rsp+32]
  0001d	48 8d 0d 00 00
	00 00		 lea	 rcx, OFFSET FLAT:__A594BF75_xmemory
  00024	e8 00 00 00 00	 call	 __CheckForDebuggerJustMyCode

; 702  :         // no overflow check on the following multiply; we assume _Allocate did that check
; 703  : #if _HAS_CXX20 // TRANSITION, GH-1532
; 704  :         if (_STD is_constant_evaluated()) {
; 705  :             _Al.deallocate(_Ptr, _Count);
; 706  :         } else
; 707  : #endif // _HAS_CXX20
; 708  :         {
; 709  :             (void) _Al;
; 710  :             _Deallocate<_New_alignof<value_type>>(_Ptr, sizeof(value_type) * _Count);

  00029	48 6b 85 f0 00
	00 00 10	 imul	 rax, QWORD PTR _Count$[rbp], 16
  00031	48 8b d0	 mov	 rdx, rax
  00034	48 8b 8d e8 00
	00 00		 mov	 rcx, QWORD PTR _Ptr$[rbp]
  0003b	e8 00 00 00 00	 call	 ??$_Deallocate@$0BA@$0A@@std@@YAXPEAX_K@Z ; std::_Deallocate<16,0>

; 711  :         }
; 712  :     }

  00040	48 8d a5 c8 00
	00 00		 lea	 rsp, QWORD PTR [rbp+200]
  00047	5f		 pop	 rdi
  00048	5d		 pop	 rbp
  00049	c3		 ret	 0
?deallocate@?$_Default_allocator_traits@V?$allocator@U_Container_proxy@std@@@std@@@std@@SAXAEAV?$allocator@U_Container_proxy@std@@@2@QEAU_Container_proxy@2@_K@Z ENDP ; std::_Default_allocator_traits<std::allocator<std::_Container_proxy> >::deallocate
_TEXT	ENDS
; Function compile flags: /Odtp /RTCsu /ZI
; File C:\Program Files\Microsoft Visual Studio\2022\Community\VC\Tools\MSVC\14.37.32822\include\xmemory
;	COMDAT ??$?0AEAPEAV_Facet_base@std@@@?$_Compressed_pair@U?$default_delete@V_Facet_base@std@@@std@@PEAV_Facet_base@2@$00@std@@QEAA@U_Zero_then_variadic_args_t@1@AEAPEAV_Facet_base@1@@Z
_TEXT	SEGMENT
this$ = 224
__formal$ = 232
<_Val2_0>$ = 240
??$?0AEAPEAV_Facet_base@std@@@?$_Compressed_pair@U?$default_delete@V_Facet_base@std@@@std@@PEAV_Facet_base@2@$00@std@@QEAA@U_Zero_then_variadic_args_t@1@AEAPEAV_Facet_base@1@@Z PROC ; std::_Compressed_pair<std::default_delete<std::_Facet_base>,std::_Facet_base *,1>::_Compressed_pair<std::default_delete<std::_Facet_base>,std::_Facet_base *,1><std::_Facet_base * &>, COMDAT

; 1515 :         : _Ty1(), _Myval2(_STD forward<_Other2>(_Val2)...) {}

$LN3:
  00000	4c 89 44 24 18	 mov	 QWORD PTR [rsp+24], r8
  00005	88 54 24 10	 mov	 BYTE PTR [rsp+16], dl
  00009	48 89 4c 24 08	 mov	 QWORD PTR [rsp+8], rcx
  0000e	55		 push	 rbp
  0000f	57		 push	 rdi
  00010	48 81 ec e8 00
	00 00		 sub	 rsp, 232		; 000000e8H
  00017	48 8d 6c 24 20	 lea	 rbp, QWORD PTR [rsp+32]
  0001c	48 8d 0d 00 00
	00 00		 lea	 rcx, OFFSET FLAT:__A594BF75_xmemory
  00023	e8 00 00 00 00	 call	 __CheckForDebuggerJustMyCode
  00028	48 8b 85 e0 00
	00 00		 mov	 rax, QWORD PTR this$[rbp]
  0002f	48 8b 8d f0 00
	00 00		 mov	 rcx, QWORD PTR <_Val2_0>$[rbp]
  00036	48 8b 09	 mov	 rcx, QWORD PTR [rcx]
  00039	48 89 08	 mov	 QWORD PTR [rax], rcx
  0003c	48 8b 85 e0 00
	00 00		 mov	 rax, QWORD PTR this$[rbp]
  00043	48 8d a5 c8 00
	00 00		 lea	 rsp, QWORD PTR [rbp+200]
  0004a	5f		 pop	 rdi
  0004b	5d		 pop	 rbp
  0004c	c3		 ret	 0
??$?0AEAPEAV_Facet_base@std@@@?$_Compressed_pair@U?$default_delete@V_Facet_base@std@@@std@@PEAV_Facet_base@2@$00@std@@QEAA@U_Zero_then_variadic_args_t@1@AEAPEAV_Facet_base@1@@Z ENDP ; std::_Compressed_pair<std::default_delete<std::_Facet_base>,std::_Facet_base *,1>::_Compressed_pair<std::default_delete<std::_Facet_base>,std::_Facet_base *,1><std::_Facet_base * &>
_TEXT	ENDS
; Function compile flags: /Odtp /RTCsu /ZI
; File C:\Program Files\Microsoft Visual Studio\2022\Community\VC\Tools\MSVC\14.37.32822\include\type_traits
;	COMDAT ??$addressof@U_Container_proxy@std@@@std@@YAPEAU_Container_proxy@0@AEAU10@@Z
_TEXT	SEGMENT
_Val$ = 224
??$addressof@U_Container_proxy@std@@@std@@YAPEAU_Container_proxy@0@AEAU10@@Z PROC ; std::addressof<std::_Container_proxy>, COMDAT

; 1606 : _NODISCARD constexpr _Ty* addressof(_Ty& _Val) noexcept {

$LN3:
  00000	48 89 4c 24 08	 mov	 QWORD PTR [rsp+8], rcx
  00005	55		 push	 rbp
  00006	57		 push	 rdi
  00007	48 81 ec e8 00
	00 00		 sub	 rsp, 232		; 000000e8H
  0000e	48 8d 6c 24 20	 lea	 rbp, QWORD PTR [rsp+32]
  00013	48 8d 0d 00 00
	00 00		 lea	 rcx, OFFSET FLAT:__7FB6D5C7_type_traits
  0001a	e8 00 00 00 00	 call	 __CheckForDebuggerJustMyCode

; 1607 :     return __builtin_addressof(_Val);

  0001f	48 8b 85 e0 00
	00 00		 mov	 rax, QWORD PTR _Val$[rbp]

; 1608 : }

  00026	48 8d a5 c8 00
	00 00		 lea	 rsp, QWORD PTR [rbp+200]
  0002d	5f		 pop	 rdi
  0002e	5d		 pop	 rbp
  0002f	c3		 ret	 0
??$addressof@U_Container_proxy@std@@@std@@YAPEAU_Container_proxy@0@AEAU10@@Z ENDP ; std::addressof<std::_Container_proxy>
_TEXT	ENDS
; Function compile flags: /Odtp /RTCsu /ZI
; File C:\Program Files\Microsoft Visual Studio\2022\Community\VC\Tools\MSVC\14.37.32822\include\xmemory
;	COMDAT ??$_Get_size_of_n@$00@std@@YA_K_K@Z
_TEXT	SEGMENT
_Overflow_is_possible$ = 4
_Count$ = 256
??$_Get_size_of_n@$00@std@@YA_K_K@Z PROC		; std::_Get_size_of_n<1>, COMDAT

; 65   : _NODISCARD constexpr size_t _Get_size_of_n(const size_t _Count) {

$LN3:
  00000	48 89 4c 24 08	 mov	 QWORD PTR [rsp+8], rcx
  00005	55		 push	 rbp
  00006	57		 push	 rdi
  00007	48 81 ec 08 01
	00 00		 sub	 rsp, 264		; 00000108H
  0000e	48 8d 6c 24 20	 lea	 rbp, QWORD PTR [rsp+32]
  00013	48 8d 0d 00 00
	00 00		 lea	 rcx, OFFSET FLAT:__A594BF75_xmemory
  0001a	e8 00 00 00 00	 call	 __CheckForDebuggerJustMyCode

; 66   :     constexpr bool _Overflow_is_possible = _Ty_size > 1;

  0001f	c6 45 04 00	 mov	 BYTE PTR _Overflow_is_possible$[rbp], 0

; 67   : 
; 68   :     if constexpr (_Overflow_is_possible) {
; 69   :         constexpr size_t _Max_possible = static_cast<size_t>(-1) / _Ty_size;
; 70   :         if (_Count > _Max_possible) {
; 71   :             _Throw_bad_array_new_length(); // multiply overflow
; 72   :         }
; 73   :     }
; 74   : 
; 75   :     return _Count * _Ty_size;

  00023	48 8b 85 00 01
	00 00		 mov	 rax, QWORD PTR _Count$[rbp]

; 76   : }

  0002a	48 8d a5 e8 00
	00 00		 lea	 rsp, QWORD PTR [rbp+232]
  00031	5f		 pop	 rdi
  00032	5d		 pop	 rbp
  00033	c3		 ret	 0
??$_Get_size_of_n@$00@std@@YA_K_K@Z ENDP		; std::_Get_size_of_n<1>
_TEXT	ENDS
; Function compile flags: /Odtp /RTCsu /ZI
; File C:\Program Files\Microsoft Visual Studio\2022\Community\VC\Tools\MSVC\14.37.32822\include\xmemory
;	COMDAT ??$_Allocate@$0BA@U_Default_allocate_traits@std@@$0A@@std@@YAPEAX_K@Z
_TEXT	SEGMENT
_Bytes$ = 224
??$_Allocate@$0BA@U_Default_allocate_traits@std@@$0A@@std@@YAPEAX_K@Z PROC ; std::_Allocate<16,std::_Default_allocate_traits,0>, COMDAT

; 231  : __declspec(allocator) _CONSTEXPR20 void* _Allocate(const size_t _Bytes) {

$LN5:
  00000	48 89 4c 24 08	 mov	 QWORD PTR [rsp+8], rcx
  00005	55		 push	 rbp
  00006	57		 push	 rdi
  00007	48 81 ec e8 00
	00 00		 sub	 rsp, 232		; 000000e8H
  0000e	48 8d 6c 24 20	 lea	 rbp, QWORD PTR [rsp+32]
  00013	48 8d 0d 00 00
	00 00		 lea	 rcx, OFFSET FLAT:__A594BF75_xmemory
  0001a	e8 00 00 00 00	 call	 __CheckForDebuggerJustMyCode

; 232  :     // allocate _Bytes when !_HAS_ALIGNED_NEW || _Align <= __STDCPP_DEFAULT_NEW_ALIGNMENT__
; 233  : #if defined(_M_IX86) || defined(_M_X64)
; 234  : #if _HAS_CXX20 // TRANSITION, GH-1532
; 235  :     if (!_STD is_constant_evaluated())
; 236  : #endif // _HAS_CXX20
; 237  :     {
; 238  :         if (_Bytes >= _Big_allocation_threshold) { // boost the alignment of big allocations to help autovectorization

  0001f	48 81 bd e0 00
	00 00 00 10 00
	00		 cmp	 QWORD PTR _Bytes$[rbp], 4096 ; 00001000H
  0002a	72 0e		 jb	 SHORT $LN2@Allocate

; 239  :             return _Allocate_manually_vector_aligned<_Traits>(_Bytes);

  0002c	48 8b 8d e0 00
	00 00		 mov	 rcx, QWORD PTR _Bytes$[rbp]
  00033	e8 00 00 00 00	 call	 ??$_Allocate_manually_vector_aligned@U_Default_allocate_traits@std@@@std@@YAPEAX_K@Z ; std::_Allocate_manually_vector_aligned<std::_Default_allocate_traits>
  00038	eb 1a		 jmp	 SHORT $LN1@Allocate
$LN2@Allocate:

; 240  :         }
; 241  :     }
; 242  : #endif // defined(_M_IX86) || defined(_M_X64)
; 243  : 
; 244  :     if (_Bytes != 0) {

  0003a	48 83 bd e0 00
	00 00 00	 cmp	 QWORD PTR _Bytes$[rbp], 0
  00042	74 0e		 je	 SHORT $LN3@Allocate

; 245  :         return _Traits::_Allocate(_Bytes);

  00044	48 8b 8d e0 00
	00 00		 mov	 rcx, QWORD PTR _Bytes$[rbp]
  0004b	e8 00 00 00 00	 call	 ?_Allocate@_Default_allocate_traits@std@@SAPEAX_K@Z ; std::_Default_allocate_traits::_Allocate
  00050	eb 02		 jmp	 SHORT $LN1@Allocate
$LN3@Allocate:

; 246  :     }
; 247  : 
; 248  :     return nullptr;

  00052	33 c0		 xor	 eax, eax
$LN1@Allocate:

; 249  : }

  00054	48 8d a5 c8 00
	00 00		 lea	 rsp, QWORD PTR [rbp+200]
  0005b	5f		 pop	 rdi
  0005c	5d		 pop	 rbp
  0005d	c3		 ret	 0
??$_Allocate@$0BA@U_Default_allocate_traits@std@@$0A@@std@@YAPEAX_K@Z ENDP ; std::_Allocate<16,std::_Default_allocate_traits,0>
_TEXT	ENDS
; Function compile flags: /Odtp /RTCsu /ZI
; File C:\Program Files\Microsoft Visual Studio\2022\Community\VC\Tools\MSVC\14.37.32822\include\xmemory
;	COMDAT ??$_Get_size_of_n@$0BA@@std@@YA_K_K@Z
_TEXT	SEGMENT
_Overflow_is_possible$ = 4
_Max_possible$1 = 40
_Count$ = 288
??$_Get_size_of_n@$0BA@@std@@YA_K_K@Z PROC		; std::_Get_size_of_n<16>, COMDAT

; 65   : _NODISCARD constexpr size_t _Get_size_of_n(const size_t _Count) {

$LN4:
  00000	48 89 4c 24 08	 mov	 QWORD PTR [rsp+8], rcx
  00005	55		 push	 rbp
  00006	57		 push	 rdi
  00007	48 81 ec 28 01
	00 00		 sub	 rsp, 296		; 00000128H
  0000e	48 8d 6c 24 20	 lea	 rbp, QWORD PTR [rsp+32]
  00013	48 8d 0d 00 00
	00 00		 lea	 rcx, OFFSET FLAT:__A594BF75_xmemory
  0001a	e8 00 00 00 00	 call	 __CheckForDebuggerJustMyCode

; 66   :     constexpr bool _Overflow_is_possible = _Ty_size > 1;

  0001f	c6 45 04 01	 mov	 BYTE PTR _Overflow_is_possible$[rbp], 1

; 67   : 
; 68   :     if constexpr (_Overflow_is_possible) {
; 69   :         constexpr size_t _Max_possible = static_cast<size_t>(-1) / _Ty_size;

  00023	48 b8 ff ff ff
	ff ff ff ff 0f	 mov	 rax, 1152921504606846975 ; 0fffffffffffffffH
  0002d	48 89 45 28	 mov	 QWORD PTR _Max_possible$1[rbp], rax

; 70   :         if (_Count > _Max_possible) {

  00031	48 b8 ff ff ff
	ff ff ff ff 0f	 mov	 rax, 1152921504606846975 ; 0fffffffffffffffH
  0003b	48 39 85 20 01
	00 00		 cmp	 QWORD PTR _Count$[rbp], rax
  00042	76 05		 jbe	 SHORT $LN2@Get_size_o

; 71   :             _Throw_bad_array_new_length(); // multiply overflow

  00044	e8 00 00 00 00	 call	 ?_Throw_bad_array_new_length@std@@YAXXZ ; std::_Throw_bad_array_new_length
$LN2@Get_size_o:

; 72   :         }
; 73   :     }
; 74   : 
; 75   :     return _Count * _Ty_size;

  00049	48 6b 85 20 01
	00 00 10	 imul	 rax, QWORD PTR _Count$[rbp], 16
$LN3@Get_size_o:

; 76   : }

  00051	48 8d a5 08 01
	00 00		 lea	 rsp, QWORD PTR [rbp+264]
  00058	5f		 pop	 rdi
  00059	5d		 pop	 rbp
  0005a	c3		 ret	 0
??$_Get_size_of_n@$0BA@@std@@YA_K_K@Z ENDP		; std::_Get_size_of_n<16>
_TEXT	ENDS
; Function compile flags: /Odtp /RTCsu /ZI
; File C:\Program Files\Microsoft Visual Studio\2022\Community\VC\Tools\MSVC\14.37.32822\include\utility
;	COMDAT ??$exchange@PEAV_Facet_base@std@@$$T@std@@YAPEAV_Facet_base@0@AEAPEAV10@$$QEA$$T@Z
_TEXT	SEGMENT
_Old_val$ = 8
_Val$ = 256
_New_val$ = 264
??$exchange@PEAV_Facet_base@std@@$$T@std@@YAPEAV_Facet_base@0@AEAPEAV10@$$QEA$$T@Z PROC ; std::exchange<std::_Facet_base *,std::nullptr_t>, COMDAT

; 752  :     conjunction_v<is_nothrow_move_constructible<_Ty>, is_nothrow_assignable<_Ty&, _Other>>) {

$LN3:
  00000	48 89 54 24 10	 mov	 QWORD PTR [rsp+16], rdx
  00005	48 89 4c 24 08	 mov	 QWORD PTR [rsp+8], rcx
  0000a	55		 push	 rbp
  0000b	57		 push	 rdi
  0000c	48 81 ec 08 01
	00 00		 sub	 rsp, 264		; 00000108H
  00013	48 8d 6c 24 20	 lea	 rbp, QWORD PTR [rsp+32]
  00018	48 8d 0d 00 00
	00 00		 lea	 rcx, OFFSET FLAT:__CF01DCB6_utility
  0001f	e8 00 00 00 00	 call	 __CheckForDebuggerJustMyCode

; 753  :     // assign _New_val to _Val, return previous _Val
; 754  :     _Ty _Old_val = static_cast<_Ty&&>(_Val);

  00024	48 8b 85 00 01
	00 00		 mov	 rax, QWORD PTR _Val$[rbp]
  0002b	48 8b 00	 mov	 rax, QWORD PTR [rax]
  0002e	48 89 45 08	 mov	 QWORD PTR _Old_val$[rbp], rax

; 755  :     _Val         = static_cast<_Other&&>(_New_val);

  00032	48 8b 85 00 01
	00 00		 mov	 rax, QWORD PTR _Val$[rbp]
  00039	48 8b 8d 08 01
	00 00		 mov	 rcx, QWORD PTR _New_val$[rbp]
  00040	48 8b 09	 mov	 rcx, QWORD PTR [rcx]
  00043	48 89 08	 mov	 QWORD PTR [rax], rcx

; 756  :     return _Old_val;

  00046	48 8b 45 08	 mov	 rax, QWORD PTR _Old_val$[rbp]

; 757  : }

  0004a	48 8d a5 e8 00
	00 00		 lea	 rsp, QWORD PTR [rbp+232]
  00051	5f		 pop	 rdi
  00052	5d		 pop	 rbp
  00053	c3		 ret	 0
??$exchange@PEAV_Facet_base@std@@$$T@std@@YAPEAV_Facet_base@0@AEAPEAV10@$$QEA$$T@Z ENDP ; std::exchange<std::_Facet_base *,std::nullptr_t>
_TEXT	ENDS
; Function compile flags: /Odtp /RTCsu /ZI
; File C:\Program Files\Microsoft Visual Studio\2022\Community\VC\Tools\MSVC\14.37.32822\include\type_traits
;	COMDAT ??$addressof@PEAD@std@@YAPEAPEADAEAPEAD@Z
_TEXT	SEGMENT
_Val$ = 224
??$addressof@PEAD@std@@YAPEAPEADAEAPEAD@Z PROC		; std::addressof<char *>, COMDAT

; 1606 : _NODISCARD constexpr _Ty* addressof(_Ty& _Val) noexcept {

$LN3:
  00000	48 89 4c 24 08	 mov	 QWORD PTR [rsp+8], rcx
  00005	55		 push	 rbp
  00006	57		 push	 rdi
  00007	48 81 ec e8 00
	00 00		 sub	 rsp, 232		; 000000e8H
  0000e	48 8d 6c 24 20	 lea	 rbp, QWORD PTR [rsp+32]
  00013	48 8d 0d 00 00
	00 00		 lea	 rcx, OFFSET FLAT:__7FB6D5C7_type_traits
  0001a	e8 00 00 00 00	 call	 __CheckForDebuggerJustMyCode

; 1607 :     return __builtin_addressof(_Val);

  0001f	48 8b 85 e0 00
	00 00		 mov	 rax, QWORD PTR _Val$[rbp]

; 1608 : }

  00026	48 8d a5 c8 00
	00 00		 lea	 rsp, QWORD PTR [rbp+200]
  0002d	5f		 pop	 rdi
  0002e	5d		 pop	 rbp
  0002f	c3		 ret	 0
??$addressof@PEAD@std@@YAPEAPEADAEAPEAD@Z ENDP		; std::addressof<char *>
_TEXT	ENDS
; Function compile flags: /Odtp /RTCsu /ZI
; File C:\Program Files\Microsoft Visual Studio\2022\Community\VC\Tools\MSVC\14.37.32822\include\xutility
;	COMDAT ??$_Construct_in_place@PEADAEBQEAD@std@@YAXAEAPEADAEBQEAD@Z
_TEXT	SEGMENT
$T1 = 200
_Obj$ = 256
<_Args_0>$ = 264
??$_Construct_in_place@PEADAEBQEAD@std@@YAXAEAPEADAEBQEAD@Z PROC ; std::_Construct_in_place<char *,char * const &>, COMDAT

; 247  :     is_nothrow_constructible_v<_Ty, _Types...>) {

$LN3:
  00000	48 89 54 24 10	 mov	 QWORD PTR [rsp+16], rdx
  00005	48 89 4c 24 08	 mov	 QWORD PTR [rsp+8], rcx
  0000a	55		 push	 rbp
  0000b	57		 push	 rdi
  0000c	48 81 ec 08 01
	00 00		 sub	 rsp, 264		; 00000108H
  00013	48 8d 6c 24 20	 lea	 rbp, QWORD PTR [rsp+32]
  00018	48 8d 0d 00 00
	00 00		 lea	 rcx, OFFSET FLAT:__D740E0F1_xutility
  0001f	e8 00 00 00 00	 call	 __CheckForDebuggerJustMyCode

; 248  : #if _HAS_CXX20
; 249  :     if (_STD is_constant_evaluated()) {
; 250  :         _STD construct_at(_STD addressof(_Obj), _STD forward<_Types>(_Args)...);
; 251  :     } else
; 252  : #endif // _HAS_CXX20
; 253  :     {
; 254  :         ::new (static_cast<void*>(_STD addressof(_Obj))) _Ty(_STD forward<_Types>(_Args)...);

  00024	48 8b 8d 00 01
	00 00		 mov	 rcx, QWORD PTR _Obj$[rbp]
  0002b	e8 00 00 00 00	 call	 ??$addressof@PEAD@std@@YAPEAPEADAEAPEAD@Z ; std::addressof<char *>
  00030	48 8b d0	 mov	 rdx, rax
  00033	b9 08 00 00 00	 mov	 ecx, 8
  00038	e8 00 00 00 00	 call	 ??2@YAPEAX_KPEAX@Z	; operator new
  0003d	48 89 85 c8 00
	00 00		 mov	 QWORD PTR $T1[rbp], rax
  00044	48 8b 85 c8 00
	00 00		 mov	 rax, QWORD PTR $T1[rbp]
  0004b	48 8b 8d 08 01
	00 00		 mov	 rcx, QWORD PTR <_Args_0>$[rbp]
  00052	48 8b 09	 mov	 rcx, QWORD PTR [rcx]
  00055	48 89 08	 mov	 QWORD PTR [rax], rcx

; 255  :     }
; 256  : }

  00058	48 8d a5 e8 00
	00 00		 lea	 rsp, QWORD PTR [rbp+232]
  0005f	5f		 pop	 rdi
  00060	5d		 pop	 rbp
  00061	c3		 ret	 0
??$_Construct_in_place@PEADAEBQEAD@std@@YAXAEAPEADAEBQEAD@Z ENDP ; std::_Construct_in_place<char *,char * const &>
_TEXT	ENDS
; Function compile flags: /Odtp /RTCsu /ZI
; File C:\Program Files\Microsoft Visual Studio\2022\Community\VC\Tools\MSVC\14.37.32822\include\xmemory
;	COMDAT ??$_Unfancy@U_Container_proxy@std@@@std@@YAPEAU_Container_proxy@0@PEAU10@@Z
_TEXT	SEGMENT
_Ptr$ = 224
??$_Unfancy@U_Container_proxy@std@@@std@@YAPEAU_Container_proxy@0@PEAU10@@Z PROC ; std::_Unfancy<std::_Container_proxy>, COMDAT

; 36   : _NODISCARD constexpr _Ty* _Unfancy(_Ty* _Ptr) noexcept { // do nothing for plain pointers

$LN3:
  00000	48 89 4c 24 08	 mov	 QWORD PTR [rsp+8], rcx
  00005	55		 push	 rbp
  00006	57		 push	 rdi
  00007	48 81 ec e8 00
	00 00		 sub	 rsp, 232		; 000000e8H
  0000e	48 8d 6c 24 20	 lea	 rbp, QWORD PTR [rsp+32]
  00013	48 8d 0d 00 00
	00 00		 lea	 rcx, OFFSET FLAT:__A594BF75_xmemory
  0001a	e8 00 00 00 00	 call	 __CheckForDebuggerJustMyCode

; 37   :     return _Ptr;

  0001f	48 8b 85 e0 00
	00 00		 mov	 rax, QWORD PTR _Ptr$[rbp]

; 38   : }

  00026	48 8d a5 c8 00
	00 00		 lea	 rsp, QWORD PTR [rbp+200]
  0002d	5f		 pop	 rdi
  0002e	5d		 pop	 rbp
  0002f	c3		 ret	 0
??$_Unfancy@U_Container_proxy@std@@@std@@YAPEAU_Container_proxy@0@PEAU10@@Z ENDP ; std::_Unfancy<std::_Container_proxy>
_TEXT	ENDS
; Function compile flags: /Odtp /RTCsu /ZI
; File C:\Program Files\Microsoft Visual Studio\2022\Community\VC\Tools\MSVC\14.37.32822\include\xmemory
;	COMDAT ??1?$_Container_proxy_ptr12@V?$allocator@U_Container_proxy@std@@@std@@@std@@QEAA@XZ
_TEXT	SEGMENT
this$ = 224
??1?$_Container_proxy_ptr12@V?$allocator@U_Container_proxy@std@@@std@@@std@@QEAA@XZ PROC ; std::_Container_proxy_ptr12<std::allocator<std::_Container_proxy> >::~_Container_proxy_ptr12<std::allocator<std::_Container_proxy> >, COMDAT

; 1479 :     _CONSTEXPR20 ~_Container_proxy_ptr12() {

$LN4:
  00000	48 89 4c 24 08	 mov	 QWORD PTR [rsp+8], rcx
  00005	55		 push	 rbp
  00006	57		 push	 rdi
  00007	48 81 ec e8 00
	00 00		 sub	 rsp, 232		; 000000e8H
  0000e	48 8d 6c 24 20	 lea	 rbp, QWORD PTR [rsp+32]
  00013	48 8d 0d 00 00
	00 00		 lea	 rcx, OFFSET FLAT:__A594BF75_xmemory
  0001a	e8 00 00 00 00	 call	 __CheckForDebuggerJustMyCode

; 1480 :         if (_Ptr) {

  0001f	48 8b 85 e0 00
	00 00		 mov	 rax, QWORD PTR this$[rbp]
  00026	48 83 38 00	 cmp	 QWORD PTR [rax], 0
  0002a	74 1a		 je	 SHORT $LN2@Container_

; 1481 :             _Delete_plain_internal(_Al, _Ptr);

  0002c	48 8b 85 e0 00
	00 00		 mov	 rax, QWORD PTR this$[rbp]
  00033	48 8b 10	 mov	 rdx, QWORD PTR [rax]
  00036	48 8b 85 e0 00
	00 00		 mov	 rax, QWORD PTR this$[rbp]
  0003d	48 8b 48 08	 mov	 rcx, QWORD PTR [rax+8]
  00041	e8 00 00 00 00	 call	 ??$_Delete_plain_internal@V?$allocator@U_Container_proxy@std@@@std@@@std@@YAXAEAV?$allocator@U_Container_proxy@std@@@0@QEAU_Container_proxy@0@@Z ; std::_Delete_plain_internal<std::allocator<std::_Container_proxy> >
$LN2@Container_:

; 1482 :         }
; 1483 :     }

  00046	48 8d a5 c8 00
	00 00		 lea	 rsp, QWORD PTR [rbp+200]
  0004d	5f		 pop	 rdi
  0004e	5d		 pop	 rbp
  0004f	c3		 ret	 0
??1?$_Container_proxy_ptr12@V?$allocator@U_Container_proxy@std@@@std@@@std@@QEAA@XZ ENDP ; std::_Container_proxy_ptr12<std::allocator<std::_Container_proxy> >::~_Container_proxy_ptr12<std::allocator<std::_Container_proxy> >
_TEXT	ENDS
; Function compile flags: /Odtp /RTCsu /ZI
; File C:\Program Files\Microsoft Visual Studio\2022\Community\VC\Tools\MSVC\14.37.32822\include\xmemory
;	COMDAT ??0?$_Container_proxy_ptr12@V?$allocator@U_Container_proxy@std@@@std@@@std@@QEAA@AEAV?$allocator@U_Container_proxy@std@@@1@AEAU_Container_base12@1@@Z
_TEXT	SEGMENT
$T1 = 200
this$ = 256
_Al_$ = 264
_Mycont$ = 272
??0?$_Container_proxy_ptr12@V?$allocator@U_Container_proxy@std@@@std@@@std@@QEAA@AEAV?$allocator@U_Container_proxy@std@@@1@AEAU_Container_base12@1@@Z PROC ; std::_Container_proxy_ptr12<std::allocator<std::_Container_proxy> >::_Container_proxy_ptr12<std::allocator<std::_Container_proxy> >, COMDAT

; 1465 :     _CONSTEXPR20 _Container_proxy_ptr12(_Alloc& _Al_, _Container_base12& _Mycont) : _Al(_Al_) {

$LN3:
  00000	4c 89 44 24 18	 mov	 QWORD PTR [rsp+24], r8
  00005	48 89 54 24 10	 mov	 QWORD PTR [rsp+16], rdx
  0000a	48 89 4c 24 08	 mov	 QWORD PTR [rsp+8], rcx
  0000f	55		 push	 rbp
  00010	57		 push	 rdi
  00011	48 81 ec 08 01
	00 00		 sub	 rsp, 264		; 00000108H
  00018	48 8d 6c 24 20	 lea	 rbp, QWORD PTR [rsp+32]
  0001d	48 8d 0d 00 00
	00 00		 lea	 rcx, OFFSET FLAT:__A594BF75_xmemory
  00024	e8 00 00 00 00	 call	 __CheckForDebuggerJustMyCode
  00029	48 8b 8d 00 01
	00 00		 mov	 rcx, QWORD PTR this$[rbp]
  00030	e8 00 00 00 00	 call	 ??0_Basic_container_proxy_ptr12@std@@IEAA@XZ ; std::_Basic_container_proxy_ptr12::_Basic_container_proxy_ptr12
  00035	48 8b 85 00 01
	00 00		 mov	 rax, QWORD PTR this$[rbp]
  0003c	48 8b 8d 08 01
	00 00		 mov	 rcx, QWORD PTR _Al_$[rbp]
  00043	48 89 48 08	 mov	 QWORD PTR [rax+8], rcx

; 1466 :         // create a new _Container_proxy pointing at _Mycont
; 1467 :         _Ptr = _Unfancy(_Al_.allocate(1));

  00047	ba 01 00 00 00	 mov	 edx, 1
  0004c	48 8b 8d 08 01
	00 00		 mov	 rcx, QWORD PTR _Al_$[rbp]
  00053	e8 00 00 00 00	 call	 ?allocate@?$allocator@U_Container_proxy@std@@@std@@QEAAPEAU_Container_proxy@2@_K@Z ; std::allocator<std::_Container_proxy>::allocate
  00058	48 8b c8	 mov	 rcx, rax
  0005b	e8 00 00 00 00	 call	 ??$_Unfancy@U_Container_proxy@std@@@std@@YAPEAU_Container_proxy@0@PEAU10@@Z ; std::_Unfancy<std::_Container_proxy>
  00060	48 8b 8d 00 01
	00 00		 mov	 rcx, QWORD PTR this$[rbp]
  00067	48 89 01	 mov	 QWORD PTR [rcx], rax

; 1468 :         _Construct_in_place(*_Ptr, _STD addressof(_Mycont));

  0006a	48 8b 8d 10 01
	00 00		 mov	 rcx, QWORD PTR _Mycont$[rbp]
  00071	e8 00 00 00 00	 call	 ??$addressof@U_Container_base12@std@@@std@@YAPEAU_Container_base12@0@AEAU10@@Z ; std::addressof<std::_Container_base12>
  00076	48 89 85 c8 00
	00 00		 mov	 QWORD PTR $T1[rbp], rax
  0007d	48 8d 95 c8 00
	00 00		 lea	 rdx, QWORD PTR $T1[rbp]
  00084	48 8b 85 00 01
	00 00		 mov	 rax, QWORD PTR this$[rbp]
  0008b	48 8b 08	 mov	 rcx, QWORD PTR [rax]
  0008e	e8 00 00 00 00	 call	 ??$_Construct_in_place@U_Container_proxy@std@@PEAU_Container_base12@2@@std@@YAXAEAU_Container_proxy@0@$$QEAPEAU_Container_base12@0@@Z ; std::_Construct_in_place<std::_Container_proxy,std::_Container_base12 *>

; 1469 :         _Mycont._Myproxy = _Ptr;

  00093	48 8b 85 10 01
	00 00		 mov	 rax, QWORD PTR _Mycont$[rbp]
  0009a	48 8b 8d 00 01
	00 00		 mov	 rcx, QWORD PTR this$[rbp]
  000a1	48 8b 09	 mov	 rcx, QWORD PTR [rcx]
  000a4	48 89 08	 mov	 QWORD PTR [rax], rcx

; 1470 :     }

  000a7	48 8b 85 00 01
	00 00		 mov	 rax, QWORD PTR this$[rbp]
  000ae	48 8d a5 e8 00
	00 00		 lea	 rsp, QWORD PTR [rbp+232]
  000b5	5f		 pop	 rdi
  000b6	5d		 pop	 rbp
  000b7	c3		 ret	 0
??0?$_Container_proxy_ptr12@V?$allocator@U_Container_proxy@std@@@std@@@std@@QEAA@AEAV?$allocator@U_Container_proxy@std@@@1@AEAU_Container_base12@1@@Z ENDP ; std::_Container_proxy_ptr12<std::allocator<std::_Container_proxy> >::_Container_proxy_ptr12<std::allocator<std::_Container_proxy> >
_TEXT	ENDS
; Function compile flags: /Odtp /RTCsu /ZI
; File C:\Program Files\Microsoft Visual Studio\2022\Community\VC\Tools\MSVC\14.37.32822\include\xmemory
;	COMDAT ??$_Deallocate_plain@V?$allocator@U_Container_proxy@std@@@std@@@std@@YAXAEAV?$allocator@U_Container_proxy@std@@@0@QEAU_Container_proxy@0@@Z
_TEXT	SEGMENT
_Al$ = 224
_Ptr$ = 232
??$_Deallocate_plain@V?$allocator@U_Container_proxy@std@@@std@@@std@@YAXAEAV?$allocator@U_Container_proxy@std@@@0@QEAU_Container_proxy@0@@Z PROC ; std::_Deallocate_plain<std::allocator<std::_Container_proxy> >, COMDAT

; 1119 : _CONSTEXPR20 void _Deallocate_plain(_Alloc& _Al, typename _Alloc::value_type* const _Ptr) noexcept {

$LN3:
  00000	48 89 54 24 10	 mov	 QWORD PTR [rsp+16], rdx
  00005	48 89 4c 24 08	 mov	 QWORD PTR [rsp+8], rcx
  0000a	55		 push	 rbp
  0000b	57		 push	 rdi
  0000c	48 81 ec e8 00
	00 00		 sub	 rsp, 232		; 000000e8H
  00013	48 8d 6c 24 20	 lea	 rbp, QWORD PTR [rsp+32]
  00018	48 8d 0d 00 00
	00 00		 lea	 rcx, OFFSET FLAT:__A594BF75_xmemory
  0001f	e8 00 00 00 00	 call	 __CheckForDebuggerJustMyCode

; 1120 :     // deallocate a plain pointer using an allocator
; 1121 :     using _Alloc_traits = allocator_traits<_Alloc>;
; 1122 :     if constexpr (is_same_v<_Alloc_ptr_t<_Alloc>, typename _Alloc::value_type*>) {
; 1123 :         _Alloc_traits::deallocate(_Al, _Ptr, 1);

  00024	41 b8 01 00 00
	00		 mov	 r8d, 1
  0002a	48 8b 95 e8 00
	00 00		 mov	 rdx, QWORD PTR _Ptr$[rbp]
  00031	48 8b 8d e0 00
	00 00		 mov	 rcx, QWORD PTR _Al$[rbp]
  00038	e8 00 00 00 00	 call	 ?deallocate@?$_Default_allocator_traits@V?$allocator@U_Container_proxy@std@@@std@@@std@@SAXAEAV?$allocator@U_Container_proxy@std@@@2@QEAU_Container_proxy@2@_K@Z ; std::_Default_allocator_traits<std::allocator<std::_Container_proxy> >::deallocate
  0003d	90		 npad	 1

; 1124 :     } else {
; 1125 :         using _Ptr_traits = pointer_traits<_Alloc_ptr_t<_Alloc>>;
; 1126 :         _Alloc_traits::deallocate(_Al, _Ptr_traits::pointer_to(*_Ptr), 1);
; 1127 :     }
; 1128 : }

  0003e	48 8d a5 c8 00
	00 00		 lea	 rsp, QWORD PTR [rbp+200]
  00045	5f		 pop	 rdi
  00046	5d		 pop	 rbp
  00047	c3		 ret	 0
??$_Deallocate_plain@V?$allocator@U_Container_proxy@std@@@std@@@std@@YAXAEAV?$allocator@U_Container_proxy@std@@@0@QEAU_Container_proxy@0@@Z ENDP ; std::_Deallocate_plain<std::allocator<std::_Container_proxy> >
_TEXT	ENDS
; Function compile flags: /Odtp /RTCsu /ZI
;	COMDAT ??1sentry@?$basic_istream@DU?$char_traits@D@std@@@std@@QEAA@XZ
_TEXT	SEGMENT
this$ = 224
??1sentry@?$basic_istream@DU?$char_traits@D@std@@@std@@QEAA@XZ PROC ; std::basic_istream<char,std::char_traits<char> >::sentry::~sentry, COMDAT
$LN3:
  00000	48 89 4c 24 08	 mov	 QWORD PTR [rsp+8], rcx
  00005	55		 push	 rbp
  00006	57		 push	 rdi
  00007	48 81 ec e8 00
	00 00		 sub	 rsp, 232		; 000000e8H
  0000e	48 8d 6c 24 20	 lea	 rbp, QWORD PTR [rsp+32]
  00013	48 8b 8d e0 00
	00 00		 mov	 rcx, QWORD PTR this$[rbp]
  0001a	e8 00 00 00 00	 call	 ??1_Sentry_base@?$basic_istream@DU?$char_traits@D@std@@@std@@QEAA@XZ ; std::basic_istream<char,std::char_traits<char> >::_Sentry_base::~_Sentry_base
  0001f	48 8d a5 c8 00
	00 00		 lea	 rsp, QWORD PTR [rbp+200]
  00026	5f		 pop	 rdi
  00027	5d		 pop	 rbp
  00028	c3		 ret	 0
??1sentry@?$basic_istream@DU?$char_traits@D@std@@@std@@QEAA@XZ ENDP ; std::basic_istream<char,std::char_traits<char> >::sentry::~sentry
_TEXT	ENDS
; Function compile flags: /Odtp /RTCsu /ZI
; File C:\Program Files\Microsoft Visual Studio\2022\Community\VC\Tools\MSVC\14.37.32822\include\istream
;	COMDAT ??Bsentry@?$basic_istream@DU?$char_traits@D@std@@@std@@QEBA_NXZ
_TEXT	SEGMENT
this$ = 224
??Bsentry@?$basic_istream@DU?$char_traits@D@std@@@std@@QEBA_NXZ PROC ; std::basic_istream<char,std::char_traits<char> >::sentry::operator bool, COMDAT

; 103  :         explicit __CLR_OR_THIS_CALL operator bool() const {

$LN3:
  00000	48 89 4c 24 08	 mov	 QWORD PTR [rsp+8], rcx
  00005	55		 push	 rbp
  00006	57		 push	 rdi
  00007	48 81 ec e8 00
	00 00		 sub	 rsp, 232		; 000000e8H
  0000e	48 8d 6c 24 20	 lea	 rbp, QWORD PTR [rsp+32]
  00013	48 8d 0d 00 00
	00 00		 lea	 rcx, OFFSET FLAT:__7EB9A226_istream
  0001a	e8 00 00 00 00	 call	 __CheckForDebuggerJustMyCode

; 104  :             return _Ok;

  0001f	48 8b 85 e0 00
	00 00		 mov	 rax, QWORD PTR this$[rbp]
  00026	0f b6 40 08	 movzx	 eax, BYTE PTR [rax+8]

; 105  :         }

  0002a	48 8d a5 c8 00
	00 00		 lea	 rsp, QWORD PTR [rbp+200]
  00031	5f		 pop	 rdi
  00032	5d		 pop	 rbp
  00033	c3		 ret	 0
??Bsentry@?$basic_istream@DU?$char_traits@D@std@@@std@@QEBA_NXZ ENDP ; std::basic_istream<char,std::char_traits<char> >::sentry::operator bool
_TEXT	ENDS
; Function compile flags: /Odtp /RTCsu /ZI
; File C:\Program Files\Microsoft Visual Studio\2022\Community\VC\Tools\MSVC\14.37.32822\include\istream
;	COMDAT ??0sentry@?$basic_istream@DU?$char_traits@D@std@@@std@@QEAA@AEAV12@_N@Z
_TEXT	SEGMENT
this$ = 224
_Istr$ = 232
_Noskip$ = 240
??0sentry@?$basic_istream@DU?$char_traits@D@std@@@std@@QEAA@AEAV12@_N@Z PROC ; std::basic_istream<char,std::char_traits<char> >::sentry::sentry, COMDAT

; 101  :             : _Sentry_base(_Istr), _Ok(_Sentry_base::_Myistr._Ipfx(_Noskip)) {}

$LN4:
  00000	44 88 44 24 18	 mov	 BYTE PTR [rsp+24], r8b
  00005	48 89 54 24 10	 mov	 QWORD PTR [rsp+16], rdx
  0000a	48 89 4c 24 08	 mov	 QWORD PTR [rsp+8], rcx
  0000f	55		 push	 rbp
  00010	57		 push	 rdi
  00011	48 81 ec e8 00
	00 00		 sub	 rsp, 232		; 000000e8H
  00018	48 8d 6c 24 20	 lea	 rbp, QWORD PTR [rsp+32]
  0001d	48 8d 0d 00 00
	00 00		 lea	 rcx, OFFSET FLAT:__7EB9A226_istream
  00024	e8 00 00 00 00	 call	 __CheckForDebuggerJustMyCode
  00029	48 8b 95 e8 00
	00 00		 mov	 rdx, QWORD PTR _Istr$[rbp]
  00030	48 8b 8d e0 00
	00 00		 mov	 rcx, QWORD PTR this$[rbp]
  00037	e8 00 00 00 00	 call	 ??0_Sentry_base@?$basic_istream@DU?$char_traits@D@std@@@std@@QEAA@AEAV12@@Z ; std::basic_istream<char,std::char_traits<char> >::_Sentry_base::_Sentry_base
  0003c	90		 npad	 1
  0003d	0f b6 95 f0 00
	00 00		 movzx	 edx, BYTE PTR _Noskip$[rbp]
  00044	48 8b 85 e0 00
	00 00		 mov	 rax, QWORD PTR this$[rbp]
  0004b	48 8b 08	 mov	 rcx, QWORD PTR [rax]
  0004e	ff 15 00 00 00
	00		 call	 QWORD PTR __imp_?_Ipfx@?$basic_istream@DU?$char_traits@D@std@@@std@@QEAA_N_N@Z
  00054	48 8b 8d e0 00
	00 00		 mov	 rcx, QWORD PTR this$[rbp]
  0005b	88 41 08	 mov	 BYTE PTR [rcx+8], al
  0005e	48 8b 85 e0 00
	00 00		 mov	 rax, QWORD PTR this$[rbp]
  00065	48 8d a5 c8 00
	00 00		 lea	 rsp, QWORD PTR [rbp+200]
  0006c	5f		 pop	 rdi
  0006d	5d		 pop	 rbp
  0006e	c3		 ret	 0
??0sentry@?$basic_istream@DU?$char_traits@D@std@@@std@@QEAA@AEAV12@_N@Z ENDP ; std::basic_istream<char,std::char_traits<char> >::sentry::sentry
_TEXT	ENDS
; Function compile flags: /Odtp /RTCsu /ZI
;	COMDAT text$x
text$x	SEGMENT
this$ = 224
_Istr$ = 232
_Noskip$ = 240
?dtor$0@?0???0sentry@?$basic_istream@DU?$char_traits@D@std@@@std@@QEAA@AEAV12@_N@Z@4HA PROC ; `std::basic_istream<char,std::char_traits<char> >::sentry::sentry'::`1'::dtor$0
  00000	48 89 4c 24 08	 mov	 QWORD PTR [rsp+8], rcx
  00005	48 89 54 24 10	 mov	 QWORD PTR [rsp+16], rdx
  0000a	55		 push	 rbp
  0000b	57		 push	 rdi
  0000c	48 83 ec 28	 sub	 rsp, 40			; 00000028H
  00010	48 8d 6a 20	 lea	 rbp, QWORD PTR [rdx+32]
  00014	48 8b 8d e0 00
	00 00		 mov	 rcx, QWORD PTR this$[rbp]
  0001b	e8 00 00 00 00	 call	 ??1_Sentry_base@?$basic_istream@DU?$char_traits@D@std@@@std@@QEAA@XZ ; std::basic_istream<char,std::char_traits<char> >::_Sentry_base::~_Sentry_base
  00020	48 83 c4 28	 add	 rsp, 40			; 00000028H
  00024	5f		 pop	 rdi
  00025	5d		 pop	 rbp
  00026	c3		 ret	 0
?dtor$0@?0???0sentry@?$basic_istream@DU?$char_traits@D@std@@@std@@QEAA@AEAV12@_N@Z@4HA ENDP ; `std::basic_istream<char,std::char_traits<char> >::sentry::sentry'::`1'::dtor$0
text$x	ENDS
; Function compile flags: /Odtp /RTCsu /ZI
; File C:\Program Files\Microsoft Visual Studio\2022\Community\VC\Tools\MSVC\14.37.32822\include\istream
;	COMDAT ??1_Sentry_base@?$basic_istream@DU?$char_traits@D@std@@@std@@QEAA@XZ
_TEXT	SEGMENT
_Rdbuf$ = 8
tv72 = 216
this$ = 256
??1_Sentry_base@?$basic_istream@DU?$char_traits@D@std@@@std@@QEAA@XZ PROC ; std::basic_istream<char,std::char_traits<char> >::_Sentry_base::~_Sentry_base, COMDAT

; 86   :         __CLR_OR_THIS_CALL ~_Sentry_base() noexcept {

$LN4:
  00000	48 89 4c 24 08	 mov	 QWORD PTR [rsp+8], rcx
  00005	55		 push	 rbp
  00006	57		 push	 rdi
  00007	48 81 ec 08 01
	00 00		 sub	 rsp, 264		; 00000108H
  0000e	48 8d 6c 24 20	 lea	 rbp, QWORD PTR [rsp+32]
  00013	48 8d 0d 00 00
	00 00		 lea	 rcx, OFFSET FLAT:__7EB9A226_istream
  0001a	e8 00 00 00 00	 call	 __CheckForDebuggerJustMyCode

; 87   :             const auto _Rdbuf = _Myistr.rdbuf();

  0001f	48 8b 85 00 01
	00 00		 mov	 rax, QWORD PTR this$[rbp]
  00026	48 8b 00	 mov	 rax, QWORD PTR [rax]
  00029	48 89 85 d8 00
	00 00		 mov	 QWORD PTR tv72[rbp], rax
  00030	48 8b 85 d8 00
	00 00		 mov	 rax, QWORD PTR tv72[rbp]
  00037	48 8b 00	 mov	 rax, QWORD PTR [rax]
  0003a	48 63 40 04	 movsxd	 rax, DWORD PTR [rax+4]
  0003e	48 8b 8d d8 00
	00 00		 mov	 rcx, QWORD PTR tv72[rbp]
  00045	48 03 c8	 add	 rcx, rax
  00048	48 8b c1	 mov	 rax, rcx
  0004b	48 8b c8	 mov	 rcx, rax
  0004e	ff 15 00 00 00
	00		 call	 QWORD PTR __imp_?rdbuf@?$basic_ios@DU?$char_traits@D@std@@@std@@QEBAPEAV?$basic_streambuf@DU?$char_traits@D@std@@@2@XZ
  00054	48 89 45 08	 mov	 QWORD PTR _Rdbuf$[rbp], rax

; 88   :             if (_Rdbuf) {

  00058	48 83 7d 08 00	 cmp	 QWORD PTR _Rdbuf$[rbp], 0
  0005d	74 0f		 je	 SHORT $LN2@Sentry_bas

; 89   :                 _Rdbuf->_Unlock();

  0005f	48 8b 45 08	 mov	 rax, QWORD PTR _Rdbuf$[rbp]
  00063	48 8b 00	 mov	 rax, QWORD PTR [rax]
  00066	48 8b 4d 08	 mov	 rcx, QWORD PTR _Rdbuf$[rbp]
  0006a	ff 50 10	 call	 QWORD PTR [rax+16]
  0006d	90		 npad	 1
$LN2@Sentry_bas:

; 90   :             }
; 91   :         }

  0006e	48 8d a5 e8 00
	00 00		 lea	 rsp, QWORD PTR [rbp+232]
  00075	5f		 pop	 rdi
  00076	5d		 pop	 rbp
  00077	c3		 ret	 0
??1_Sentry_base@?$basic_istream@DU?$char_traits@D@std@@@std@@QEAA@XZ ENDP ; std::basic_istream<char,std::char_traits<char> >::_Sentry_base::~_Sentry_base
_TEXT	ENDS
; Function compile flags: /Odtp /RTCsu /ZI
; File C:\Program Files\Microsoft Visual Studio\2022\Community\VC\Tools\MSVC\14.37.32822\include\istream
;	COMDAT ??0_Sentry_base@?$basic_istream@DU?$char_traits@D@std@@@std@@QEAA@AEAV12@@Z
_TEXT	SEGMENT
_Rdbuf$ = 8
tv73 = 216
this$ = 256
_Istr$ = 264
??0_Sentry_base@?$basic_istream@DU?$char_traits@D@std@@@std@@QEAA@AEAV12@@Z PROC ; std::basic_istream<char,std::char_traits<char> >::_Sentry_base::_Sentry_base, COMDAT

; 79   :         __CLR_OR_THIS_CALL _Sentry_base(basic_istream& _Istr) : _Myistr(_Istr) {

$LN4:
  00000	48 89 54 24 10	 mov	 QWORD PTR [rsp+16], rdx
  00005	48 89 4c 24 08	 mov	 QWORD PTR [rsp+8], rcx
  0000a	55		 push	 rbp
  0000b	57		 push	 rdi
  0000c	48 81 ec 08 01
	00 00		 sub	 rsp, 264		; 00000108H
  00013	48 8d 6c 24 20	 lea	 rbp, QWORD PTR [rsp+32]
  00018	48 8d 0d 00 00
	00 00		 lea	 rcx, OFFSET FLAT:__7EB9A226_istream
  0001f	e8 00 00 00 00	 call	 __CheckForDebuggerJustMyCode
  00024	48 8b 85 00 01
	00 00		 mov	 rax, QWORD PTR this$[rbp]
  0002b	48 8b 8d 08 01
	00 00		 mov	 rcx, QWORD PTR _Istr$[rbp]
  00032	48 89 08	 mov	 QWORD PTR [rax], rcx

; 80   :             const auto _Rdbuf = _Myistr.rdbuf();

  00035	48 8b 85 00 01
	00 00		 mov	 rax, QWORD PTR this$[rbp]
  0003c	48 8b 00	 mov	 rax, QWORD PTR [rax]
  0003f	48 89 85 d8 00
	00 00		 mov	 QWORD PTR tv73[rbp], rax
  00046	48 8b 85 d8 00
	00 00		 mov	 rax, QWORD PTR tv73[rbp]
  0004d	48 8b 00	 mov	 rax, QWORD PTR [rax]
  00050	48 63 40 04	 movsxd	 rax, DWORD PTR [rax+4]
  00054	48 8b 8d d8 00
	00 00		 mov	 rcx, QWORD PTR tv73[rbp]
  0005b	48 03 c8	 add	 rcx, rax
  0005e	48 8b c1	 mov	 rax, rcx
  00061	48 8b c8	 mov	 rcx, rax
  00064	ff 15 00 00 00
	00		 call	 QWORD PTR __imp_?rdbuf@?$basic_ios@DU?$char_traits@D@std@@@std@@QEBAPEAV?$basic_streambuf@DU?$char_traits@D@std@@@2@XZ
  0006a	48 89 45 08	 mov	 QWORD PTR _Rdbuf$[rbp], rax

; 81   :             if (_Rdbuf) {

  0006e	48 83 7d 08 00	 cmp	 QWORD PTR _Rdbuf$[rbp], 0
  00073	74 0e		 je	 SHORT $LN2@Sentry_bas

; 82   :                 _Rdbuf->_Lock();

  00075	48 8b 45 08	 mov	 rax, QWORD PTR _Rdbuf$[rbp]
  00079	48 8b 00	 mov	 rax, QWORD PTR [rax]
  0007c	48 8b 4d 08	 mov	 rcx, QWORD PTR _Rdbuf$[rbp]
  00080	ff 50 08	 call	 QWORD PTR [rax+8]
$LN2@Sentry_bas:

; 83   :             }
; 84   :         }

  00083	48 8b 85 00 01
	00 00		 mov	 rax, QWORD PTR this$[rbp]
  0008a	48 8d a5 e8 00
	00 00		 lea	 rsp, QWORD PTR [rbp+232]
  00091	5f		 pop	 rdi
  00092	5d		 pop	 rbp
  00093	c3		 ret	 0
??0_Sentry_base@?$basic_istream@DU?$char_traits@D@std@@@std@@QEAA@AEAV12@@Z ENDP ; std::basic_istream<char,std::char_traits<char> >::_Sentry_base::_Sentry_base
_TEXT	ENDS
; Function compile flags: /Odtp /RTCsu /ZI
; File C:\Program Files\Microsoft Visual Studio\2022\Community\VC\Tools\MSVC\14.37.32822\include\memory
;	COMDAT ??$?0U?$default_delete@V_Facet_base@std@@@std@@$0A@@?$unique_ptr@V_Facet_base@std@@U?$default_delete@V_Facet_base@std@@@2@@std@@QEAA@PEAV_Facet_base@1@@Z
_TEXT	SEGMENT
$T1 = 196
this$ = 256
_Ptr$ = 264
??$?0U?$default_delete@V_Facet_base@std@@@std@@$0A@@?$unique_ptr@V_Facet_base@std@@U?$default_delete@V_Facet_base@std@@@2@@std@@QEAA@PEAV_Facet_base@1@@Z PROC ; std::unique_ptr<std::_Facet_base,std::default_delete<std::_Facet_base> >::unique_ptr<std::_Facet_base,std::default_delete<std::_Facet_base> ><std::default_delete<std::_Facet_base>,0>, COMDAT

; 3233 :     _CONSTEXPR23 explicit unique_ptr(pointer _Ptr) noexcept : _Mypair(_Zero_then_variadic_args_t{}, _Ptr) {}

$LN3:
  00000	48 89 54 24 10	 mov	 QWORD PTR [rsp+16], rdx
  00005	48 89 4c 24 08	 mov	 QWORD PTR [rsp+8], rcx
  0000a	55		 push	 rbp
  0000b	57		 push	 rdi
  0000c	48 81 ec 08 01
	00 00		 sub	 rsp, 264		; 00000108H
  00013	48 8d 6c 24 20	 lea	 rbp, QWORD PTR [rsp+32]
  00018	48 8d 0d 00 00
	00 00		 lea	 rcx, OFFSET FLAT:__53EF8FA2_memory
  0001f	e8 00 00 00 00	 call	 __CheckForDebuggerJustMyCode
  00024	48 8b 85 00 01
	00 00		 mov	 rax, QWORD PTR this$[rbp]
  0002b	4c 8d 85 08 01
	00 00		 lea	 r8, QWORD PTR _Ptr$[rbp]
  00032	0f b6 95 c4 00
	00 00		 movzx	 edx, BYTE PTR $T1[rbp]
  00039	48 8b c8	 mov	 rcx, rax
  0003c	e8 00 00 00 00	 call	 ??$?0AEAPEAV_Facet_base@std@@@?$_Compressed_pair@U?$default_delete@V_Facet_base@std@@@std@@PEAV_Facet_base@2@$00@std@@QEAA@U_Zero_then_variadic_args_t@1@AEAPEAV_Facet_base@1@@Z ; std::_Compressed_pair<std::default_delete<std::_Facet_base>,std::_Facet_base *,1>::_Compressed_pair<std::default_delete<std::_Facet_base>,std::_Facet_base *,1><std::_Facet_base * &>
  00041	48 8b 85 00 01
	00 00		 mov	 rax, QWORD PTR this$[rbp]
  00048	48 8d a5 e8 00
	00 00		 lea	 rsp, QWORD PTR [rbp+232]
  0004f	5f		 pop	 rdi
  00050	5d		 pop	 rbp
  00051	c3		 ret	 0
??$?0U?$default_delete@V_Facet_base@std@@@std@@$0A@@?$unique_ptr@V_Facet_base@std@@U?$default_delete@V_Facet_base@std@@@2@@std@@QEAA@PEAV_Facet_base@1@@Z ENDP ; std::unique_ptr<std::_Facet_base,std::default_delete<std::_Facet_base> >::unique_ptr<std::_Facet_base,std::default_delete<std::_Facet_base> ><std::default_delete<std::_Facet_base>,0>
_TEXT	ENDS
; Function compile flags: /Odtp /RTCsu /ZI
;	COMDAT ?__autoclassinit2@?$unique_ptr@V_Facet_base@std@@U?$default_delete@V_Facet_base@std@@@2@@std@@QEAAX_K@Z
_TEXT	SEGMENT
this$ = 224
classSize$ = 232
?__autoclassinit2@?$unique_ptr@V_Facet_base@std@@U?$default_delete@V_Facet_base@std@@@2@@std@@QEAAX_K@Z PROC ; std::unique_ptr<std::_Facet_base,std::default_delete<std::_Facet_base> >::__autoclassinit2, COMDAT
$LN3:
  00000	48 89 54 24 10	 mov	 QWORD PTR [rsp+16], rdx
  00005	48 89 4c 24 08	 mov	 QWORD PTR [rsp+8], rcx
  0000a	55		 push	 rbp
  0000b	57		 push	 rdi
  0000c	48 81 ec c8 00
	00 00		 sub	 rsp, 200		; 000000c8H
  00013	48 8b ec	 mov	 rbp, rsp
  00016	48 8b bd e0 00
	00 00		 mov	 rdi, QWORD PTR this$[rbp]
  0001d	33 c0		 xor	 eax, eax
  0001f	48 8b 8d e8 00
	00 00		 mov	 rcx, QWORD PTR classSize$[rbp]
  00026	f3 aa		 rep stosb
  00028	48 8d a5 c8 00
	00 00		 lea	 rsp, QWORD PTR [rbp+200]
  0002f	5f		 pop	 rdi
  00030	5d		 pop	 rbp
  00031	c3		 ret	 0
?__autoclassinit2@?$unique_ptr@V_Facet_base@std@@U?$default_delete@V_Facet_base@std@@@2@@std@@QEAAX_K@Z ENDP ; std::unique_ptr<std::_Facet_base,std::default_delete<std::_Facet_base> >::__autoclassinit2
_TEXT	ENDS
; Function compile flags: /Odtp /RTCsu /ZI
; File C:\Program Files\Microsoft Visual Studio\2022\Community\VC\Tools\MSVC\14.37.32822\include\xmemory
;	COMDAT ?_Get_first@?$_Compressed_pair@U?$default_delete@V_Facet_base@std@@@std@@PEAV_Facet_base@2@$00@std@@QEAAAEAU?$default_delete@V_Facet_base@std@@@2@XZ
_TEXT	SEGMENT
this$ = 224
?_Get_first@?$_Compressed_pair@U?$default_delete@V_Facet_base@std@@@std@@PEAV_Facet_base@2@$00@std@@QEAAAEAU?$default_delete@V_Facet_base@std@@@2@XZ PROC ; std::_Compressed_pair<std::default_delete<std::_Facet_base>,std::_Facet_base *,1>::_Get_first, COMDAT

; 1522 :     constexpr _Ty1& _Get_first() noexcept {

$LN3:
  00000	48 89 4c 24 08	 mov	 QWORD PTR [rsp+8], rcx
  00005	55		 push	 rbp
  00006	57		 push	 rdi
  00007	48 81 ec e8 00
	00 00		 sub	 rsp, 232		; 000000e8H
  0000e	48 8d 6c 24 20	 lea	 rbp, QWORD PTR [rsp+32]
  00013	48 8d 0d 00 00
	00 00		 lea	 rcx, OFFSET FLAT:__A594BF75_xmemory
  0001a	e8 00 00 00 00	 call	 __CheckForDebuggerJustMyCode

; 1523 :         return *this;

  0001f	48 8b 85 e0 00
	00 00		 mov	 rax, QWORD PTR this$[rbp]

; 1524 :     }

  00026	48 8d a5 c8 00
	00 00		 lea	 rsp, QWORD PTR [rbp+200]
  0002d	5f		 pop	 rdi
  0002e	5d		 pop	 rbp
  0002f	c3		 ret	 0
?_Get_first@?$_Compressed_pair@U?$default_delete@V_Facet_base@std@@@std@@PEAV_Facet_base@2@$00@std@@QEAAAEAU?$default_delete@V_Facet_base@std@@@2@XZ ENDP ; std::_Compressed_pair<std::default_delete<std::_Facet_base>,std::_Facet_base *,1>::_Get_first
_TEXT	ENDS
; Function compile flags: /Odtp /RTCsu /ZI
; File C:\Program Files\Microsoft Visual Studio\2022\Community\VC\Tools\MSVC\14.37.32822\include\memory
;	COMDAT ?release@?$unique_ptr@V_Facet_base@std@@U?$default_delete@V_Facet_base@std@@@2@@std@@QEAAPEAV_Facet_base@2@XZ
_TEXT	SEGMENT
$T1 = 196
this$ = 256
?release@?$unique_ptr@V_Facet_base@std@@U?$default_delete@V_Facet_base@std@@@2@@std@@QEAAPEAV_Facet_base@2@XZ PROC ; std::unique_ptr<std::_Facet_base,std::default_delete<std::_Facet_base> >::release, COMDAT

; 3318 :     _CONSTEXPR23 pointer release() noexcept {

$LN3:
  00000	48 89 4c 24 08	 mov	 QWORD PTR [rsp+8], rcx
  00005	55		 push	 rbp
  00006	57		 push	 rdi
  00007	48 81 ec 08 01
	00 00		 sub	 rsp, 264		; 00000108H
  0000e	48 8d 6c 24 20	 lea	 rbp, QWORD PTR [rsp+32]
  00013	48 8d 0d 00 00
	00 00		 lea	 rcx, OFFSET FLAT:__53EF8FA2_memory
  0001a	e8 00 00 00 00	 call	 __CheckForDebuggerJustMyCode

; 3319 :         return _STD exchange(_Mypair._Myval2, nullptr);

  0001f	48 c7 85 c4 00
	00 00 00 00 00
	00		 mov	 QWORD PTR $T1[rbp], 0
  0002a	48 8b 85 00 01
	00 00		 mov	 rax, QWORD PTR this$[rbp]
  00031	48 8d 95 c4 00
	00 00		 lea	 rdx, QWORD PTR $T1[rbp]
  00038	48 8b c8	 mov	 rcx, rax
  0003b	e8 00 00 00 00	 call	 ??$exchange@PEAV_Facet_base@std@@$$T@std@@YAPEAV_Facet_base@0@AEAPEAV10@$$QEA$$T@Z ; std::exchange<std::_Facet_base *,std::nullptr_t>

; 3320 :     }

  00040	48 8d a5 e8 00
	00 00		 lea	 rsp, QWORD PTR [rbp+232]
  00047	5f		 pop	 rdi
  00048	5d		 pop	 rbp
  00049	c3		 ret	 0
?release@?$unique_ptr@V_Facet_base@std@@U?$default_delete@V_Facet_base@std@@@2@@std@@QEAAPEAV_Facet_base@2@XZ ENDP ; std::unique_ptr<std::_Facet_base,std::default_delete<std::_Facet_base> >::release
_TEXT	ENDS
; Function compile flags: /Odtp /RTCsu /ZI
; File C:\Program Files\Microsoft Visual Studio\2022\Community\VC\Tools\MSVC\14.37.32822\include\memory
;	COMDAT ??1?$unique_ptr@V_Facet_base@std@@U?$default_delete@V_Facet_base@std@@@2@@std@@QEAA@XZ
_TEXT	SEGMENT
this$ = 224
??1?$unique_ptr@V_Facet_base@std@@U?$default_delete@V_Facet_base@std@@@2@@std@@QEAA@XZ PROC ; std::unique_ptr<std::_Facet_base,std::default_delete<std::_Facet_base> >::~unique_ptr<std::_Facet_base,std::default_delete<std::_Facet_base> >, COMDAT

; 3288 :     _CONSTEXPR23 ~unique_ptr() noexcept {

$LN4:
  00000	48 89 4c 24 08	 mov	 QWORD PTR [rsp+8], rcx
  00005	55		 push	 rbp
  00006	57		 push	 rdi
  00007	48 81 ec e8 00
	00 00		 sub	 rsp, 232		; 000000e8H
  0000e	48 8d 6c 24 20	 lea	 rbp, QWORD PTR [rsp+32]
  00013	48 8d 0d 00 00
	00 00		 lea	 rcx, OFFSET FLAT:__53EF8FA2_memory
  0001a	e8 00 00 00 00	 call	 __CheckForDebuggerJustMyCode

; 3289 :         if (_Mypair._Myval2) {

  0001f	48 8b 85 e0 00
	00 00		 mov	 rax, QWORD PTR this$[rbp]
  00026	48 83 38 00	 cmp	 QWORD PTR [rax], 0
  0002a	74 21		 je	 SHORT $LN2@unique_ptr

; 3290 :             _Mypair._Get_first()(_Mypair._Myval2);

  0002c	48 8b 85 e0 00
	00 00		 mov	 rax, QWORD PTR this$[rbp]
  00033	48 8b c8	 mov	 rcx, rax
  00036	e8 00 00 00 00	 call	 ?_Get_first@?$_Compressed_pair@U?$default_delete@V_Facet_base@std@@@std@@PEAV_Facet_base@2@$00@std@@QEAAAEAU?$default_delete@V_Facet_base@std@@@2@XZ ; std::_Compressed_pair<std::default_delete<std::_Facet_base>,std::_Facet_base *,1>::_Get_first
  0003b	48 8b 8d e0 00
	00 00		 mov	 rcx, QWORD PTR this$[rbp]
  00042	48 8b 11	 mov	 rdx, QWORD PTR [rcx]
  00045	48 8b c8	 mov	 rcx, rax
  00048	e8 00 00 00 00	 call	 ??R?$default_delete@V_Facet_base@std@@@std@@QEBAXPEAV_Facet_base@1@@Z ; std::default_delete<std::_Facet_base>::operator()
$LN2@unique_ptr:

; 3291 :         }
; 3292 :     }

  0004d	48 8d a5 c8 00
	00 00		 lea	 rsp, QWORD PTR [rbp+200]
  00054	5f		 pop	 rdi
  00055	5d		 pop	 rbp
  00056	c3		 ret	 0
??1?$unique_ptr@V_Facet_base@std@@U?$default_delete@V_Facet_base@std@@@2@@std@@QEAA@XZ ENDP ; std::unique_ptr<std::_Facet_base,std::default_delete<std::_Facet_base> >::~unique_ptr<std::_Facet_base,std::default_delete<std::_Facet_base> >
_TEXT	ENDS
; Function compile flags: /Odtp /RTCsu /ZI
; File C:\Program Files\Microsoft Visual Studio\2022\Community\VC\Tools\MSVC\14.37.32822\include\memory
;	COMDAT ??R?$default_delete@V_Facet_base@std@@@std@@QEBAXPEAV_Facet_base@1@@Z
_TEXT	SEGMENT
$T1 = 200
tv70 = 216
this$ = 256
_Ptr$ = 264
??R?$default_delete@V_Facet_base@std@@@std@@QEBAXPEAV_Facet_base@1@@Z PROC ; std::default_delete<std::_Facet_base>::operator(), COMDAT

; 3178 :     _CONSTEXPR23 void operator()(_Ty* _Ptr) const noexcept /* strengthened */ { // delete a pointer

$LN5:
  00000	48 89 54 24 10	 mov	 QWORD PTR [rsp+16], rdx
  00005	48 89 4c 24 08	 mov	 QWORD PTR [rsp+8], rcx
  0000a	55		 push	 rbp
  0000b	57		 push	 rdi
  0000c	48 81 ec 08 01
	00 00		 sub	 rsp, 264		; 00000108H
  00013	48 8d 6c 24 20	 lea	 rbp, QWORD PTR [rsp+32]
  00018	48 8d 0d 00 00
	00 00		 lea	 rcx, OFFSET FLAT:__53EF8FA2_memory
  0001f	e8 00 00 00 00	 call	 __CheckForDebuggerJustMyCode

; 3179 :         static_assert(0 < sizeof(_Ty), "can't delete an incomplete type");
; 3180 :         delete _Ptr;

  00024	48 8b 85 08 01
	00 00		 mov	 rax, QWORD PTR _Ptr$[rbp]
  0002b	48 89 85 c8 00
	00 00		 mov	 QWORD PTR $T1[rbp], rax
  00032	48 83 bd c8 00
	00 00 00	 cmp	 QWORD PTR $T1[rbp], 0
  0003a	74 21		 je	 SHORT $LN3@operator
  0003c	48 8b 85 c8 00
	00 00		 mov	 rax, QWORD PTR $T1[rbp]
  00043	48 8b 00	 mov	 rax, QWORD PTR [rax]
  00046	ba 01 00 00 00	 mov	 edx, 1
  0004b	48 8b 8d c8 00
	00 00		 mov	 rcx, QWORD PTR $T1[rbp]
  00052	ff 10		 call	 QWORD PTR [rax]
  00054	48 89 85 d8 00
	00 00		 mov	 QWORD PTR tv70[rbp], rax
  0005b	eb 0b		 jmp	 SHORT $LN4@operator
$LN3@operator:
  0005d	48 c7 85 d8 00
	00 00 00 00 00
	00		 mov	 QWORD PTR tv70[rbp], 0
$LN4@operator:

; 3181 :     }

  00068	48 8d a5 e8 00
	00 00		 lea	 rsp, QWORD PTR [rbp+232]
  0006f	5f		 pop	 rdi
  00070	5d		 pop	 rbp
  00071	c3		 ret	 0
??R?$default_delete@V_Facet_base@std@@@std@@QEBAXPEAV_Facet_base@1@@Z ENDP ; std::default_delete<std::_Facet_base>::operator()
_TEXT	ENDS
; Function compile flags: /Odtp /RTCsu /ZI
; File C:\Program Files\Microsoft Visual Studio\2022\Community\VC\Tools\MSVC\14.37.32822\include\type_traits
;	COMDAT ??$addressof@$$CBV?$_String_val@U?$_Simple_types@D@std@@@std@@@std@@YAPEBV?$_String_val@U?$_Simple_types@D@std@@@0@AEBV10@@Z
_TEXT	SEGMENT
_Val$ = 224
??$addressof@$$CBV?$_String_val@U?$_Simple_types@D@std@@@std@@@std@@YAPEBV?$_String_val@U?$_Simple_types@D@std@@@0@AEBV10@@Z PROC ; std::addressof<std::_String_val<std::_Simple_types<char> > const >, COMDAT

; 1606 : _NODISCARD constexpr _Ty* addressof(_Ty& _Val) noexcept {

$LN3:
  00000	48 89 4c 24 08	 mov	 QWORD PTR [rsp+8], rcx
  00005	55		 push	 rbp
  00006	57		 push	 rdi
  00007	48 81 ec e8 00
	00 00		 sub	 rsp, 232		; 000000e8H
  0000e	48 8d 6c 24 20	 lea	 rbp, QWORD PTR [rsp+32]
  00013	48 8d 0d 00 00
	00 00		 lea	 rcx, OFFSET FLAT:__7FB6D5C7_type_traits
  0001a	e8 00 00 00 00	 call	 __CheckForDebuggerJustMyCode

; 1607 :     return __builtin_addressof(_Val);

  0001f	48 8b 85 e0 00
	00 00		 mov	 rax, QWORD PTR _Val$[rbp]

; 1608 : }

  00026	48 8d a5 c8 00
	00 00		 lea	 rsp, QWORD PTR [rbp+200]
  0002d	5f		 pop	 rdi
  0002e	5d		 pop	 rbp
  0002f	c3		 ret	 0
??$addressof@$$CBV?$_String_val@U?$_Simple_types@D@std@@@std@@@std@@YAPEBV?$_String_val@U?$_Simple_types@D@std@@@0@AEBV10@@Z ENDP ; std::addressof<std::_String_val<std::_Simple_types<char> > const >
_TEXT	ENDS
; Function compile flags: /Odtp /RTCsu /ZI
; File C:\Program Files\Microsoft Visual Studio\2022\Community\VC\Tools\MSVC\14.37.32822\include\type_traits
;	COMDAT ??$addressof@V?$_String_val@U?$_Simple_types@D@std@@@std@@@std@@YAPEAV?$_String_val@U?$_Simple_types@D@std@@@0@AEAV10@@Z
_TEXT	SEGMENT
_Val$ = 224
??$addressof@V?$_String_val@U?$_Simple_types@D@std@@@std@@@std@@YAPEAV?$_String_val@U?$_Simple_types@D@std@@@0@AEAV10@@Z PROC ; std::addressof<std::_String_val<std::_Simple_types<char> > >, COMDAT

; 1606 : _NODISCARD constexpr _Ty* addressof(_Ty& _Val) noexcept {

$LN3:
  00000	48 89 4c 24 08	 mov	 QWORD PTR [rsp+8], rcx
  00005	55		 push	 rbp
  00006	57		 push	 rdi
  00007	48 81 ec e8 00
	00 00		 sub	 rsp, 232		; 000000e8H
  0000e	48 8d 6c 24 20	 lea	 rbp, QWORD PTR [rsp+32]
  00013	48 8d 0d 00 00
	00 00		 lea	 rcx, OFFSET FLAT:__7FB6D5C7_type_traits
  0001a	e8 00 00 00 00	 call	 __CheckForDebuggerJustMyCode

; 1607 :     return __builtin_addressof(_Val);

  0001f	48 8b 85 e0 00
	00 00		 mov	 rax, QWORD PTR _Val$[rbp]

; 1608 : }

  00026	48 8d a5 c8 00
	00 00		 lea	 rsp, QWORD PTR [rbp+200]
  0002d	5f		 pop	 rdi
  0002e	5d		 pop	 rbp
  0002f	c3		 ret	 0
??$addressof@V?$_String_val@U?$_Simple_types@D@std@@@std@@@std@@YAPEAV?$_String_val@U?$_Simple_types@D@std@@@0@AEAV10@@Z ENDP ; std::addressof<std::_String_val<std::_Simple_types<char> > >
_TEXT	ENDS
; Function compile flags: /Odtp /RTCsu /ZI
; File C:\Program Files\Microsoft Visual Studio\2022\Community\VC\Tools\MSVC\14.37.32822\include\xmemory
;	COMDAT ??$_Deallocate@$0BA@$0A@@std@@YAXPEAX_K@Z
_TEXT	SEGMENT
_Ptr$ = 224
_Bytes$ = 232
??$_Deallocate@$0BA@$0A@@std@@YAXPEAX_K@Z PROC		; std::_Deallocate<16,0>, COMDAT

; 252  : _CONSTEXPR20 void _Deallocate(void* _Ptr, size_t _Bytes) noexcept {

$LN4:
  00000	48 89 54 24 10	 mov	 QWORD PTR [rsp+16], rdx
  00005	48 89 4c 24 08	 mov	 QWORD PTR [rsp+8], rcx
  0000a	55		 push	 rbp
  0000b	57		 push	 rdi
  0000c	48 81 ec e8 00
	00 00		 sub	 rsp, 232		; 000000e8H
  00013	48 8d 6c 24 20	 lea	 rbp, QWORD PTR [rsp+32]
  00018	48 8d 0d 00 00
	00 00		 lea	 rcx, OFFSET FLAT:__A594BF75_xmemory
  0001f	e8 00 00 00 00	 call	 __CheckForDebuggerJustMyCode

; 253  :     // deallocate storage allocated by _Allocate when !_HAS_ALIGNED_NEW || _Align <= __STDCPP_DEFAULT_NEW_ALIGNMENT__
; 254  : #if _HAS_CXX20 // TRANSITION, GH-1532
; 255  :     if (_STD is_constant_evaluated()) {
; 256  :         ::operator delete(_Ptr);
; 257  :     } else
; 258  : #endif // _HAS_CXX20
; 259  :     {
; 260  : #if defined(_M_IX86) || defined(_M_X64)
; 261  :         if (_Bytes >= _Big_allocation_threshold) { // boost the alignment of big allocations to help autovectorization

  00024	48 81 bd e8 00
	00 00 00 10 00
	00		 cmp	 QWORD PTR _Bytes$[rbp], 4096 ; 00001000H
  0002f	72 13		 jb	 SHORT $LN2@Deallocate

; 262  :             _Adjust_manually_vector_aligned(_Ptr, _Bytes);

  00031	48 8d 95 e8 00
	00 00		 lea	 rdx, QWORD PTR _Bytes$[rbp]
  00038	48 8d 8d e0 00
	00 00		 lea	 rcx, QWORD PTR _Ptr$[rbp]
  0003f	e8 00 00 00 00	 call	 ?_Adjust_manually_vector_aligned@std@@YAXAEAPEAXAEA_K@Z ; std::_Adjust_manually_vector_aligned
$LN2@Deallocate:

; 263  :         }
; 264  : #endif // defined(_M_IX86) || defined(_M_X64)
; 265  :         ::operator delete(_Ptr, _Bytes);

  00044	48 8b 95 e8 00
	00 00		 mov	 rdx, QWORD PTR _Bytes$[rbp]
  0004b	48 8b 8d e0 00
	00 00		 mov	 rcx, QWORD PTR _Ptr$[rbp]
  00052	e8 00 00 00 00	 call	 ??3@YAXPEAX_K@Z		; operator delete
  00057	90		 npad	 1

; 266  :     }
; 267  : }

  00058	48 8d a5 c8 00
	00 00		 lea	 rsp, QWORD PTR [rbp+200]
  0005f	5f		 pop	 rdi
  00060	5d		 pop	 rbp
  00061	c3		 ret	 0
??$_Deallocate@$0BA@$0A@@std@@YAXPEAX_K@Z ENDP		; std::_Deallocate<16,0>
_TEXT	ENDS
; Function compile flags: /Odtp /RTCsu /ZI
; File C:\Program Files\Microsoft Visual Studio\2022\Community\VC\Tools\MSVC\14.37.32822\include\utility
;	COMDAT ??$max@_K@std@@YAAEB_KAEB_K0@Z
_TEXT	SEGMENT
$T1 = 200
tv65 = 216
_Left$ = 256
_Right$ = 264
??$max@_K@std@@YAAEB_KAEB_K0@Z PROC			; std::max<unsigned __int64>, COMDAT

; 45   :     (max) (const _Ty& _Left, const _Ty& _Right) noexcept(noexcept(_Left < _Right)) /* strengthened */ {

$LN5:
  00000	48 89 54 24 10	 mov	 QWORD PTR [rsp+16], rdx
  00005	48 89 4c 24 08	 mov	 QWORD PTR [rsp+8], rcx
  0000a	55		 push	 rbp
  0000b	57		 push	 rdi
  0000c	48 81 ec 08 01
	00 00		 sub	 rsp, 264		; 00000108H
  00013	48 8d 6c 24 20	 lea	 rbp, QWORD PTR [rsp+32]
  00018	48 8d 0d 00 00
	00 00		 lea	 rcx, OFFSET FLAT:__CF01DCB6_utility
  0001f	e8 00 00 00 00	 call	 __CheckForDebuggerJustMyCode

; 46   :     // return larger of _Left and _Right
; 47   :     return _Left < _Right ? _Right : _Left;

  00024	48 8b 85 00 01
	00 00		 mov	 rax, QWORD PTR _Left$[rbp]
  0002b	48 8b 8d 08 01
	00 00		 mov	 rcx, QWORD PTR _Right$[rbp]
  00032	48 8b 09	 mov	 rcx, QWORD PTR [rcx]
  00035	48 39 08	 cmp	 QWORD PTR [rax], rcx
  00038	73 10		 jae	 SHORT $LN3@max
  0003a	48 8b 85 08 01
	00 00		 mov	 rax, QWORD PTR _Right$[rbp]
  00041	48 89 85 d8 00
	00 00		 mov	 QWORD PTR tv65[rbp], rax
  00048	eb 0e		 jmp	 SHORT $LN4@max
$LN3@max:
  0004a	48 8b 85 00 01
	00 00		 mov	 rax, QWORD PTR _Left$[rbp]
  00051	48 89 85 d8 00
	00 00		 mov	 QWORD PTR tv65[rbp], rax
$LN4@max:
  00058	48 8b 85 d8 00
	00 00		 mov	 rax, QWORD PTR tv65[rbp]
  0005f	48 89 85 c8 00
	00 00		 mov	 QWORD PTR $T1[rbp], rax
  00066	48 8b 85 c8 00
	00 00		 mov	 rax, QWORD PTR $T1[rbp]

; 48   : }

  0006d	48 8d a5 e8 00
	00 00		 lea	 rsp, QWORD PTR [rbp+232]
  00074	5f		 pop	 rdi
  00075	5d		 pop	 rbp
  00076	c3		 ret	 0
??$max@_K@std@@YAAEB_KAEB_K0@Z ENDP			; std::max<unsigned __int64>
_TEXT	ENDS
; Function compile flags: /Odtp /RTCsu /ZI
; File C:\Program Files\Microsoft Visual Studio\2022\Community\VC\Tools\MSVC\14.37.32822\include\xmemory
;	COMDAT ??$_Unfancy@D@std@@YAPEADPEAD@Z
_TEXT	SEGMENT
_Ptr$ = 224
??$_Unfancy@D@std@@YAPEADPEAD@Z PROC			; std::_Unfancy<char>, COMDAT

; 36   : _NODISCARD constexpr _Ty* _Unfancy(_Ty* _Ptr) noexcept { // do nothing for plain pointers

$LN3:
  00000	48 89 4c 24 08	 mov	 QWORD PTR [rsp+8], rcx
  00005	55		 push	 rbp
  00006	57		 push	 rdi
  00007	48 81 ec e8 00
	00 00		 sub	 rsp, 232		; 000000e8H
  0000e	48 8d 6c 24 20	 lea	 rbp, QWORD PTR [rsp+32]
  00013	48 8d 0d 00 00
	00 00		 lea	 rcx, OFFSET FLAT:__A594BF75_xmemory
  0001a	e8 00 00 00 00	 call	 __CheckForDebuggerJustMyCode

; 37   :     return _Ptr;

  0001f	48 8b 85 e0 00
	00 00		 mov	 rax, QWORD PTR _Ptr$[rbp]

; 38   : }

  00026	48 8d a5 c8 00
	00 00		 lea	 rsp, QWORD PTR [rbp+200]
  0002d	5f		 pop	 rdi
  0002e	5d		 pop	 rbp
  0002f	c3		 ret	 0
??$_Unfancy@D@std@@YAPEADPEAD@Z ENDP			; std::_Unfancy<char>
_TEXT	ENDS
; Function compile flags: /Odtp /RTCsu /ZI
; File C:\Program Files\Microsoft Visual Studio\2022\Community\VC\Tools\MSVC\14.37.32822\include\xmemory
;	COMDAT ??$?0AEBV?$allocator@D@std@@$$V@?$_Compressed_pair@V?$allocator@D@std@@V?$_String_val@U?$_Simple_types@D@std@@@2@$00@std@@QEAA@U_One_then_variadic_args_t@1@AEBV?$allocator@D@1@@Z
_TEXT	SEGMENT
this$ = 224
__formal$ = 232
_Val1$ = 240
??$?0AEBV?$allocator@D@std@@$$V@?$_Compressed_pair@V?$allocator@D@std@@V?$_String_val@U?$_Simple_types@D@std@@@2@$00@std@@QEAA@U_One_then_variadic_args_t@1@AEBV?$allocator@D@1@@Z PROC ; std::_Compressed_pair<std::allocator<char>,std::_String_val<std::_Simple_types<char> >,1>::_Compressed_pair<std::allocator<char>,std::_String_val<std::_Simple_types<char> >,1><std::allocator<char> const &>, COMDAT

; 1520 :         : _Ty1(_STD forward<_Other1>(_Val1)), _Myval2(_STD forward<_Other2>(_Val2)...) {}

$LN3:
  00000	4c 89 44 24 18	 mov	 QWORD PTR [rsp+24], r8
  00005	88 54 24 10	 mov	 BYTE PTR [rsp+16], dl
  00009	48 89 4c 24 08	 mov	 QWORD PTR [rsp+8], rcx
  0000e	55		 push	 rbp
  0000f	57		 push	 rdi
  00010	48 81 ec e8 00
	00 00		 sub	 rsp, 232		; 000000e8H
  00017	48 8d 6c 24 20	 lea	 rbp, QWORD PTR [rsp+32]
  0001c	48 8d 0d 00 00
	00 00		 lea	 rcx, OFFSET FLAT:__A594BF75_xmemory
  00023	e8 00 00 00 00	 call	 __CheckForDebuggerJustMyCode
  00028	48 8b 85 e0 00
	00 00		 mov	 rax, QWORD PTR this$[rbp]
  0002f	48 8b c8	 mov	 rcx, rax
  00032	e8 00 00 00 00	 call	 ??0?$_String_val@U?$_Simple_types@D@std@@@std@@QEAA@XZ ; std::_String_val<std::_Simple_types<char> >::_String_val<std::_Simple_types<char> >
  00037	48 8b 85 e0 00
	00 00		 mov	 rax, QWORD PTR this$[rbp]
  0003e	48 8d a5 c8 00
	00 00		 lea	 rsp, QWORD PTR [rbp+200]
  00045	5f		 pop	 rdi
  00046	5d		 pop	 rbp
  00047	c3		 ret	 0
??$?0AEBV?$allocator@D@std@@$$V@?$_Compressed_pair@V?$allocator@D@std@@V?$_String_val@U?$_Simple_types@D@std@@@2@$00@std@@QEAA@U_One_then_variadic_args_t@1@AEBV?$allocator@D@1@@Z ENDP ; std::_Compressed_pair<std::allocator<char>,std::_String_val<std::_Simple_types<char> >,1>::_Compressed_pair<std::allocator<char>,std::_String_val<std::_Simple_types<char> >,1><std::allocator<char> const &>
_TEXT	ENDS
; Function compile flags: /Odtp /RTCsu /ZI
; File C:\Program Files\Microsoft Visual Studio\2022\Community\VC\Tools\MSVC\14.37.32822\include\xutility
;	COMDAT ??$_Construct_in_place@PEADAEAPEAD@std@@YAXAEAPEAD0@Z
_TEXT	SEGMENT
$T1 = 200
_Obj$ = 256
<_Args_0>$ = 264
??$_Construct_in_place@PEADAEAPEAD@std@@YAXAEAPEAD0@Z PROC ; std::_Construct_in_place<char *,char * &>, COMDAT

; 247  :     is_nothrow_constructible_v<_Ty, _Types...>) {

$LN3:
  00000	48 89 54 24 10	 mov	 QWORD PTR [rsp+16], rdx
  00005	48 89 4c 24 08	 mov	 QWORD PTR [rsp+8], rcx
  0000a	55		 push	 rbp
  0000b	57		 push	 rdi
  0000c	48 81 ec 08 01
	00 00		 sub	 rsp, 264		; 00000108H
  00013	48 8d 6c 24 20	 lea	 rbp, QWORD PTR [rsp+32]
  00018	48 8d 0d 00 00
	00 00		 lea	 rcx, OFFSET FLAT:__D740E0F1_xutility
  0001f	e8 00 00 00 00	 call	 __CheckForDebuggerJustMyCode

; 248  : #if _HAS_CXX20
; 249  :     if (_STD is_constant_evaluated()) {
; 250  :         _STD construct_at(_STD addressof(_Obj), _STD forward<_Types>(_Args)...);
; 251  :     } else
; 252  : #endif // _HAS_CXX20
; 253  :     {
; 254  :         ::new (static_cast<void*>(_STD addressof(_Obj))) _Ty(_STD forward<_Types>(_Args)...);

  00024	48 8b 8d 00 01
	00 00		 mov	 rcx, QWORD PTR _Obj$[rbp]
  0002b	e8 00 00 00 00	 call	 ??$addressof@PEAD@std@@YAPEAPEADAEAPEAD@Z ; std::addressof<char *>
  00030	48 8b d0	 mov	 rdx, rax
  00033	b9 08 00 00 00	 mov	 ecx, 8
  00038	e8 00 00 00 00	 call	 ??2@YAPEAX_KPEAX@Z	; operator new
  0003d	48 89 85 c8 00
	00 00		 mov	 QWORD PTR $T1[rbp], rax
  00044	48 8b 85 c8 00
	00 00		 mov	 rax, QWORD PTR $T1[rbp]
  0004b	48 8b 8d 08 01
	00 00		 mov	 rcx, QWORD PTR <_Args_0>$[rbp]
  00052	48 8b 09	 mov	 rcx, QWORD PTR [rcx]
  00055	48 89 08	 mov	 QWORD PTR [rax], rcx

; 255  :     }
; 256  : }

  00058	48 8d a5 e8 00
	00 00		 lea	 rsp, QWORD PTR [rbp+232]
  0005f	5f		 pop	 rdi
  00060	5d		 pop	 rbp
  00061	c3		 ret	 0
??$_Construct_in_place@PEADAEAPEAD@std@@YAXAEAPEAD0@Z ENDP ; std::_Construct_in_place<char *,char * &>
_TEXT	ENDS
; Function compile flags: /Odtp /RTCsu /ZI
; File C:\Program Files\Microsoft Visual Studio\2022\Community\VC\Tools\MSVC\14.37.32822\include\xstring
;	COMDAT ??$_Reallocate_grow_by@V<lambda_1>@?1??push_back@?$basic_string@DU?$char_traits@D@std@@V?$allocator@D@2@@std@@QEAAXD@Z@D@?$basic_string@DU?$char_traits@D@std@@V?$allocator@D@2@@std@@AEAAAEAV01@_KV<lambda_1>@?1??push_back@01@QEAAXD@Z@D@Z
_TEXT	SEGMENT
_My_data$ = 8
_Old_size$ = 40
_New_size$ = 72
_Old_capacity$ = 104
_New_capacity$ = 136
_Al$ = 168
_New_ptr$ = 200
_Raw_new$ = 232
_Old_ptr$4 = 264
tv85 = 472
__$ArrayPad$ = 480
this$ = 528
_Size_increase$ = 536
_Fn$ = 544
<_Args_0>$ = 552
??$_Reallocate_grow_by@V<lambda_1>@?1??push_back@?$basic_string@DU?$char_traits@D@std@@V?$allocator@D@2@@std@@QEAAXD@Z@D@?$basic_string@DU?$char_traits@D@std@@V?$allocator@D@2@@std@@AEAAAEAV01@_KV<lambda_1>@?1??push_back@01@QEAAXD@Z@D@Z PROC ; std::basic_string<char,std::char_traits<char>,std::allocator<char> >::_Reallocate_grow_by<`std::basic_string<char,std::char_traits<char>,std::allocator<char> >::push_back'::`2'::<lambda_1>,char>, COMDAT

; 4761 :     _CONSTEXPR20 basic_string& _Reallocate_grow_by(const size_type _Size_increase, _Fty _Fn, _ArgTys... _Args) {

$LN6:
  00000	44 88 4c 24 20	 mov	 BYTE PTR [rsp+32], r9b
  00005	44 88 44 24 18	 mov	 BYTE PTR [rsp+24], r8b
  0000a	48 89 54 24 10	 mov	 QWORD PTR [rsp+16], rdx
  0000f	48 89 4c 24 08	 mov	 QWORD PTR [rsp+8], rcx
  00014	55		 push	 rbp
  00015	57		 push	 rdi
  00016	48 81 ec 28 02
	00 00		 sub	 rsp, 552		; 00000228H
  0001d	48 8d 6c 24 30	 lea	 rbp, QWORD PTR [rsp+48]
  00022	48 8d 7c 24 30	 lea	 rdi, QWORD PTR [rsp+48]
  00027	b9 4e 00 00 00	 mov	 ecx, 78			; 0000004eH
  0002c	b8 cc cc cc cc	 mov	 eax, -858993460		; ccccccccH
  00031	f3 ab		 rep stosd
  00033	48 8b 8c 24 48
	02 00 00	 mov	 rcx, QWORD PTR [rsp+584]
  0003b	48 8b 05 00 00
	00 00		 mov	 rax, QWORD PTR __security_cookie
  00042	48 33 c5	 xor	 rax, rbp
  00045	48 89 85 e0 01
	00 00		 mov	 QWORD PTR __$ArrayPad$[rbp], rax
  0004c	48 8d 0d 00 00
	00 00		 lea	 rcx, OFFSET FLAT:__D14739E9_xstring
  00053	e8 00 00 00 00	 call	 __CheckForDebuggerJustMyCode

; 4762 :         // reallocate to increase size by _Size_increase elements, new buffer prepared by
; 4763 :         // _Fn(_New_ptr, _Old_ptr, _Old_size, _Args...)
; 4764 :         auto& _My_data            = _Mypair._Myval2;

  00058	48 8b 85 10 02
	00 00		 mov	 rax, QWORD PTR this$[rbp]
  0005f	48 89 45 08	 mov	 QWORD PTR _My_data$[rbp], rax

; 4765 :         const size_type _Old_size = _My_data._Mysize;

  00063	48 8b 45 08	 mov	 rax, QWORD PTR _My_data$[rbp]
  00067	48 8b 40 18	 mov	 rax, QWORD PTR [rax+24]
  0006b	48 89 45 28	 mov	 QWORD PTR _Old_size$[rbp], rax

; 4766 :         if (max_size() - _Old_size < _Size_increase) {

  0006f	48 8b 8d 10 02
	00 00		 mov	 rcx, QWORD PTR this$[rbp]
  00076	e8 00 00 00 00	 call	 ?max_size@?$basic_string@DU?$char_traits@D@std@@V?$allocator@D@2@@std@@QEBA_KXZ ; std::basic_string<char,std::char_traits<char>,std::allocator<char> >::max_size
  0007b	48 2b 45 28	 sub	 rax, QWORD PTR _Old_size$[rbp]
  0007f	48 3b 85 18 02
	00 00		 cmp	 rax, QWORD PTR _Size_increase$[rbp]
  00086	73 05		 jae	 SHORT $LN2@Reallocate

; 4767 :             _Xlen_string(); // result too long

  00088	e8 00 00 00 00	 call	 ?_Xlen_string@std@@YAXXZ ; std::_Xlen_string
$LN2@Reallocate:

; 4768 :         }
; 4769 : 
; 4770 :         const size_type _New_size     = _Old_size + _Size_increase;

  0008d	48 8b 85 18 02
	00 00		 mov	 rax, QWORD PTR _Size_increase$[rbp]
  00094	48 8b 4d 28	 mov	 rcx, QWORD PTR _Old_size$[rbp]
  00098	48 03 c8	 add	 rcx, rax
  0009b	48 8b c1	 mov	 rax, rcx
  0009e	48 89 45 48	 mov	 QWORD PTR _New_size$[rbp], rax

; 4771 :         const size_type _Old_capacity = _My_data._Myres;

  000a2	48 8b 45 08	 mov	 rax, QWORD PTR _My_data$[rbp]
  000a6	48 8b 40 20	 mov	 rax, QWORD PTR [rax+32]
  000aa	48 89 45 68	 mov	 QWORD PTR _Old_capacity$[rbp], rax

; 4772 :         const size_type _New_capacity = _Calculate_growth(_New_size);

  000ae	48 8b 55 48	 mov	 rdx, QWORD PTR _New_size$[rbp]
  000b2	48 8b 8d 10 02
	00 00		 mov	 rcx, QWORD PTR this$[rbp]
  000b9	e8 00 00 00 00	 call	 ?_Calculate_growth@?$basic_string@DU?$char_traits@D@std@@V?$allocator@D@2@@std@@AEBA_K_K@Z ; std::basic_string<char,std::char_traits<char>,std::allocator<char> >::_Calculate_growth
  000be	48 89 85 88 00
	00 00		 mov	 QWORD PTR _New_capacity$[rbp], rax

; 4773 :         auto& _Al                     = _Getal();

  000c5	48 8b 8d 10 02
	00 00		 mov	 rcx, QWORD PTR this$[rbp]
  000cc	e8 00 00 00 00	 call	 ?_Getal@?$basic_string@DU?$char_traits@D@std@@V?$allocator@D@2@@std@@AEAAAEAV?$allocator@D@2@XZ ; std::basic_string<char,std::char_traits<char>,std::allocator<char> >::_Getal
  000d1	48 89 85 a8 00
	00 00		 mov	 QWORD PTR _Al$[rbp], rax

; 4774 :         const pointer _New_ptr        = _Al.allocate(_New_capacity + 1); // throws

  000d8	48 8b 85 88 00
	00 00		 mov	 rax, QWORD PTR _New_capacity$[rbp]
  000df	48 ff c0	 inc	 rax
  000e2	48 8b d0	 mov	 rdx, rax
  000e5	48 8b 8d a8 00
	00 00		 mov	 rcx, QWORD PTR _Al$[rbp]
  000ec	e8 00 00 00 00	 call	 ?allocate@?$allocator@D@std@@QEAAPEAD_K@Z ; std::allocator<char>::allocate
  000f1	48 89 85 c8 00
	00 00		 mov	 QWORD PTR _New_ptr$[rbp], rax

; 4775 : 
; 4776 :         _Start_element_lifetimes(_Unfancy(_New_ptr), _New_capacity + 1);

  000f8	48 8b 85 88 00
	00 00		 mov	 rax, QWORD PTR _New_capacity$[rbp]
  000ff	48 ff c0	 inc	 rax
  00102	48 89 85 d8 01
	00 00		 mov	 QWORD PTR tv85[rbp], rax
  00109	48 8b 8d c8 00
	00 00		 mov	 rcx, QWORD PTR _New_ptr$[rbp]
  00110	e8 00 00 00 00	 call	 ??$_Unfancy@D@std@@YAPEADPEAD@Z ; std::_Unfancy<char>
  00115	48 8b 8d d8 01
	00 00		 mov	 rcx, QWORD PTR tv85[rbp]
  0011c	48 8b d1	 mov	 rdx, rcx
  0011f	48 8b c8	 mov	 rcx, rax
  00122	e8 00 00 00 00	 call	 ?_Start_element_lifetimes@?$basic_string@DU?$char_traits@D@std@@V?$allocator@D@2@@std@@CAXQEAD_K@Z ; std::basic_string<char,std::char_traits<char>,std::allocator<char> >::_Start_element_lifetimes

; 4777 :         _My_data._Orphan_all();

  00127	48 8b 4d 08	 mov	 rcx, QWORD PTR _My_data$[rbp]
  0012b	e8 00 00 00 00	 call	 ?_Orphan_all@_Container_base12@std@@QEAAXXZ ; std::_Container_base12::_Orphan_all

; 4778 :         _ASAN_STRING_REMOVE(*this);
; 4779 :         _My_data._Mysize      = _New_size;

  00130	48 8b 45 08	 mov	 rax, QWORD PTR _My_data$[rbp]
  00134	48 8b 4d 48	 mov	 rcx, QWORD PTR _New_size$[rbp]
  00138	48 89 48 18	 mov	 QWORD PTR [rax+24], rcx

; 4780 :         _My_data._Myres       = _New_capacity;

  0013c	48 8b 45 08	 mov	 rax, QWORD PTR _My_data$[rbp]
  00140	48 8b 8d 88 00
	00 00		 mov	 rcx, QWORD PTR _New_capacity$[rbp]
  00147	48 89 48 20	 mov	 QWORD PTR [rax+32], rcx

; 4781 :         _Elem* const _Raw_new = _Unfancy(_New_ptr);

  0014b	48 8b 8d c8 00
	00 00		 mov	 rcx, QWORD PTR _New_ptr$[rbp]
  00152	e8 00 00 00 00	 call	 ??$_Unfancy@D@std@@YAPEADPEAD@Z ; std::_Unfancy<char>
  00157	48 89 85 e8 00
	00 00		 mov	 QWORD PTR _Raw_new$[rbp], rax

; 4782 :         if (_BUF_SIZE <= _Old_capacity) {

  0015e	48 83 7d 68 10	 cmp	 QWORD PTR _Old_capacity$[rbp], 16
  00163	72 6e		 jb	 SHORT $LN3@Reallocate

; 4783 :             const pointer _Old_ptr = _My_data._Bx._Ptr;

  00165	48 8b 45 08	 mov	 rax, QWORD PTR _My_data$[rbp]
  00169	48 8b 40 08	 mov	 rax, QWORD PTR [rax+8]
  0016d	48 89 85 08 01
	00 00		 mov	 QWORD PTR _Old_ptr$4[rbp], rax

; 4784 :             _Fn(_Raw_new, _Unfancy(_Old_ptr), _Old_size, _Args...);

  00174	48 8b 8d 08 01
	00 00		 mov	 rcx, QWORD PTR _Old_ptr$4[rbp]
  0017b	e8 00 00 00 00	 call	 ??$_Unfancy@D@std@@YAPEADPEAD@Z ; std::_Unfancy<char>
  00180	0f b6 8d 28 02
	00 00		 movzx	 ecx, BYTE PTR <_Args_0>$[rbp]
  00187	88 4c 24 20	 mov	 BYTE PTR [rsp+32], cl
  0018b	4c 8b 4d 28	 mov	 r9, QWORD PTR _Old_size$[rbp]
  0018f	4c 8b c0	 mov	 r8, rax
  00192	48 8b 95 e8 00
	00 00		 mov	 rdx, QWORD PTR _Raw_new$[rbp]
  00199	48 8d 8d 20 02
	00 00		 lea	 rcx, QWORD PTR _Fn$[rbp]
  001a0	e8 00 00 00 00	 call	 ??R<lambda_1>@?1??push_back@?$basic_string@DU?$char_traits@D@std@@V?$allocator@D@2@@std@@QEAAXD@Z@QEBA@QEADQEBD_KD@Z ; `std::basic_string<char,std::char_traits<char>,std::allocator<char> >::push_back'::`2'::<lambda_1>::operator()

; 4785 :             _Al.deallocate(_Old_ptr, _Old_capacity + 1);

  001a5	48 8b 45 68	 mov	 rax, QWORD PTR _Old_capacity$[rbp]
  001a9	48 ff c0	 inc	 rax
  001ac	4c 8b c0	 mov	 r8, rax
  001af	48 8b 95 08 01
	00 00		 mov	 rdx, QWORD PTR _Old_ptr$4[rbp]
  001b6	48 8b 8d a8 00
	00 00		 mov	 rcx, QWORD PTR _Al$[rbp]
  001bd	e8 00 00 00 00	 call	 ?deallocate@?$allocator@D@std@@QEAAXQEAD_K@Z ; std::allocator<char>::deallocate

; 4786 :             _My_data._Bx._Ptr = _New_ptr;

  001c2	48 8b 45 08	 mov	 rax, QWORD PTR _My_data$[rbp]
  001c6	48 8b 8d c8 00
	00 00		 mov	 rcx, QWORD PTR _New_ptr$[rbp]
  001cd	48 89 48 08	 mov	 QWORD PTR [rax+8], rcx

; 4787 :         } else {

  001d1	eb 44		 jmp	 SHORT $LN4@Reallocate
$LN3@Reallocate:

; 4788 :             _Fn(_Raw_new, _My_data._Bx._Buf, _Old_size, _Args...);

  001d3	48 8b 45 08	 mov	 rax, QWORD PTR _My_data$[rbp]
  001d7	48 83 c0 08	 add	 rax, 8
  001db	0f b6 8d 28 02
	00 00		 movzx	 ecx, BYTE PTR <_Args_0>$[rbp]
  001e2	88 4c 24 20	 mov	 BYTE PTR [rsp+32], cl
  001e6	4c 8b 4d 28	 mov	 r9, QWORD PTR _Old_size$[rbp]
  001ea	4c 8b c0	 mov	 r8, rax
  001ed	48 8b 95 e8 00
	00 00		 mov	 rdx, QWORD PTR _Raw_new$[rbp]
  001f4	48 8d 8d 20 02
	00 00		 lea	 rcx, QWORD PTR _Fn$[rbp]
  001fb	e8 00 00 00 00	 call	 ??R<lambda_1>@?1??push_back@?$basic_string@DU?$char_traits@D@std@@V?$allocator@D@2@@std@@QEAAXD@Z@QEBA@QEADQEBD_KD@Z ; `std::basic_string<char,std::char_traits<char>,std::allocator<char> >::push_back'::`2'::<lambda_1>::operator()

; 4789 :             _Construct_in_place(_My_data._Bx._Ptr, _New_ptr);

  00200	48 8b 45 08	 mov	 rax, QWORD PTR _My_data$[rbp]
  00204	48 83 c0 08	 add	 rax, 8
  00208	48 8d 95 c8 00
	00 00		 lea	 rdx, QWORD PTR _New_ptr$[rbp]
  0020f	48 8b c8	 mov	 rcx, rax
  00212	e8 00 00 00 00	 call	 ??$_Construct_in_place@PEADAEBQEAD@std@@YAXAEAPEADAEBQEAD@Z ; std::_Construct_in_place<char *,char * const &>
$LN4@Reallocate:

; 4790 :         }
; 4791 : 
; 4792 :         _ASAN_STRING_CREATE(*this);
; 4793 :         return *this;

  00217	48 8b 85 10 02
	00 00		 mov	 rax, QWORD PTR this$[rbp]
$LN5@Reallocate:

; 4794 :     }

  0021e	48 8b f8	 mov	 rdi, rax
  00221	48 8d 4d d0	 lea	 rcx, QWORD PTR [rbp-48]
  00225	48 8d 15 00 00
	00 00		 lea	 rdx, OFFSET FLAT:??$_Reallocate_grow_by@V<lambda_1>@?1??push_back@?$basic_string@DU?$char_traits@D@std@@V?$allocator@D@2@@std@@QEAAXD@Z@D@?$basic_string@DU?$char_traits@D@std@@V?$allocator@D@2@@std@@AEAAAEAV01@_KV<lambda_1>@?1??push_back@01@QEAAXD@Z@D@Z$rtcFrameData
  0022c	e8 00 00 00 00	 call	 _RTC_CheckStackVars
  00231	48 8b c7	 mov	 rax, rdi
  00234	48 8b 8d e0 01
	00 00		 mov	 rcx, QWORD PTR __$ArrayPad$[rbp]
  0023b	48 33 cd	 xor	 rcx, rbp
  0023e	e8 00 00 00 00	 call	 __security_check_cookie
  00243	48 8d a5 f8 01
	00 00		 lea	 rsp, QWORD PTR [rbp+504]
  0024a	5f		 pop	 rdi
  0024b	5d		 pop	 rbp
  0024c	c3		 ret	 0
??$_Reallocate_grow_by@V<lambda_1>@?1??push_back@?$basic_string@DU?$char_traits@D@std@@V?$allocator@D@2@@std@@QEAAXD@Z@D@?$basic_string@DU?$char_traits@D@std@@V?$allocator@D@2@@std@@AEAAAEAV01@_KV<lambda_1>@?1??push_back@01@QEAAXD@Z@D@Z ENDP ; std::basic_string<char,std::char_traits<char>,std::allocator<char> >::_Reallocate_grow_by<`std::basic_string<char,std::char_traits<char>,std::allocator<char> >::push_back'::`2'::<lambda_1>,char>
_TEXT	ENDS
; Function compile flags: /Odtp /RTCsu /ZI
; File C:\Program Files\Microsoft Visual Studio\2022\Community\VC\Tools\MSVC\14.37.32822\include\xstring
;	COMDAT ??R<lambda_1>@?1??push_back@?$basic_string@DU?$char_traits@D@std@@V?$allocator@D@2@@std@@QEAAXD@Z@QEBA@QEADQEBD_KD@Z
_TEXT	SEGMENT
$T1 = 196
this$ = 256
_New_ptr$ = 264
_Old_ptr$ = 272
_Old_size$ = 280
_Ch$ = 288
??R<lambda_1>@?1??push_back@?$basic_string@DU?$char_traits@D@std@@V?$allocator@D@2@@std@@QEAAXD@Z@QEBA@QEADQEBD_KD@Z PROC ; `std::basic_string<char,std::char_traits<char>,std::allocator<char> >::push_back'::`2'::<lambda_1>::operator(), COMDAT

; 4058 :             [](_Elem* const _New_ptr, const _Elem* const _Old_ptr, const size_type _Old_size, const _Elem _Ch) {

$LN3:
  00000	4c 89 4c 24 20	 mov	 QWORD PTR [rsp+32], r9
  00005	4c 89 44 24 18	 mov	 QWORD PTR [rsp+24], r8
  0000a	48 89 54 24 10	 mov	 QWORD PTR [rsp+16], rdx
  0000f	48 89 4c 24 08	 mov	 QWORD PTR [rsp+8], rcx
  00014	55		 push	 rbp
  00015	57		 push	 rdi
  00016	48 81 ec 08 01
	00 00		 sub	 rsp, 264		; 00000108H
  0001d	48 8d 6c 24 20	 lea	 rbp, QWORD PTR [rsp+32]
  00022	48 8d 0d 00 00
	00 00		 lea	 rcx, OFFSET FLAT:__D14739E9_xstring
  00029	e8 00 00 00 00	 call	 __CheckForDebuggerJustMyCode

; 4059 :                 _Traits::copy(_New_ptr, _Old_ptr, _Old_size);

  0002e	4c 8b 85 18 01
	00 00		 mov	 r8, QWORD PTR _Old_size$[rbp]
  00035	48 8b 95 10 01
	00 00		 mov	 rdx, QWORD PTR _Old_ptr$[rbp]
  0003c	48 8b 8d 08 01
	00 00		 mov	 rcx, QWORD PTR _New_ptr$[rbp]
  00043	e8 00 00 00 00	 call	 ?copy@?$_Char_traits@DH@std@@SAPEADQEADQEBD_K@Z ; std::_Char_traits<char,int>::copy

; 4060 :                 _Traits::assign(_New_ptr[_Old_size], _Ch);

  00048	48 8b 85 18 01
	00 00		 mov	 rax, QWORD PTR _Old_size$[rbp]
  0004f	48 8b 8d 08 01
	00 00		 mov	 rcx, QWORD PTR _New_ptr$[rbp]
  00056	48 03 c8	 add	 rcx, rax
  00059	48 8b c1	 mov	 rax, rcx
  0005c	48 8d 95 20 01
	00 00		 lea	 rdx, QWORD PTR _Ch$[rbp]
  00063	48 8b c8	 mov	 rcx, rax
  00066	e8 00 00 00 00	 call	 ?assign@?$_Narrow_char_traits@DH@std@@SAXAEADAEBD@Z ; std::_Narrow_char_traits<char,int>::assign

; 4061 :                 _Traits::assign(_New_ptr[_Old_size + 1], _Elem());

  0006b	c6 85 c4 00 00
	00 00		 mov	 BYTE PTR $T1[rbp], 0
  00072	48 8b 85 08 01
	00 00		 mov	 rax, QWORD PTR _New_ptr$[rbp]
  00079	48 8b 8d 18 01
	00 00		 mov	 rcx, QWORD PTR _Old_size$[rbp]
  00080	48 8d 44 08 01	 lea	 rax, QWORD PTR [rax+rcx+1]
  00085	48 8d 95 c4 00
	00 00		 lea	 rdx, QWORD PTR $T1[rbp]
  0008c	48 8b c8	 mov	 rcx, rax
  0008f	e8 00 00 00 00	 call	 ?assign@?$_Narrow_char_traits@DH@std@@SAXAEADAEBD@Z ; std::_Narrow_char_traits<char,int>::assign

; 4062 :             },

  00094	48 8d a5 e8 00
	00 00		 lea	 rsp, QWORD PTR [rbp+232]
  0009b	5f		 pop	 rdi
  0009c	5d		 pop	 rbp
  0009d	c3		 ret	 0
??R<lambda_1>@?1??push_back@?$basic_string@DU?$char_traits@D@std@@V?$allocator@D@2@@std@@QEAAXD@Z@QEBA@QEADQEBD_KD@Z ENDP ; `std::basic_string<char,std::char_traits<char>,std::allocator<char> >::push_back'::`2'::<lambda_1>::operator()
_TEXT	ENDS
; Function compile flags: /Odtp /RTCsu /ZI
; File C:\Program Files\Microsoft Visual Studio\2022\Community\VC\Tools\MSVC\14.37.32822\include\xmemory
;	COMDAT ??$_Destroy_in_place@PEAD@std@@YAXAEAPEAD@Z
_TEXT	SEGMENT
_Obj$ = 224
??$_Destroy_in_place@PEAD@std@@YAXAEAPEAD@Z PROC	; std::_Destroy_in_place<char *>, COMDAT

; 304  : _CONSTEXPR20 void _Destroy_in_place(_Ty& _Obj) noexcept {

$LN3:
  00000	48 89 4c 24 08	 mov	 QWORD PTR [rsp+8], rcx
  00005	55		 push	 rbp
  00006	57		 push	 rdi
  00007	48 81 ec e8 00
	00 00		 sub	 rsp, 232		; 000000e8H
  0000e	48 8d 6c 24 20	 lea	 rbp, QWORD PTR [rsp+32]
  00013	48 8d 0d 00 00
	00 00		 lea	 rcx, OFFSET FLAT:__A594BF75_xmemory
  0001a	e8 00 00 00 00	 call	 __CheckForDebuggerJustMyCode

; 305  :     if constexpr (is_array_v<_Ty>) {
; 306  :         _Destroy_range(_Obj, _Obj + extent_v<_Ty>);
; 307  :     } else {
; 308  :         _Obj.~_Ty();
; 309  :     }
; 310  : }

  0001f	48 8d a5 c8 00
	00 00		 lea	 rsp, QWORD PTR [rbp+200]
  00026	5f		 pop	 rdi
  00027	5d		 pop	 rbp
  00028	c3		 ret	 0
??$_Destroy_in_place@PEAD@std@@YAXAEAPEAD@Z ENDP	; std::_Destroy_in_place<char *>
_TEXT	ENDS
; Function compile flags: /Odtp /RTCsu /ZI
; File C:\Program Files\Microsoft Visual Studio\2022\Community\VC\Tools\MSVC\14.37.32822\include\xstring
;	COMDAT ??$_Construct@$00PEBD@?$basic_string@DU?$char_traits@D@std@@V?$allocator@D@2@@std@@AEAAXQEBD_K@Z
_TEXT	SEGMENT
_My_data$ = 8
_Al$ = 40
_Alproxy$ = 72
$S10$ = 100
_Proxy$ = 136
_New_capacity$ = 184
_New_ptr$ = 216
$T6 = 436
$T7 = 468
tv148 = 488
__$ArrayPad$ = 496
this$ = 544
_Arg$ = 552
_Count$ = 560
??$_Construct@$00PEBD@?$basic_string@DU?$char_traits@D@std@@V?$allocator@D@2@@std@@AEAAXQEBD_K@Z PROC ; std::basic_string<char,std::char_traits<char>,std::allocator<char> >::_Construct<1,char const *>, COMDAT

; 2610 :     _CONSTEXPR20 void _Construct(const _Char_or_ptr _Arg, _CRT_GUARDOVERFLOW const size_type _Count) {

$LN7:
  00000	4c 89 44 24 18	 mov	 QWORD PTR [rsp+24], r8
  00005	48 89 54 24 10	 mov	 QWORD PTR [rsp+16], rdx
  0000a	48 89 4c 24 08	 mov	 QWORD PTR [rsp+8], rcx
  0000f	55		 push	 rbp
  00010	57		 push	 rdi
  00011	48 81 ec 28 02
	00 00		 sub	 rsp, 552		; 00000228H
  00018	48 8d 6c 24 20	 lea	 rbp, QWORD PTR [rsp+32]
  0001d	48 8d 7c 24 20	 lea	 rdi, QWORD PTR [rsp+32]
  00022	b9 52 00 00 00	 mov	 ecx, 82			; 00000052H
  00027	b8 cc cc cc cc	 mov	 eax, -858993460		; ccccccccH
  0002c	f3 ab		 rep stosd
  0002e	48 8b 8c 24 48
	02 00 00	 mov	 rcx, QWORD PTR [rsp+584]
  00036	48 8b 05 00 00
	00 00		 mov	 rax, QWORD PTR __security_cookie
  0003d	48 33 c5	 xor	 rax, rbp
  00040	48 89 85 f0 01
	00 00		 mov	 QWORD PTR __$ArrayPad$[rbp], rax
  00047	48 8d 0d 00 00
	00 00		 lea	 rcx, OFFSET FLAT:__D14739E9_xstring
  0004e	e8 00 00 00 00	 call	 __CheckForDebuggerJustMyCode

; 2611 :         auto& _My_data = _Mypair._Myval2;

  00053	48 8b 85 20 02
	00 00		 mov	 rax, QWORD PTR this$[rbp]
  0005a	48 89 45 08	 mov	 QWORD PTR _My_data$[rbp], rax

; 2612 :         _STL_INTERNAL_CHECK(!_My_data._Large_string_engaged());
; 2613 : 
; 2614 :         if constexpr (_Strat == _Construct_strategy::_From_char) {
; 2615 :             _STL_INTERNAL_STATIC_ASSERT(is_same_v<_Char_or_ptr, _Elem>);
; 2616 :         } else {
; 2617 :             _STL_INTERNAL_STATIC_ASSERT(_Is_elem_cptr<_Char_or_ptr>::value);
; 2618 :         }
; 2619 : 
; 2620 :         if (_Count > max_size()) {

  0005e	48 8b 8d 20 02
	00 00		 mov	 rcx, QWORD PTR this$[rbp]
  00065	e8 00 00 00 00	 call	 ?max_size@?$basic_string@DU?$char_traits@D@std@@V?$allocator@D@2@@std@@QEBA_KXZ ; std::basic_string<char,std::char_traits<char>,std::allocator<char> >::max_size
  0006a	48 39 85 30 02
	00 00		 cmp	 QWORD PTR _Count$[rbp], rax
  00071	76 05		 jbe	 SHORT $LN2@Construct

; 2621 :             _Xlen_string(); // result too long

  00073	e8 00 00 00 00	 call	 ?_Xlen_string@std@@YAXXZ ; std::_Xlen_string
$LN2@Construct:

; 2622 :         }
; 2623 : 
; 2624 :         auto& _Al       = _Getal();

  00078	48 8b 8d 20 02
	00 00		 mov	 rcx, QWORD PTR this$[rbp]
  0007f	e8 00 00 00 00	 call	 ?_Getal@?$basic_string@DU?$char_traits@D@std@@V?$allocator@D@2@@std@@AEAAAEAV?$allocator@D@2@XZ ; std::basic_string<char,std::char_traits<char>,std::allocator<char> >::_Getal
  00084	48 89 45 28	 mov	 QWORD PTR _Al$[rbp], rax

; 2625 :         auto&& _Alproxy = _GET_PROXY_ALLOCATOR(_Alty, _Al);

  00088	48 8b 55 28	 mov	 rdx, QWORD PTR _Al$[rbp]
  0008c	48 8d 4d 64	 lea	 rcx, QWORD PTR $S10$[rbp]
  00090	e8 00 00 00 00	 call	 ??$?0D@?$allocator@U_Container_proxy@std@@@std@@QEAA@AEBV?$allocator@D@1@@Z ; std::allocator<std::_Container_proxy>::allocator<std::_Container_proxy><char>
  00095	48 8d 45 64	 lea	 rax, QWORD PTR $S10$[rbp]
  00099	48 89 45 48	 mov	 QWORD PTR _Alproxy$[rbp], rax

; 2626 :         _Container_proxy_ptr<_Alty> _Proxy(_Alproxy, _My_data);

  0009d	4c 8b 45 08	 mov	 r8, QWORD PTR _My_data$[rbp]
  000a1	48 8b 55 48	 mov	 rdx, QWORD PTR _Alproxy$[rbp]
  000a5	48 8d 8d 88 00
	00 00		 lea	 rcx, QWORD PTR _Proxy$[rbp]
  000ac	e8 00 00 00 00	 call	 ??0?$_Container_proxy_ptr12@V?$allocator@U_Container_proxy@std@@@std@@@std@@QEAA@AEAV?$allocator@U_Container_proxy@std@@@1@AEAU_Container_base12@1@@Z ; std::_Container_proxy_ptr12<std::allocator<std::_Container_proxy> >::_Container_proxy_ptr12<std::allocator<std::_Container_proxy> >
  000b1	90		 npad	 1

; 2627 : 
; 2628 :         if (_Count < _BUF_SIZE) {

  000b2	48 83 bd 30 02
	00 00 10	 cmp	 QWORD PTR _Count$[rbp], 16
  000ba	73 7d		 jae	 SHORT $LN3@Construct

; 2629 :             _My_data._Mysize = _Count;

  000bc	48 8b 45 08	 mov	 rax, QWORD PTR _My_data$[rbp]
  000c0	48 8b 8d 30 02
	00 00		 mov	 rcx, QWORD PTR _Count$[rbp]
  000c7	48 89 48 18	 mov	 QWORD PTR [rax+24], rcx

; 2630 :             _My_data._Myres  = _BUF_SIZE - 1;

  000cb	48 8b 45 08	 mov	 rax, QWORD PTR _My_data$[rbp]
  000cf	48 c7 40 20 0f
	00 00 00	 mov	 QWORD PTR [rax+32], 15

; 2631 : 
; 2632 :             if constexpr (_Strat == _Construct_strategy::_From_char) {
; 2633 :                 _Traits::assign(_My_data._Bx._Buf, _Count, _Arg);
; 2634 :                 _Traits::assign(_My_data._Bx._Buf[_Count], _Elem());
; 2635 :             } else if constexpr (_Strat == _Construct_strategy::_From_ptr) {
; 2636 :                 _Traits::copy(_My_data._Bx._Buf, _Arg, _Count);

  000d7	48 8b 45 08	 mov	 rax, QWORD PTR _My_data$[rbp]
  000db	48 83 c0 08	 add	 rax, 8
  000df	4c 8b 85 30 02
	00 00		 mov	 r8, QWORD PTR _Count$[rbp]
  000e6	48 8b 95 28 02
	00 00		 mov	 rdx, QWORD PTR _Arg$[rbp]
  000ed	48 8b c8	 mov	 rcx, rax
  000f0	e8 00 00 00 00	 call	 ?copy@?$_Char_traits@DH@std@@SAPEADQEADQEBD_K@Z ; std::_Char_traits<char,int>::copy

; 2637 :                 _Traits::assign(_My_data._Bx._Buf[_Count], _Elem());

  000f5	c6 85 b4 01 00
	00 00		 mov	 BYTE PTR $T6[rbp], 0
  000fc	48 8b 45 08	 mov	 rax, QWORD PTR _My_data$[rbp]
  00100	48 8b 8d 30 02
	00 00		 mov	 rcx, QWORD PTR _Count$[rbp]
  00107	48 8d 44 08 08	 lea	 rax, QWORD PTR [rax+rcx+8]
  0010c	48 8d 95 b4 01
	00 00		 lea	 rdx, QWORD PTR $T6[rbp]
  00113	48 8b c8	 mov	 rcx, rax
  00116	e8 00 00 00 00	 call	 ?assign@?$_Narrow_char_traits@DH@std@@SAXAEADAEBD@Z ; std::_Narrow_char_traits<char,int>::assign

; 2638 :             } else { // _Strat == _Construct_strategy::_From_string
; 2639 : #ifdef _INSERT_STRING_ANNOTATION
; 2640 :                 _Traits::copy(_My_data._Bx._Buf, _Arg, _Count + 1);
; 2641 : #else // ^^^ _INSERT_STRING_ANNOTATION / !_INSERT_STRING_ANNOTATION vvv
; 2642 :                 _Traits::copy(_My_data._Bx._Buf, _Arg, _BUF_SIZE);
; 2643 : #endif // !_INSERT_STRING_ANNOTATION
; 2644 :             }
; 2645 : 
; 2646 :             _Proxy._Release();

  0011b	48 8d 8d 88 00
	00 00		 lea	 rcx, QWORD PTR _Proxy$[rbp]
  00122	e8 00 00 00 00	 call	 ?_Release@_Basic_container_proxy_ptr12@std@@QEAAXXZ ; std::_Basic_container_proxy_ptr12::_Release
  00127	90		 npad	 1

; 2647 :             return;

  00128	48 8d 8d 88 00
	00 00		 lea	 rcx, QWORD PTR _Proxy$[rbp]
  0012f	e8 00 00 00 00	 call	 ??1?$_Container_proxy_ptr12@V?$allocator@U_Container_proxy@std@@@std@@@std@@QEAA@XZ ; std::_Container_proxy_ptr12<std::allocator<std::_Container_proxy> >::~_Container_proxy_ptr12<std::allocator<std::_Container_proxy> >
  00134	e9 0b 01 00 00	 jmp	 $LN4@Construct
$LN3@Construct:

; 2648 :         }
; 2649 : 
; 2650 :         _My_data._Myres               = _BUF_SIZE - 1;

  00139	48 8b 45 08	 mov	 rax, QWORD PTR _My_data$[rbp]
  0013d	48 c7 40 20 0f
	00 00 00	 mov	 QWORD PTR [rax+32], 15

; 2651 :         const size_type _New_capacity = _Calculate_growth(_Count);

  00145	48 8b 95 30 02
	00 00		 mov	 rdx, QWORD PTR _Count$[rbp]
  0014c	48 8b 8d 20 02
	00 00		 mov	 rcx, QWORD PTR this$[rbp]
  00153	e8 00 00 00 00	 call	 ?_Calculate_growth@?$basic_string@DU?$char_traits@D@std@@V?$allocator@D@2@@std@@AEBA_K_K@Z ; std::basic_string<char,std::char_traits<char>,std::allocator<char> >::_Calculate_growth
  00158	48 89 85 b8 00
	00 00		 mov	 QWORD PTR _New_capacity$[rbp], rax

; 2652 :         const pointer _New_ptr        = _Al.allocate(_New_capacity + 1); // throws

  0015f	48 8b 85 b8 00
	00 00		 mov	 rax, QWORD PTR _New_capacity$[rbp]
  00166	48 ff c0	 inc	 rax
  00169	48 8b d0	 mov	 rdx, rax
  0016c	48 8b 4d 28	 mov	 rcx, QWORD PTR _Al$[rbp]
  00170	e8 00 00 00 00	 call	 ?allocate@?$allocator@D@std@@QEAAPEAD_K@Z ; std::allocator<char>::allocate
  00175	48 89 85 d8 00
	00 00		 mov	 QWORD PTR _New_ptr$[rbp], rax

; 2653 :         _Construct_in_place(_My_data._Bx._Ptr, _New_ptr);

  0017c	48 8b 45 08	 mov	 rax, QWORD PTR _My_data$[rbp]
  00180	48 83 c0 08	 add	 rax, 8
  00184	48 8d 95 d8 00
	00 00		 lea	 rdx, QWORD PTR _New_ptr$[rbp]
  0018b	48 8b c8	 mov	 rcx, rax
  0018e	e8 00 00 00 00	 call	 ??$_Construct_in_place@PEADAEBQEAD@std@@YAXAEAPEADAEBQEAD@Z ; std::_Construct_in_place<char *,char * const &>

; 2654 : 
; 2655 :         _Start_element_lifetimes(_Unfancy(_New_ptr), _New_capacity + 1);

  00193	48 8b 85 b8 00
	00 00		 mov	 rax, QWORD PTR _New_capacity$[rbp]
  0019a	48 ff c0	 inc	 rax
  0019d	48 89 85 e8 01
	00 00		 mov	 QWORD PTR tv148[rbp], rax
  001a4	48 8b 8d d8 00
	00 00		 mov	 rcx, QWORD PTR _New_ptr$[rbp]
  001ab	e8 00 00 00 00	 call	 ??$_Unfancy@D@std@@YAPEADPEAD@Z ; std::_Unfancy<char>
  001b0	48 8b 8d e8 01
	00 00		 mov	 rcx, QWORD PTR tv148[rbp]
  001b7	48 8b d1	 mov	 rdx, rcx
  001ba	48 8b c8	 mov	 rcx, rax
  001bd	e8 00 00 00 00	 call	 ?_Start_element_lifetimes@?$basic_string@DU?$char_traits@D@std@@V?$allocator@D@2@@std@@CAXQEAD_K@Z ; std::basic_string<char,std::char_traits<char>,std::allocator<char> >::_Start_element_lifetimes

; 2656 : 
; 2657 :         _My_data._Mysize = _Count;

  001c2	48 8b 45 08	 mov	 rax, QWORD PTR _My_data$[rbp]
  001c6	48 8b 8d 30 02
	00 00		 mov	 rcx, QWORD PTR _Count$[rbp]
  001cd	48 89 48 18	 mov	 QWORD PTR [rax+24], rcx

; 2658 :         _My_data._Myres  = _New_capacity;

  001d1	48 8b 45 08	 mov	 rax, QWORD PTR _My_data$[rbp]
  001d5	48 8b 8d b8 00
	00 00		 mov	 rcx, QWORD PTR _New_capacity$[rbp]
  001dc	48 89 48 20	 mov	 QWORD PTR [rax+32], rcx

; 2659 :         if constexpr (_Strat == _Construct_strategy::_From_char) {
; 2660 :             _Traits::assign(_Unfancy(_New_ptr), _Count, _Arg);
; 2661 :             _Traits::assign(_Unfancy(_New_ptr)[_Count], _Elem());
; 2662 :         } else if constexpr (_Strat == _Construct_strategy::_From_ptr) {
; 2663 :             _Traits::copy(_Unfancy(_New_ptr), _Arg, _Count);

  001e0	48 8b 8d d8 00
	00 00		 mov	 rcx, QWORD PTR _New_ptr$[rbp]
  001e7	e8 00 00 00 00	 call	 ??$_Unfancy@D@std@@YAPEADPEAD@Z ; std::_Unfancy<char>
  001ec	4c 8b 85 30 02
	00 00		 mov	 r8, QWORD PTR _Count$[rbp]
  001f3	48 8b 95 28 02
	00 00		 mov	 rdx, QWORD PTR _Arg$[rbp]
  001fa	48 8b c8	 mov	 rcx, rax
  001fd	e8 00 00 00 00	 call	 ?copy@?$_Char_traits@DH@std@@SAPEADQEADQEBD_K@Z ; std::_Char_traits<char,int>::copy

; 2664 :             _Traits::assign(_Unfancy(_New_ptr)[_Count], _Elem());

  00202	c6 85 d4 01 00
	00 00		 mov	 BYTE PTR $T7[rbp], 0
  00209	48 8b 8d d8 00
	00 00		 mov	 rcx, QWORD PTR _New_ptr$[rbp]
  00210	e8 00 00 00 00	 call	 ??$_Unfancy@D@std@@YAPEADPEAD@Z ; std::_Unfancy<char>
  00215	48 03 85 30 02
	00 00		 add	 rax, QWORD PTR _Count$[rbp]
  0021c	48 8d 95 d4 01
	00 00		 lea	 rdx, QWORD PTR $T7[rbp]
  00223	48 8b c8	 mov	 rcx, rax
  00226	e8 00 00 00 00	 call	 ?assign@?$_Narrow_char_traits@DH@std@@SAXAEADAEBD@Z ; std::_Narrow_char_traits<char,int>::assign

; 2665 :         } else { // _Strat == _Construct_strategy::_From_string
; 2666 :             _Traits::copy(_Unfancy(_New_ptr), _Arg, _Count + 1);
; 2667 :         }
; 2668 : 
; 2669 :         _ASAN_STRING_CREATE(*this);
; 2670 :         _Proxy._Release();

  0022b	48 8d 8d 88 00
	00 00		 lea	 rcx, QWORD PTR _Proxy$[rbp]
  00232	e8 00 00 00 00	 call	 ?_Release@_Basic_container_proxy_ptr12@std@@QEAAXXZ ; std::_Basic_container_proxy_ptr12::_Release
  00237	90		 npad	 1

; 2671 :     }

  00238	48 8d 8d 88 00
	00 00		 lea	 rcx, QWORD PTR _Proxy$[rbp]
  0023f	e8 00 00 00 00	 call	 ??1?$_Container_proxy_ptr12@V?$allocator@U_Container_proxy@std@@@std@@@std@@QEAA@XZ ; std::_Container_proxy_ptr12<std::allocator<std::_Container_proxy> >::~_Container_proxy_ptr12<std::allocator<std::_Container_proxy> >
$LN4@Construct:
  00244	48 8d 4d e0	 lea	 rcx, QWORD PTR [rbp-32]
  00248	48 8d 15 00 00
	00 00		 lea	 rdx, OFFSET FLAT:??$_Construct@$00PEBD@?$basic_string@DU?$char_traits@D@std@@V?$allocator@D@2@@std@@AEAAXQEBD_K@Z$rtcFrameData
  0024f	e8 00 00 00 00	 call	 _RTC_CheckStackVars
  00254	48 8b 8d f0 01
	00 00		 mov	 rcx, QWORD PTR __$ArrayPad$[rbp]
  0025b	48 33 cd	 xor	 rcx, rbp
  0025e	e8 00 00 00 00	 call	 __security_check_cookie
  00263	48 8d a5 08 02
	00 00		 lea	 rsp, QWORD PTR [rbp+520]
  0026a	5f		 pop	 rdi
  0026b	5d		 pop	 rbp
  0026c	c3		 ret	 0
$LN6@Construct:
??$_Construct@$00PEBD@?$basic_string@DU?$char_traits@D@std@@V?$allocator@D@2@@std@@AEAAXQEBD_K@Z ENDP ; std::basic_string<char,std::char_traits<char>,std::allocator<char> >::_Construct<1,char const *>
_TEXT	ENDS
; Function compile flags: /Odtp /RTCsu /ZI
;	COMDAT text$x
text$x	SEGMENT
_My_data$ = 8
_Al$ = 40
_Alproxy$ = 72
$S10$ = 100
_Proxy$ = 136
_New_capacity$ = 184
_New_ptr$ = 216
$T6 = 436
$T7 = 468
tv148 = 488
__$ArrayPad$ = 496
this$ = 544
_Arg$ = 552
_Count$ = 560
?dtor$0@?0???$_Construct@$00PEBD@?$basic_string@DU?$char_traits@D@std@@V?$allocator@D@2@@std@@AEAAXQEBD_K@Z@4HA PROC ; `std::basic_string<char,std::char_traits<char>,std::allocator<char> >::_Construct<1,char const *>'::`1'::dtor$0
  00000	48 89 4c 24 08	 mov	 QWORD PTR [rsp+8], rcx
  00005	48 89 54 24 10	 mov	 QWORD PTR [rsp+16], rdx
  0000a	55		 push	 rbp
  0000b	57		 push	 rdi
  0000c	48 83 ec 28	 sub	 rsp, 40			; 00000028H
  00010	48 8d 6a 20	 lea	 rbp, QWORD PTR [rdx+32]
  00014	48 8d 8d 88 00
	00 00		 lea	 rcx, QWORD PTR _Proxy$[rbp]
  0001b	e8 00 00 00 00	 call	 ??1?$_Container_proxy_ptr12@V?$allocator@U_Container_proxy@std@@@std@@@std@@QEAA@XZ ; std::_Container_proxy_ptr12<std::allocator<std::_Container_proxy> >::~_Container_proxy_ptr12<std::allocator<std::_Container_proxy> >
  00020	48 83 c4 28	 add	 rsp, 40			; 00000028H
  00024	5f		 pop	 rdi
  00025	5d		 pop	 rbp
  00026	c3		 ret	 0
?dtor$0@?0???$_Construct@$00PEBD@?$basic_string@DU?$char_traits@D@std@@V?$allocator@D@2@@std@@AEAAXQEBD_K@Z@4HA ENDP ; `std::basic_string<char,std::char_traits<char>,std::allocator<char> >::_Construct<1,char const *>'::`1'::dtor$0
text$x	ENDS
; Function compile flags: /Odtp /RTCsu /ZI
; File C:\Program Files\Microsoft Visual Studio\2022\Community\VC\Tools\MSVC\14.37.32822\include\xmemory
;	COMDAT ??$?0$$V@?$_Compressed_pair@V?$allocator@D@std@@V?$_String_val@U?$_Simple_types@D@std@@@2@$00@std@@QEAA@U_Zero_then_variadic_args_t@1@@Z
_TEXT	SEGMENT
this$ = 224
__formal$ = 232
??$?0$$V@?$_Compressed_pair@V?$allocator@D@std@@V?$_String_val@U?$_Simple_types@D@std@@@2@$00@std@@QEAA@U_Zero_then_variadic_args_t@1@@Z PROC ; std::_Compressed_pair<std::allocator<char>,std::_String_val<std::_Simple_types<char> >,1>::_Compressed_pair<std::allocator<char>,std::_String_val<std::_Simple_types<char> >,1><>, COMDAT

; 1515 :         : _Ty1(), _Myval2(_STD forward<_Other2>(_Val2)...) {}

$LN3:
  00000	88 54 24 10	 mov	 BYTE PTR [rsp+16], dl
  00004	48 89 4c 24 08	 mov	 QWORD PTR [rsp+8], rcx
  00009	55		 push	 rbp
  0000a	57		 push	 rdi
  0000b	48 81 ec e8 00
	00 00		 sub	 rsp, 232		; 000000e8H
  00012	48 8d 6c 24 20	 lea	 rbp, QWORD PTR [rsp+32]
  00017	48 8d 0d 00 00
	00 00		 lea	 rcx, OFFSET FLAT:__A594BF75_xmemory
  0001e	e8 00 00 00 00	 call	 __CheckForDebuggerJustMyCode
  00023	48 8b 8d e0 00
	00 00		 mov	 rcx, QWORD PTR this$[rbp]
  0002a	e8 00 00 00 00	 call	 ??0?$allocator@D@std@@QEAA@XZ ; std::allocator<char>::allocator<char>
  0002f	48 8b 85 e0 00
	00 00		 mov	 rax, QWORD PTR this$[rbp]
  00036	48 8b c8	 mov	 rcx, rax
  00039	e8 00 00 00 00	 call	 ??0?$_String_val@U?$_Simple_types@D@std@@@std@@QEAA@XZ ; std::_String_val<std::_Simple_types<char> >::_String_val<std::_Simple_types<char> >
  0003e	48 8b 85 e0 00
	00 00		 mov	 rax, QWORD PTR this$[rbp]
  00045	48 8d a5 c8 00
	00 00		 lea	 rsp, QWORD PTR [rbp+200]
  0004c	5f		 pop	 rdi
  0004d	5d		 pop	 rbp
  0004e	c3		 ret	 0
??$?0$$V@?$_Compressed_pair@V?$allocator@D@std@@V?$_String_val@U?$_Simple_types@D@std@@@2@$00@std@@QEAA@U_Zero_then_variadic_args_t@1@@Z ENDP ; std::_Compressed_pair<std::allocator<char>,std::_String_val<std::_Simple_types<char> >,1>::_Compressed_pair<std::allocator<char>,std::_String_val<std::_Simple_types<char> >,1><>
_TEXT	ENDS
; Function compile flags: /Odtp /RTCsu /ZI
; File C:\Program Files\Microsoft Visual Studio\2022\Community\VC\Tools\MSVC\14.37.32822\include\xmemory
;	COMDAT ??$_Pocma@V?$allocator@D@std@@@std@@YAXAEAV?$allocator@D@0@0@Z
_TEXT	SEGMENT
_Left$ = 224
_Right$ = 232
??$_Pocma@V?$allocator@D@std@@@std@@YAXAEAV?$allocator@D@0@0@Z PROC ; std::_Pocma<std::allocator<char> >, COMDAT

; 1066 : _CONSTEXPR20 void _Pocma(_Alloc& _Left, _Alloc& _Right) noexcept { // (maybe) propagate on container move assignment

$LN3:
  00000	48 89 54 24 10	 mov	 QWORD PTR [rsp+16], rdx
  00005	48 89 4c 24 08	 mov	 QWORD PTR [rsp+8], rcx
  0000a	55		 push	 rbp
  0000b	57		 push	 rdi
  0000c	48 81 ec e8 00
	00 00		 sub	 rsp, 232		; 000000e8H
  00013	48 8d 6c 24 20	 lea	 rbp, QWORD PTR [rsp+32]
  00018	48 8d 0d 00 00
	00 00		 lea	 rcx, OFFSET FLAT:__A594BF75_xmemory
  0001f	e8 00 00 00 00	 call	 __CheckForDebuggerJustMyCode

; 1067 :     if constexpr (allocator_traits<_Alloc>::propagate_on_container_move_assignment::value) {
; 1068 :         _Left = _STD move(_Right);
; 1069 :     }
; 1070 : }

  00024	48 8d a5 c8 00
	00 00		 lea	 rsp, QWORD PTR [rbp+200]
  0002b	5f		 pop	 rdi
  0002c	5d		 pop	 rbp
  0002d	c3		 ret	 0
??$_Pocma@V?$allocator@D@std@@@std@@YAXAEAV?$allocator@D@0@0@Z ENDP ; std::_Pocma<std::allocator<char> >
_TEXT	ENDS
; Function compile flags: /Odtp /RTCsu /ZI
; File C:\Program Files\Microsoft Visual Studio\2022\Community\VC\Tools\MSVC\14.37.32822\include\type_traits
;	COMDAT ??$addressof@V?$basic_string@DU?$char_traits@D@std@@V?$allocator@D@2@@std@@@std@@YAPEAV?$basic_string@DU?$char_traits@D@std@@V?$allocator@D@2@@0@AEAV10@@Z
_TEXT	SEGMENT
_Val$ = 224
??$addressof@V?$basic_string@DU?$char_traits@D@std@@V?$allocator@D@2@@std@@@std@@YAPEAV?$basic_string@DU?$char_traits@D@std@@V?$allocator@D@2@@0@AEAV10@@Z PROC ; std::addressof<std::basic_string<char,std::char_traits<char>,std::allocator<char> > >, COMDAT

; 1606 : _NODISCARD constexpr _Ty* addressof(_Ty& _Val) noexcept {

$LN3:
  00000	48 89 4c 24 08	 mov	 QWORD PTR [rsp+8], rcx
  00005	55		 push	 rbp
  00006	57		 push	 rdi
  00007	48 81 ec e8 00
	00 00		 sub	 rsp, 232		; 000000e8H
  0000e	48 8d 6c 24 20	 lea	 rbp, QWORD PTR [rsp+32]
  00013	48 8d 0d 00 00
	00 00		 lea	 rcx, OFFSET FLAT:__7FB6D5C7_type_traits
  0001a	e8 00 00 00 00	 call	 __CheckForDebuggerJustMyCode

; 1607 :     return __builtin_addressof(_Val);

  0001f	48 8b 85 e0 00
	00 00		 mov	 rax, QWORD PTR _Val$[rbp]

; 1608 : }

  00026	48 8d a5 c8 00
	00 00		 lea	 rsp, QWORD PTR [rbp+200]
  0002d	5f		 pop	 rdi
  0002e	5d		 pop	 rbp
  0002f	c3		 ret	 0
??$addressof@V?$basic_string@DU?$char_traits@D@std@@V?$allocator@D@2@@std@@@std@@YAPEAV?$basic_string@DU?$char_traits@D@std@@V?$allocator@D@2@@0@AEAV10@@Z ENDP ; std::addressof<std::basic_string<char,std::char_traits<char>,std::allocator<char> > >
_TEXT	ENDS
; Function compile flags: /Odtp /RTCsu /ZI
; File C:\Program Files\Microsoft Visual Studio\2022\Community\VC\Tools\MSVC\14.37.32822\include\xmemory
;	COMDAT ??$?0D@?$allocator@U_Container_proxy@std@@@std@@QEAA@AEBV?$allocator@D@1@@Z
_TEXT	SEGMENT
this$ = 224
__formal$ = 232
??$?0D@?$allocator@U_Container_proxy@std@@@std@@QEAA@AEBV?$allocator@D@1@@Z PROC ; std::allocator<std::_Container_proxy>::allocator<std::_Container_proxy><char>, COMDAT

; 962  :     constexpr allocator(const allocator<_Other>&) noexcept {}

$LN3:
  00000	48 89 54 24 10	 mov	 QWORD PTR [rsp+16], rdx
  00005	48 89 4c 24 08	 mov	 QWORD PTR [rsp+8], rcx
  0000a	55		 push	 rbp
  0000b	57		 push	 rdi
  0000c	48 81 ec e8 00
	00 00		 sub	 rsp, 232		; 000000e8H
  00013	48 8d 6c 24 20	 lea	 rbp, QWORD PTR [rsp+32]
  00018	48 8d 0d 00 00
	00 00		 lea	 rcx, OFFSET FLAT:__A594BF75_xmemory
  0001f	e8 00 00 00 00	 call	 __CheckForDebuggerJustMyCode
  00024	48 8b 85 e0 00
	00 00		 mov	 rax, QWORD PTR this$[rbp]
  0002b	48 8d a5 c8 00
	00 00		 lea	 rsp, QWORD PTR [rbp+200]
  00032	5f		 pop	 rdi
  00033	5d		 pop	 rbp
  00034	c3		 ret	 0
??$?0D@?$allocator@U_Container_proxy@std@@@std@@QEAA@AEBV?$allocator@D@1@@Z ENDP ; std::allocator<std::_Container_proxy>::allocator<std::_Container_proxy><char>
_TEXT	ENDS
; Function compile flags: /Odtp /RTCsu /ZI
; File C:\Program Files\Microsoft Visual Studio\2022\Community\VC\Tools\MSVC\14.37.32822\include\xmemory
;	COMDAT ??$_Alloc_proxy@V?$allocator@U_Container_proxy@std@@@std@@@_Container_base12@std@@QEAAX$$QEAV?$allocator@U_Container_proxy@std@@@1@@Z
_TEXT	SEGMENT
_New_proxy$ = 8
$T1 = 232
this$ = 288
_Al$ = 296
??$_Alloc_proxy@V?$allocator@U_Container_proxy@std@@@std@@@_Container_base12@std@@QEAAX$$QEAV?$allocator@U_Container_proxy@std@@@1@@Z PROC ; std::_Container_base12::_Alloc_proxy<std::allocator<std::_Container_proxy> >, COMDAT

; 1203 :     _CONSTEXPR20 void _Alloc_proxy(_Alloc&& _Al) {

$LN3:
  00000	48 89 54 24 10	 mov	 QWORD PTR [rsp+16], rdx
  00005	48 89 4c 24 08	 mov	 QWORD PTR [rsp+8], rcx
  0000a	55		 push	 rbp
  0000b	57		 push	 rdi
  0000c	48 81 ec 28 01
	00 00		 sub	 rsp, 296		; 00000128H
  00013	48 8d 6c 24 20	 lea	 rbp, QWORD PTR [rsp+32]
  00018	48 8d 0d 00 00
	00 00		 lea	 rcx, OFFSET FLAT:__A594BF75_xmemory
  0001f	e8 00 00 00 00	 call	 __CheckForDebuggerJustMyCode

; 1204 :         _Container_proxy* const _New_proxy = _Unfancy(_Al.allocate(1));

  00024	ba 01 00 00 00	 mov	 edx, 1
  00029	48 8b 8d 28 01
	00 00		 mov	 rcx, QWORD PTR _Al$[rbp]
  00030	e8 00 00 00 00	 call	 ?allocate@?$allocator@U_Container_proxy@std@@@std@@QEAAPEAU_Container_proxy@2@_K@Z ; std::allocator<std::_Container_proxy>::allocate
  00035	48 8b c8	 mov	 rcx, rax
  00038	e8 00 00 00 00	 call	 ??$_Unfancy@U_Container_proxy@std@@@std@@YAPEAU_Container_proxy@0@PEAU10@@Z ; std::_Unfancy<std::_Container_proxy>
  0003d	48 89 45 08	 mov	 QWORD PTR _New_proxy$[rbp], rax

; 1205 :         _Construct_in_place(*_New_proxy, this);

  00041	48 8b 85 20 01
	00 00		 mov	 rax, QWORD PTR this$[rbp]
  00048	48 89 85 e8 00
	00 00		 mov	 QWORD PTR $T1[rbp], rax
  0004f	48 8d 95 e8 00
	00 00		 lea	 rdx, QWORD PTR $T1[rbp]
  00056	48 8b 4d 08	 mov	 rcx, QWORD PTR _New_proxy$[rbp]
  0005a	e8 00 00 00 00	 call	 ??$_Construct_in_place@U_Container_proxy@std@@PEAU_Container_base12@2@@std@@YAXAEAU_Container_proxy@0@$$QEAPEAU_Container_base12@0@@Z ; std::_Construct_in_place<std::_Container_proxy,std::_Container_base12 *>

; 1206 :         _Myproxy            = _New_proxy;

  0005f	48 8b 85 20 01
	00 00		 mov	 rax, QWORD PTR this$[rbp]
  00066	48 8b 4d 08	 mov	 rcx, QWORD PTR _New_proxy$[rbp]
  0006a	48 89 08	 mov	 QWORD PTR [rax], rcx

; 1207 :         _New_proxy->_Mycont = this;

  0006d	48 8b 45 08	 mov	 rax, QWORD PTR _New_proxy$[rbp]
  00071	48 8b 8d 20 01
	00 00		 mov	 rcx, QWORD PTR this$[rbp]
  00078	48 89 08	 mov	 QWORD PTR [rax], rcx

; 1208 :     }

  0007b	48 8d a5 08 01
	00 00		 lea	 rsp, QWORD PTR [rbp+264]
  00082	5f		 pop	 rdi
  00083	5d		 pop	 rbp
  00084	c3		 ret	 0
??$_Alloc_proxy@V?$allocator@U_Container_proxy@std@@@std@@@_Container_base12@std@@QEAAX$$QEAV?$allocator@U_Container_proxy@std@@@1@@Z ENDP ; std::_Container_base12::_Alloc_proxy<std::allocator<std::_Container_proxy> >
_TEXT	ENDS
; Function compile flags: /Odtp /RTCsu /ZI
; File C:\Program Files\Microsoft Visual Studio\2022\Community\VC\Tools\MSVC\14.37.32822\include\xmemory
;	COMDAT ??$_Delete_plain_internal@V?$allocator@U_Container_proxy@std@@@std@@@std@@YAXAEAV?$allocator@U_Container_proxy@std@@@0@QEAU_Container_proxy@0@@Z
_TEXT	SEGMENT
_Al$ = 224
_Ptr$ = 232
??$_Delete_plain_internal@V?$allocator@U_Container_proxy@std@@@std@@@std@@YAXAEAV?$allocator@U_Container_proxy@std@@@0@QEAU_Container_proxy@0@@Z PROC ; std::_Delete_plain_internal<std::allocator<std::_Container_proxy> >, COMDAT

; 1131 : _CONSTEXPR20 void _Delete_plain_internal(_Alloc& _Al, typename _Alloc::value_type* const _Ptr) noexcept {

$LN3:
  00000	48 89 54 24 10	 mov	 QWORD PTR [rsp+16], rdx
  00005	48 89 4c 24 08	 mov	 QWORD PTR [rsp+8], rcx
  0000a	55		 push	 rbp
  0000b	57		 push	 rdi
  0000c	48 81 ec e8 00
	00 00		 sub	 rsp, 232		; 000000e8H
  00013	48 8d 6c 24 20	 lea	 rbp, QWORD PTR [rsp+32]
  00018	48 8d 0d 00 00
	00 00		 lea	 rcx, OFFSET FLAT:__A594BF75_xmemory
  0001f	e8 00 00 00 00	 call	 __CheckForDebuggerJustMyCode

; 1132 :     // destroy *_Ptr in place, then deallocate _Ptr using _Al; used for internal container types the user didn't name
; 1133 :     using _Ty = typename _Alloc::value_type;
; 1134 :     _Ptr->~_Ty();
; 1135 :     _Deallocate_plain(_Al, _Ptr);

  00024	48 8b 95 e8 00
	00 00		 mov	 rdx, QWORD PTR _Ptr$[rbp]
  0002b	48 8b 8d e0 00
	00 00		 mov	 rcx, QWORD PTR _Al$[rbp]
  00032	e8 00 00 00 00	 call	 ??$_Deallocate_plain@V?$allocator@U_Container_proxy@std@@@std@@@std@@YAXAEAV?$allocator@U_Container_proxy@std@@@0@QEAU_Container_proxy@0@@Z ; std::_Deallocate_plain<std::allocator<std::_Container_proxy> >

; 1136 : }

  00037	48 8d a5 c8 00
	00 00		 lea	 rsp, QWORD PTR [rbp+200]
  0003e	5f		 pop	 rdi
  0003f	5d		 pop	 rbp
  00040	c3		 ret	 0
??$_Delete_plain_internal@V?$allocator@U_Container_proxy@std@@@std@@@std@@YAXAEAV?$allocator@U_Container_proxy@std@@@0@QEAU_Container_proxy@0@@Z ENDP ; std::_Delete_plain_internal<std::allocator<std::_Container_proxy> >
_TEXT	ENDS
; Function compile flags: /Odtp /RTCsu /ZI
; File C:\Program Files\Microsoft Visual Studio\2022\Community\VC\Tools\MSVC\14.37.32822\include\xmemory
;	COMDAT ?allocate@?$allocator@U_Container_proxy@std@@@std@@QEAAPEAU_Container_proxy@2@_K@Z
_TEXT	SEGMENT
this$ = 224
_Count$ = 232
?allocate@?$allocator@U_Container_proxy@std@@@std@@QEAAPEAU_Container_proxy@2@_K@Z PROC ; std::allocator<std::_Container_proxy>::allocate, COMDAT

; 972  :     _NODISCARD_RAW_PTR_ALLOC _CONSTEXPR20 __declspec(allocator) _Ty* allocate(_CRT_GUARDOVERFLOW const size_t _Count) {

$LN3:
  00000	48 89 54 24 10	 mov	 QWORD PTR [rsp+16], rdx
  00005	48 89 4c 24 08	 mov	 QWORD PTR [rsp+8], rcx
  0000a	55		 push	 rbp
  0000b	57		 push	 rdi
  0000c	48 81 ec e8 00
	00 00		 sub	 rsp, 232		; 000000e8H
  00013	48 8d 6c 24 20	 lea	 rbp, QWORD PTR [rsp+32]
  00018	48 8d 0d 00 00
	00 00		 lea	 rcx, OFFSET FLAT:__A594BF75_xmemory
  0001f	e8 00 00 00 00	 call	 __CheckForDebuggerJustMyCode

; 973  :         static_assert(sizeof(value_type) > 0, "value_type must be complete before calling allocate.");
; 974  :         return static_cast<_Ty*>(_Allocate<_New_alignof<_Ty>>(_Get_size_of_n<sizeof(_Ty)>(_Count)));

  00024	48 8b 8d e8 00
	00 00		 mov	 rcx, QWORD PTR _Count$[rbp]
  0002b	e8 00 00 00 00	 call	 ??$_Get_size_of_n@$0BA@@std@@YA_K_K@Z ; std::_Get_size_of_n<16>
  00030	48 8b c8	 mov	 rcx, rax
  00033	e8 00 00 00 00	 call	 ??$_Allocate@$0BA@U_Default_allocate_traits@std@@$0A@@std@@YAPEAX_K@Z ; std::_Allocate<16,std::_Default_allocate_traits,0>

; 975  :     }

  00038	48 8d a5 c8 00
	00 00		 lea	 rsp, QWORD PTR [rbp+200]
  0003f	5f		 pop	 rdi
  00040	5d		 pop	 rbp
  00041	c3		 ret	 0
?allocate@?$allocator@U_Container_proxy@std@@@std@@QEAAPEAU_Container_proxy@2@_K@Z ENDP ; std::allocator<std::_Container_proxy>::allocate
_TEXT	ENDS
; Function compile flags: /Odtp /RTCsu /ZI
; File C:\Program Files\Microsoft Visual Studio\2022\Community\VC\Tools\MSVC\14.37.32822\include\utility
;	COMDAT ??$min@_K@std@@YAAEB_KAEB_K0@Z
_TEXT	SEGMENT
$T1 = 200
tv65 = 216
_Left$ = 256
_Right$ = 264
??$min@_K@std@@YAAEB_KAEB_K0@Z PROC			; std::min<unsigned __int64>, COMDAT

; 68   :     (min) (const _Ty& _Left, const _Ty& _Right) noexcept(noexcept(_Right < _Left)) /* strengthened */ {

$LN5:
  00000	48 89 54 24 10	 mov	 QWORD PTR [rsp+16], rdx
  00005	48 89 4c 24 08	 mov	 QWORD PTR [rsp+8], rcx
  0000a	55		 push	 rbp
  0000b	57		 push	 rdi
  0000c	48 81 ec 08 01
	00 00		 sub	 rsp, 264		; 00000108H
  00013	48 8d 6c 24 20	 lea	 rbp, QWORD PTR [rsp+32]
  00018	48 8d 0d 00 00
	00 00		 lea	 rcx, OFFSET FLAT:__CF01DCB6_utility
  0001f	e8 00 00 00 00	 call	 __CheckForDebuggerJustMyCode

; 69   :     // return smaller of _Left and _Right
; 70   :     return _Right < _Left ? _Right : _Left;

  00024	48 8b 85 08 01
	00 00		 mov	 rax, QWORD PTR _Right$[rbp]
  0002b	48 8b 8d 00 01
	00 00		 mov	 rcx, QWORD PTR _Left$[rbp]
  00032	48 8b 09	 mov	 rcx, QWORD PTR [rcx]
  00035	48 39 08	 cmp	 QWORD PTR [rax], rcx
  00038	73 10		 jae	 SHORT $LN3@min
  0003a	48 8b 85 08 01
	00 00		 mov	 rax, QWORD PTR _Right$[rbp]
  00041	48 89 85 d8 00
	00 00		 mov	 QWORD PTR tv65[rbp], rax
  00048	eb 0e		 jmp	 SHORT $LN4@min
$LN3@min:
  0004a	48 8b 85 00 01
	00 00		 mov	 rax, QWORD PTR _Left$[rbp]
  00051	48 89 85 d8 00
	00 00		 mov	 QWORD PTR tv65[rbp], rax
$LN4@min:
  00058	48 8b 85 d8 00
	00 00		 mov	 rax, QWORD PTR tv65[rbp]
  0005f	48 89 85 c8 00
	00 00		 mov	 QWORD PTR $T1[rbp], rax
  00066	48 8b 85 c8 00
	00 00		 mov	 rax, QWORD PTR $T1[rbp]

; 71   : }

  0006d	48 8d a5 e8 00
	00 00		 lea	 rsp, QWORD PTR [rbp+232]
  00074	5f		 pop	 rdi
  00075	5d		 pop	 rbp
  00076	c3		 ret	 0
??$min@_K@std@@YAAEB_KAEB_K0@Z ENDP			; std::min<unsigned __int64>
_TEXT	ENDS
; Function compile flags: /Odtp /RTCsu /ZI
; File C:\Program Files\Microsoft Visual Studio\2022\Community\VC\Tools\MSVC\14.37.32822\include\ostream
;	COMDAT ??Bsentry@?$basic_ostream@DU?$char_traits@D@std@@@std@@QEBA_NXZ
_TEXT	SEGMENT
this$ = 224
??Bsentry@?$basic_ostream@DU?$char_traits@D@std@@@std@@QEBA_NXZ PROC ; std::basic_ostream<char,std::char_traits<char> >::sentry::operator bool, COMDAT

; 129  :         explicit __CLR_OR_THIS_CALL operator bool() const {

$LN3:
  00000	48 89 4c 24 08	 mov	 QWORD PTR [rsp+8], rcx
  00005	55		 push	 rbp
  00006	57		 push	 rdi
  00007	48 81 ec e8 00
	00 00		 sub	 rsp, 232		; 000000e8H
  0000e	48 8d 6c 24 20	 lea	 rbp, QWORD PTR [rsp+32]
  00013	48 8d 0d 00 00
	00 00		 lea	 rcx, OFFSET FLAT:__1D69971C_ostream
  0001a	e8 00 00 00 00	 call	 __CheckForDebuggerJustMyCode

; 130  :             return _Ok;

  0001f	48 8b 85 e0 00
	00 00		 mov	 rax, QWORD PTR this$[rbp]
  00026	0f b6 40 08	 movzx	 eax, BYTE PTR [rax+8]

; 131  :         }

  0002a	48 8d a5 c8 00
	00 00		 lea	 rsp, QWORD PTR [rbp+200]
  00031	5f		 pop	 rdi
  00032	5d		 pop	 rbp
  00033	c3		 ret	 0
??Bsentry@?$basic_ostream@DU?$char_traits@D@std@@@std@@QEBA_NXZ ENDP ; std::basic_ostream<char,std::char_traits<char> >::sentry::operator bool
_TEXT	ENDS
; Function compile flags: /Odtp /RTCsu /ZI
; File C:\Program Files\Microsoft Visual Studio\2022\Community\VC\Tools\MSVC\14.37.32822\include\ostream
;	COMDAT ??1sentry@?$basic_ostream@DU?$char_traits@D@std@@@std@@QEAA@XZ
_TEXT	SEGMENT
_Zero_uncaught_exceptions$ = 4
tv72 = 212
this$ = 256
??1sentry@?$basic_ostream@DU?$char_traits@D@std@@@std@@QEAA@XZ PROC ; std::basic_ostream<char,std::char_traits<char> >::sentry::~sentry, COMDAT

; 114  :         __CLR_OR_THIS_CALL ~sentry() noexcept {

$LN6:
  00000	48 89 4c 24 08	 mov	 QWORD PTR [rsp+8], rcx
  00005	55		 push	 rbp
  00006	57		 push	 rdi
  00007	48 81 ec 08 01
	00 00		 sub	 rsp, 264		; 00000108H
  0000e	48 8d 6c 24 20	 lea	 rbp, QWORD PTR [rsp+32]
  00013	48 8d 0d 00 00
	00 00		 lea	 rcx, OFFSET FLAT:__1D69971C_ostream
  0001a	e8 00 00 00 00	 call	 __CheckForDebuggerJustMyCode

; 115  : #if !_HAS_EXCEPTIONS
; 116  :             const bool _Zero_uncaught_exceptions = true;
; 117  : #elif _HAS_DEPRECATED_UNCAUGHT_EXCEPTION
; 118  :             const bool _Zero_uncaught_exceptions = !_STD uncaught_exception(); // TRANSITION, ArchivedOS-12000909

  0001f	e8 00 00 00 00	 call	 ?uncaught_exception@std@@YA_NXZ ; std::uncaught_exception
  00024	0f b6 c0	 movzx	 eax, al
  00027	85 c0		 test	 eax, eax
  00029	75 09		 jne	 SHORT $LN4@sentry
  0002b	c6 85 d4 00 00
	00 01		 mov	 BYTE PTR tv72[rbp], 1
  00032	eb 07		 jmp	 SHORT $LN5@sentry
$LN4@sentry:
  00034	c6 85 d4 00 00
	00 00		 mov	 BYTE PTR tv72[rbp], 0
$LN5@sentry:
  0003b	0f b6 85 d4 00
	00 00		 movzx	 eax, BYTE PTR tv72[rbp]
  00042	88 45 04	 mov	 BYTE PTR _Zero_uncaught_exceptions$[rbp], al

; 119  : #else // ^^^ _HAS_DEPRECATED_UNCAUGHT_EXCEPTION / !_HAS_DEPRECATED_UNCAUGHT_EXCEPTION vvv
; 120  :             const bool _Zero_uncaught_exceptions = _STD uncaught_exceptions() == 0;
; 121  : #endif // !_HAS_DEPRECATED_UNCAUGHT_EXCEPTION
; 122  : 
; 123  :             if (_Zero_uncaught_exceptions) {

  00045	0f b6 45 04	 movzx	 eax, BYTE PTR _Zero_uncaught_exceptions$[rbp]
  00049	85 c0		 test	 eax, eax
  0004b	74 10		 je	 SHORT $LN2@sentry

; 124  :                 this->_Myostr._Osfx();

  0004d	48 8b 85 00 01
	00 00		 mov	 rax, QWORD PTR this$[rbp]
  00054	48 8b 08	 mov	 rcx, QWORD PTR [rax]
  00057	ff 15 00 00 00
	00		 call	 QWORD PTR __imp_?_Osfx@?$basic_ostream@DU?$char_traits@D@std@@@std@@QEAAXXZ
$LN2@sentry:

; 125  :             }
; 126  :         }

  0005d	48 8b 8d 00 01
	00 00		 mov	 rcx, QWORD PTR this$[rbp]
  00064	e8 00 00 00 00	 call	 ??1_Sentry_base@?$basic_ostream@DU?$char_traits@D@std@@@std@@QEAA@XZ ; std::basic_ostream<char,std::char_traits<char> >::_Sentry_base::~_Sentry_base
  00069	48 8d a5 e8 00
	00 00		 lea	 rsp, QWORD PTR [rbp+232]
  00070	5f		 pop	 rdi
  00071	5d		 pop	 rbp
  00072	c3		 ret	 0
??1sentry@?$basic_ostream@DU?$char_traits@D@std@@@std@@QEAA@XZ ENDP ; std::basic_ostream<char,std::char_traits<char> >::sentry::~sentry
_TEXT	ENDS
; Function compile flags: /Odtp /RTCsu /ZI
; File C:\Program Files\Microsoft Visual Studio\2022\Community\VC\Tools\MSVC\14.37.32822\include\ostream
;	COMDAT ??0sentry@?$basic_ostream@DU?$char_traits@D@std@@@std@@QEAA@AEAV12@@Z
_TEXT	SEGMENT
_Tied$ = 8
this$ = 256
_Ostr$ = 264
??0sentry@?$basic_ostream@DU?$char_traits@D@std@@@std@@QEAA@AEAV12@@Z PROC ; std::basic_ostream<char,std::char_traits<char> >::sentry::sentry, COMDAT

; 97   :         explicit __CLR_OR_THIS_CALL sentry(basic_ostream& _Ostr) : _Sentry_base(_Ostr) {

$LN7:
  00000	48 89 54 24 10	 mov	 QWORD PTR [rsp+16], rdx
  00005	48 89 4c 24 08	 mov	 QWORD PTR [rsp+8], rcx
  0000a	55		 push	 rbp
  0000b	57		 push	 rdi
  0000c	48 81 ec 08 01
	00 00		 sub	 rsp, 264		; 00000108H
  00013	48 8d 6c 24 20	 lea	 rbp, QWORD PTR [rsp+32]
  00018	48 8d 0d 00 00
	00 00		 lea	 rcx, OFFSET FLAT:__1D69971C_ostream
  0001f	e8 00 00 00 00	 call	 __CheckForDebuggerJustMyCode
  00024	48 8b 95 08 01
	00 00		 mov	 rdx, QWORD PTR _Ostr$[rbp]
  0002b	48 8b 8d 00 01
	00 00		 mov	 rcx, QWORD PTR this$[rbp]
  00032	e8 00 00 00 00	 call	 ??0_Sentry_base@?$basic_ostream@DU?$char_traits@D@std@@@std@@QEAA@AEAV12@@Z ; std::basic_ostream<char,std::char_traits<char> >::_Sentry_base::_Sentry_base
  00037	90		 npad	 1

; 98   :             if (!_Ostr.good()) {

  00038	48 8b 85 08 01
	00 00		 mov	 rax, QWORD PTR _Ostr$[rbp]
  0003f	48 8b 00	 mov	 rax, QWORD PTR [rax]
  00042	48 63 40 04	 movsxd	 rax, DWORD PTR [rax+4]
  00046	48 8b 8d 08 01
	00 00		 mov	 rcx, QWORD PTR _Ostr$[rbp]
  0004d	48 03 c8	 add	 rcx, rax
  00050	48 8b c1	 mov	 rax, rcx
  00053	48 8b c8	 mov	 rcx, rax
  00056	ff 15 00 00 00
	00		 call	 QWORD PTR __imp_?good@ios_base@std@@QEBA_NXZ
  0005c	0f b6 c0	 movzx	 eax, al
  0005f	85 c0		 test	 eax, eax
  00061	75 10		 jne	 SHORT $LN2@sentry

; 99   :                 _Ok = false;

  00063	48 8b 85 00 01
	00 00		 mov	 rax, QWORD PTR this$[rbp]
  0006a	c6 40 08 00	 mov	 BYTE PTR [rax+8], 0

; 100  :                 return;

  0006e	e9 81 00 00 00	 jmp	 $LN1@sentry
$LN2@sentry:

; 101  :             }
; 102  : 
; 103  :             const auto _Tied = _Ostr.tie();

  00073	48 8b 85 08 01
	00 00		 mov	 rax, QWORD PTR _Ostr$[rbp]
  0007a	48 8b 00	 mov	 rax, QWORD PTR [rax]
  0007d	48 63 40 04	 movsxd	 rax, DWORD PTR [rax+4]
  00081	48 8b 8d 08 01
	00 00		 mov	 rcx, QWORD PTR _Ostr$[rbp]
  00088	48 03 c8	 add	 rcx, rax
  0008b	48 8b c1	 mov	 rax, rcx
  0008e	48 8b c8	 mov	 rcx, rax
  00091	ff 15 00 00 00
	00		 call	 QWORD PTR __imp_?tie@?$basic_ios@DU?$char_traits@D@std@@@std@@QEBAPEAV?$basic_ostream@DU?$char_traits@D@std@@@2@XZ
  00097	48 89 45 08	 mov	 QWORD PTR _Tied$[rbp], rax

; 104  :             if (!_Tied || _Tied == &_Ostr) {

  0009b	48 83 7d 08 00	 cmp	 QWORD PTR _Tied$[rbp], 0
  000a0	74 0d		 je	 SHORT $LN4@sentry
  000a2	48 8b 85 08 01
	00 00		 mov	 rax, QWORD PTR _Ostr$[rbp]
  000a9	48 39 45 08	 cmp	 QWORD PTR _Tied$[rbp], rax
  000ad	75 0d		 jne	 SHORT $LN3@sentry
$LN4@sentry:

; 105  :                 _Ok = true;

  000af	48 8b 85 00 01
	00 00		 mov	 rax, QWORD PTR this$[rbp]
  000b6	c6 40 08 01	 mov	 BYTE PTR [rax+8], 1

; 106  :                 return;

  000ba	eb 38		 jmp	 SHORT $LN1@sentry
$LN3@sentry:

; 107  :             }
; 108  : 
; 109  :             _Tied->flush();

  000bc	48 8b 4d 08	 mov	 rcx, QWORD PTR _Tied$[rbp]
  000c0	ff 15 00 00 00
	00		 call	 QWORD PTR __imp_?flush@?$basic_ostream@DU?$char_traits@D@std@@@std@@QEAAAEAV12@XZ

; 110  :             _Ok = _Ostr.good(); // store test only after flushing tie

  000c6	48 8b 85 08 01
	00 00		 mov	 rax, QWORD PTR _Ostr$[rbp]
  000cd	48 8b 00	 mov	 rax, QWORD PTR [rax]
  000d0	48 63 40 04	 movsxd	 rax, DWORD PTR [rax+4]
  000d4	48 8b 8d 08 01
	00 00		 mov	 rcx, QWORD PTR _Ostr$[rbp]
  000db	48 03 c8	 add	 rcx, rax
  000de	48 8b c1	 mov	 rax, rcx
  000e1	48 8b c8	 mov	 rcx, rax
  000e4	ff 15 00 00 00
	00		 call	 QWORD PTR __imp_?good@ios_base@std@@QEBA_NXZ
  000ea	48 8b 8d 00 01
	00 00		 mov	 rcx, QWORD PTR this$[rbp]
  000f1	88 41 08	 mov	 BYTE PTR [rcx+8], al
$LN1@sentry:

; 111  :         }

  000f4	48 8b 85 00 01
	00 00		 mov	 rax, QWORD PTR this$[rbp]
  000fb	48 8d a5 e8 00
	00 00		 lea	 rsp, QWORD PTR [rbp+232]
  00102	5f		 pop	 rdi
  00103	5d		 pop	 rbp
  00104	c3		 ret	 0
??0sentry@?$basic_ostream@DU?$char_traits@D@std@@@std@@QEAA@AEAV12@@Z ENDP ; std::basic_ostream<char,std::char_traits<char> >::sentry::sentry
_TEXT	ENDS
; Function compile flags: /Odtp /RTCsu /ZI
;	COMDAT text$x
text$x	SEGMENT
_Tied$ = 8
this$ = 256
_Ostr$ = 264
?dtor$0@?0???0sentry@?$basic_ostream@DU?$char_traits@D@std@@@std@@QEAA@AEAV12@@Z@4HA PROC ; `std::basic_ostream<char,std::char_traits<char> >::sentry::sentry'::`1'::dtor$0
  00000	48 89 4c 24 08	 mov	 QWORD PTR [rsp+8], rcx
  00005	48 89 54 24 10	 mov	 QWORD PTR [rsp+16], rdx
  0000a	55		 push	 rbp
  0000b	57		 push	 rdi
  0000c	48 83 ec 28	 sub	 rsp, 40			; 00000028H
  00010	48 8d 6a 20	 lea	 rbp, QWORD PTR [rdx+32]
  00014	48 8b 8d 00 01
	00 00		 mov	 rcx, QWORD PTR this$[rbp]
  0001b	e8 00 00 00 00	 call	 ??1_Sentry_base@?$basic_ostream@DU?$char_traits@D@std@@@std@@QEAA@XZ ; std::basic_ostream<char,std::char_traits<char> >::_Sentry_base::~_Sentry_base
  00020	48 83 c4 28	 add	 rsp, 40			; 00000028H
  00024	5f		 pop	 rdi
  00025	5d		 pop	 rbp
  00026	c3		 ret	 0
?dtor$0@?0???0sentry@?$basic_ostream@DU?$char_traits@D@std@@@std@@QEAA@AEAV12@@Z@4HA ENDP ; `std::basic_ostream<char,std::char_traits<char> >::sentry::sentry'::`1'::dtor$0
text$x	ENDS
; Function compile flags: /Odtp /RTCsu /ZI
; File C:\Program Files\Microsoft Visual Studio\2022\Community\VC\Tools\MSVC\14.37.32822\include\ostream
;	COMDAT ??1_Sentry_base@?$basic_ostream@DU?$char_traits@D@std@@@std@@QEAA@XZ
_TEXT	SEGMENT
_Rdbuf$ = 8
tv72 = 216
this$ = 256
??1_Sentry_base@?$basic_ostream@DU?$char_traits@D@std@@@std@@QEAA@XZ PROC ; std::basic_ostream<char,std::char_traits<char> >::_Sentry_base::~_Sentry_base, COMDAT

; 83   :         __CLR_OR_THIS_CALL ~_Sentry_base() noexcept { // destroy after unlocking

$LN4:
  00000	48 89 4c 24 08	 mov	 QWORD PTR [rsp+8], rcx
  00005	55		 push	 rbp
  00006	57		 push	 rdi
  00007	48 81 ec 08 01
	00 00		 sub	 rsp, 264		; 00000108H
  0000e	48 8d 6c 24 20	 lea	 rbp, QWORD PTR [rsp+32]
  00013	48 8d 0d 00 00
	00 00		 lea	 rcx, OFFSET FLAT:__1D69971C_ostream
  0001a	e8 00 00 00 00	 call	 __CheckForDebuggerJustMyCode

; 84   :             const auto _Rdbuf = _Myostr.rdbuf();

  0001f	48 8b 85 00 01
	00 00		 mov	 rax, QWORD PTR this$[rbp]
  00026	48 8b 00	 mov	 rax, QWORD PTR [rax]
  00029	48 89 85 d8 00
	00 00		 mov	 QWORD PTR tv72[rbp], rax
  00030	48 8b 85 d8 00
	00 00		 mov	 rax, QWORD PTR tv72[rbp]
  00037	48 8b 00	 mov	 rax, QWORD PTR [rax]
  0003a	48 63 40 04	 movsxd	 rax, DWORD PTR [rax+4]
  0003e	48 8b 8d d8 00
	00 00		 mov	 rcx, QWORD PTR tv72[rbp]
  00045	48 03 c8	 add	 rcx, rax
  00048	48 8b c1	 mov	 rax, rcx
  0004b	48 8b c8	 mov	 rcx, rax
  0004e	ff 15 00 00 00
	00		 call	 QWORD PTR __imp_?rdbuf@?$basic_ios@DU?$char_traits@D@std@@@std@@QEBAPEAV?$basic_streambuf@DU?$char_traits@D@std@@@2@XZ
  00054	48 89 45 08	 mov	 QWORD PTR _Rdbuf$[rbp], rax

; 85   :             if (_Rdbuf) {

  00058	48 83 7d 08 00	 cmp	 QWORD PTR _Rdbuf$[rbp], 0
  0005d	74 0f		 je	 SHORT $LN2@Sentry_bas

; 86   :                 _Rdbuf->_Unlock();

  0005f	48 8b 45 08	 mov	 rax, QWORD PTR _Rdbuf$[rbp]
  00063	48 8b 00	 mov	 rax, QWORD PTR [rax]
  00066	48 8b 4d 08	 mov	 rcx, QWORD PTR _Rdbuf$[rbp]
  0006a	ff 50 10	 call	 QWORD PTR [rax+16]
  0006d	90		 npad	 1
$LN2@Sentry_bas:

; 87   :             }
; 88   :         }

  0006e	48 8d a5 e8 00
	00 00		 lea	 rsp, QWORD PTR [rbp+232]
  00075	5f		 pop	 rdi
  00076	5d		 pop	 rbp
  00077	c3		 ret	 0
??1_Sentry_base@?$basic_ostream@DU?$char_traits@D@std@@@std@@QEAA@XZ ENDP ; std::basic_ostream<char,std::char_traits<char> >::_Sentry_base::~_Sentry_base
_TEXT	ENDS
; Function compile flags: /Odtp /RTCsu /ZI
; File C:\Program Files\Microsoft Visual Studio\2022\Community\VC\Tools\MSVC\14.37.32822\include\ostream
;	COMDAT ??0_Sentry_base@?$basic_ostream@DU?$char_traits@D@std@@@std@@QEAA@AEAV12@@Z
_TEXT	SEGMENT
_Rdbuf$ = 8
tv73 = 216
this$ = 256
_Ostr$ = 264
??0_Sentry_base@?$basic_ostream@DU?$char_traits@D@std@@@std@@QEAA@AEAV12@@Z PROC ; std::basic_ostream<char,std::char_traits<char> >::_Sentry_base::_Sentry_base, COMDAT

; 76   :         __CLR_OR_THIS_CALL _Sentry_base(basic_ostream& _Ostr) : _Myostr(_Ostr) { // lock the stream buffer, if there

$LN4:
  00000	48 89 54 24 10	 mov	 QWORD PTR [rsp+16], rdx
  00005	48 89 4c 24 08	 mov	 QWORD PTR [rsp+8], rcx
  0000a	55		 push	 rbp
  0000b	57		 push	 rdi
  0000c	48 81 ec 08 01
	00 00		 sub	 rsp, 264		; 00000108H
  00013	48 8d 6c 24 20	 lea	 rbp, QWORD PTR [rsp+32]
  00018	48 8d 0d 00 00
	00 00		 lea	 rcx, OFFSET FLAT:__1D69971C_ostream
  0001f	e8 00 00 00 00	 call	 __CheckForDebuggerJustMyCode
  00024	48 8b 85 00 01
	00 00		 mov	 rax, QWORD PTR this$[rbp]
  0002b	48 8b 8d 08 01
	00 00		 mov	 rcx, QWORD PTR _Ostr$[rbp]
  00032	48 89 08	 mov	 QWORD PTR [rax], rcx

; 77   :             const auto _Rdbuf = _Myostr.rdbuf();

  00035	48 8b 85 00 01
	00 00		 mov	 rax, QWORD PTR this$[rbp]
  0003c	48 8b 00	 mov	 rax, QWORD PTR [rax]
  0003f	48 89 85 d8 00
	00 00		 mov	 QWORD PTR tv73[rbp], rax
  00046	48 8b 85 d8 00
	00 00		 mov	 rax, QWORD PTR tv73[rbp]
  0004d	48 8b 00	 mov	 rax, QWORD PTR [rax]
  00050	48 63 40 04	 movsxd	 rax, DWORD PTR [rax+4]
  00054	48 8b 8d d8 00
	00 00		 mov	 rcx, QWORD PTR tv73[rbp]
  0005b	48 03 c8	 add	 rcx, rax
  0005e	48 8b c1	 mov	 rax, rcx
  00061	48 8b c8	 mov	 rcx, rax
  00064	ff 15 00 00 00
	00		 call	 QWORD PTR __imp_?rdbuf@?$basic_ios@DU?$char_traits@D@std@@@std@@QEBAPEAV?$basic_streambuf@DU?$char_traits@D@std@@@2@XZ
  0006a	48 89 45 08	 mov	 QWORD PTR _Rdbuf$[rbp], rax

; 78   :             if (_Rdbuf) {

  0006e	48 83 7d 08 00	 cmp	 QWORD PTR _Rdbuf$[rbp], 0
  00073	74 0e		 je	 SHORT $LN2@Sentry_bas

; 79   :                 _Rdbuf->_Lock();

  00075	48 8b 45 08	 mov	 rax, QWORD PTR _Rdbuf$[rbp]
  00079	48 8b 00	 mov	 rax, QWORD PTR [rax]
  0007c	48 8b 4d 08	 mov	 rcx, QWORD PTR _Rdbuf$[rbp]
  00080	ff 50 08	 call	 QWORD PTR [rax+8]
$LN2@Sentry_bas:

; 80   :             }
; 81   :         }

  00083	48 8b 85 00 01
	00 00		 mov	 rax, QWORD PTR this$[rbp]
  0008a	48 8d a5 e8 00
	00 00		 lea	 rsp, QWORD PTR [rbp+232]
  00091	5f		 pop	 rdi
  00092	5d		 pop	 rbp
  00093	c3		 ret	 0
??0_Sentry_base@?$basic_ostream@DU?$char_traits@D@std@@@std@@QEAA@AEAV12@@Z ENDP ; std::basic_ostream<char,std::char_traits<char> >::_Sentry_base::_Sentry_base
_TEXT	ENDS
; Function compile flags: /Odtp /RTCsu /ZI
; File C:\Program Files\Microsoft Visual Studio\2022\Community\VC\Tools\MSVC\14.37.32822\include\ostream
;	COMDAT ??$endl@DU?$char_traits@D@std@@@std@@YAAEAV?$basic_ostream@DU?$char_traits@D@std@@@0@AEAV10@@Z
_TEXT	SEGMENT
_Ostr$ = 224
??$endl@DU?$char_traits@D@std@@@std@@YAAEAV?$basic_ostream@DU?$char_traits@D@std@@@0@AEAV10@@Z PROC ; std::endl<char,std::char_traits<char> >, COMDAT

; 1011 :     basic_ostream<_Elem, _Traits>& _Ostr) { // insert newline and flush stream

$LN3:
  00000	48 89 4c 24 08	 mov	 QWORD PTR [rsp+8], rcx
  00005	55		 push	 rbp
  00006	57		 push	 rdi
  00007	48 81 ec e8 00
	00 00		 sub	 rsp, 232		; 000000e8H
  0000e	48 8d 6c 24 20	 lea	 rbp, QWORD PTR [rsp+32]
  00013	48 8d 0d 00 00
	00 00		 lea	 rcx, OFFSET FLAT:__1D69971C_ostream
  0001a	e8 00 00 00 00	 call	 __CheckForDebuggerJustMyCode

; 1012 :     _Ostr.put(_Ostr.widen('\n'));

  0001f	48 8b 85 e0 00
	00 00		 mov	 rax, QWORD PTR _Ostr$[rbp]
  00026	48 8b 00	 mov	 rax, QWORD PTR [rax]
  00029	48 63 40 04	 movsxd	 rax, DWORD PTR [rax+4]
  0002d	48 8b 8d e0 00
	00 00		 mov	 rcx, QWORD PTR _Ostr$[rbp]
  00034	48 03 c8	 add	 rcx, rax
  00037	48 8b c1	 mov	 rax, rcx
  0003a	b2 0a		 mov	 dl, 10
  0003c	48 8b c8	 mov	 rcx, rax
  0003f	ff 15 00 00 00
	00		 call	 QWORD PTR __imp_?widen@?$basic_ios@DU?$char_traits@D@std@@@std@@QEBADD@Z
  00045	0f b6 d0	 movzx	 edx, al
  00048	48 8b 8d e0 00
	00 00		 mov	 rcx, QWORD PTR _Ostr$[rbp]
  0004f	ff 15 00 00 00
	00		 call	 QWORD PTR __imp_?put@?$basic_ostream@DU?$char_traits@D@std@@@std@@QEAAAEAV12@D@Z

; 1013 :     _Ostr.flush();

  00055	48 8b 8d e0 00
	00 00		 mov	 rcx, QWORD PTR _Ostr$[rbp]
  0005c	ff 15 00 00 00
	00		 call	 QWORD PTR __imp_?flush@?$basic_ostream@DU?$char_traits@D@std@@@std@@QEAAAEAV12@XZ

; 1014 :     return _Ostr;

  00062	48 8b 85 e0 00
	00 00		 mov	 rax, QWORD PTR _Ostr$[rbp]

; 1015 : }

  00069	48 8d a5 c8 00
	00 00		 lea	 rsp, QWORD PTR [rbp+200]
  00070	5f		 pop	 rdi
  00071	5d		 pop	 rbp
  00072	c3		 ret	 0
??$endl@DU?$char_traits@D@std@@@std@@YAAEAV?$basic_ostream@DU?$char_traits@D@std@@@0@AEAV10@@Z ENDP ; std::endl<char,std::char_traits<char> >
_TEXT	ENDS
; Function compile flags: /Odtp /RTCsu /ZI
; File C:\Program Files\Microsoft Visual Studio\2022\Community\VC\Tools\MSVC\14.37.32822\include\xstring
;	COMDAT ??$?5DU?$char_traits@D@std@@V?$allocator@D@1@@std@@YAAEAV?$basic_istream@DU?$char_traits@D@std@@@0@AEAV10@AEAV?$basic_string@DU?$char_traits@D@std@@V?$allocator@D@2@@0@@Z
_TEXT	SEGMENT
_State$ = 4
_Changed$ = 36
_Ok$ = 72
_Ctype_fac$5 = 120
_Size$6 = 152
_Meta$7 = 180
$T8 = 408
$T9 = 452
$T10 = 488
tv264 = 500
tv263 = 500
tv262 = 500
tv150 = 504
tv65 = 504
tv259 = 512
__$ArrayPad$ = 520
_Istr$ = 560
_Str$ = 568
??$?5DU?$char_traits@D@std@@V?$allocator@D@1@@std@@YAAEAV?$basic_istream@DU?$char_traits@D@std@@@0@AEAV10@AEAV?$basic_string@DU?$char_traits@D@std@@V?$allocator@D@2@@0@@Z PROC ; std::operator>><char,std::char_traits<char>,std::allocator<char> >, COMDAT

; 5137 :     basic_istream<_Elem, _Traits>& _Istr, basic_string<_Elem, _Traits, _Alloc>& _Str) {

$LN22:
  00000	48 89 54 24 10	 mov	 QWORD PTR [rsp+16], rdx
  00005	48 89 4c 24 08	 mov	 QWORD PTR [rsp+8], rcx
  0000a	55		 push	 rbp
  0000b	57		 push	 rdi
  0000c	48 81 ec 38 02
	00 00		 sub	 rsp, 568		; 00000238H
  00013	48 8d 6c 24 20	 lea	 rbp, QWORD PTR [rsp+32]
  00018	48 8d 7c 24 20	 lea	 rdi, QWORD PTR [rsp+32]
  0001d	b9 56 00 00 00	 mov	 ecx, 86			; 00000056H
  00022	b8 cc cc cc cc	 mov	 eax, -858993460		; ccccccccH
  00027	f3 ab		 rep stosd
  00029	48 8b 8c 24 58
	02 00 00	 mov	 rcx, QWORD PTR [rsp+600]
  00031	48 8b 05 00 00
	00 00		 mov	 rax, QWORD PTR __security_cookie
  00038	48 33 c5	 xor	 rax, rbp
  0003b	48 89 85 08 02
	00 00		 mov	 QWORD PTR __$ArrayPad$[rbp], rax
  00042	48 8d 0d 00 00
	00 00		 lea	 rcx, OFFSET FLAT:__D14739E9_xstring
  00049	e8 00 00 00 00	 call	 __CheckForDebuggerJustMyCode

; 5138 :     using _Myis   = basic_istream<_Elem, _Traits>;
; 5139 :     using _Ctype  = typename _Myis::_Ctype;
; 5140 :     using _Mystr  = basic_string<_Elem, _Traits, _Alloc>;
; 5141 :     using _Mysizt = typename _Mystr::size_type;
; 5142 : 
; 5143 :     typename _Myis::iostate _State = _Myis::goodbit;

  0004e	c7 45 04 00 00
	00 00		 mov	 DWORD PTR _State$[rbp], 0

; 5144 :     bool _Changed                  = false;

  00055	c6 45 24 00	 mov	 BYTE PTR _Changed$[rbp], 0

; 5145 :     const typename _Myis::sentry _Ok(_Istr);

  00059	45 33 c0	 xor	 r8d, r8d
  0005c	48 8b 95 30 02
	00 00		 mov	 rdx, QWORD PTR _Istr$[rbp]
  00063	48 8d 4d 48	 lea	 rcx, QWORD PTR _Ok$[rbp]
  00067	e8 00 00 00 00	 call	 ??0sentry@?$basic_istream@DU?$char_traits@D@std@@@std@@QEAA@AEAV12@_N@Z ; std::basic_istream<char,std::char_traits<char> >::sentry::sentry
  0006c	90		 npad	 1

; 5146 : 
; 5147 :     if (_Ok) { // state okay, extract characters

  0006d	48 8d 4d 48	 lea	 rcx, QWORD PTR _Ok$[rbp]
  00071	e8 00 00 00 00	 call	 ??Bsentry@?$basic_istream@DU?$char_traits@D@std@@@std@@QEBA_NXZ ; std::basic_istream<char,std::char_traits<char> >::sentry::operator bool
  00076	0f b6 c0	 movzx	 eax, al
  00079	85 c0		 test	 eax, eax
  0007b	0f 84 3e 02 00
	00		 je	 $LN5@operator

; 5148 :         const _Ctype& _Ctype_fac = _STD use_facet<_Ctype>(_Istr.getloc());

  00081	48 8b 85 30 02
	00 00		 mov	 rax, QWORD PTR _Istr$[rbp]
  00088	48 8b 00	 mov	 rax, QWORD PTR [rax]
  0008b	48 63 40 04	 movsxd	 rax, DWORD PTR [rax+4]
  0008f	48 8b 8d 30 02
	00 00		 mov	 rcx, QWORD PTR _Istr$[rbp]
  00096	48 03 c8	 add	 rcx, rax
  00099	48 8b c1	 mov	 rax, rcx
  0009c	48 8d 95 98 01
	00 00		 lea	 rdx, QWORD PTR $T8[rbp]
  000a3	48 8b c8	 mov	 rcx, rax
  000a6	ff 15 00 00 00
	00		 call	 QWORD PTR __imp_?getloc@ios_base@std@@QEBA?AVlocale@2@XZ
  000ac	48 89 85 f8 01
	00 00		 mov	 QWORD PTR tv65[rbp], rax
  000b3	48 8b 85 f8 01
	00 00		 mov	 rax, QWORD PTR tv65[rbp]
  000ba	48 89 85 00 02
	00 00		 mov	 QWORD PTR tv259[rbp], rax
  000c1	48 8b 8d 00 02
	00 00		 mov	 rcx, QWORD PTR tv259[rbp]
  000c8	e8 00 00 00 00	 call	 ??$use_facet@V?$ctype@D@std@@@std@@YAAEBV?$ctype@D@0@AEBVlocale@0@@Z ; std::use_facet<std::ctype<char> >
  000cd	48 89 45 78	 mov	 QWORD PTR _Ctype_fac$5[rbp], rax
  000d1	48 8d 8d 98 01
	00 00		 lea	 rcx, QWORD PTR $T8[rbp]
  000d8	e8 00 00 00 00	 call	 ??1locale@std@@QEAA@XZ	; std::locale::~locale

; 5149 :         _Str.erase();

  000dd	33 d2		 xor	 edx, edx
  000df	48 8b 8d 38 02
	00 00		 mov	 rcx, QWORD PTR _Str$[rbp]
  000e6	e8 00 00 00 00	 call	 ?erase@?$basic_string@DU?$char_traits@D@std@@V?$allocator@D@2@@std@@QEAAAEAV12@_K@Z ; std::basic_string<char,std::char_traits<char>,std::allocator<char> >::erase
  000eb	90		 npad	 1

; 5150 : 
; 5151 :         _TRY_IO_BEGIN
; 5152 :         _Mysizt _Size;
; 5153 :         if (0 < _Istr.width() && static_cast<_Mysizt>(_Istr.width()) < _Str.max_size()) {

  000ec	48 8b 85 30 02
	00 00		 mov	 rax, QWORD PTR _Istr$[rbp]
  000f3	48 8b 00	 mov	 rax, QWORD PTR [rax]
  000f6	48 63 40 04	 movsxd	 rax, DWORD PTR [rax+4]
  000fa	48 8b 8d 30 02
	00 00		 mov	 rcx, QWORD PTR _Istr$[rbp]
  00101	48 03 c8	 add	 rcx, rax
  00104	48 8b c1	 mov	 rax, rcx
  00107	48 8b c8	 mov	 rcx, rax
  0010a	ff 15 00 00 00
	00		 call	 QWORD PTR __imp_?width@ios_base@std@@QEBA_JXZ
  00110	48 85 c0	 test	 rax, rax
  00113	7e 6d		 jle	 SHORT $LN7@operator
  00115	48 8b 8d 38 02
	00 00		 mov	 rcx, QWORD PTR _Str$[rbp]
  0011c	e8 00 00 00 00	 call	 ?max_size@?$basic_string@DU?$char_traits@D@std@@V?$allocator@D@2@@std@@QEBA_KXZ ; std::basic_string<char,std::char_traits<char>,std::allocator<char> >::max_size
  00121	48 89 85 f8 01
	00 00		 mov	 QWORD PTR tv150[rbp], rax
  00128	48 8b 8d 30 02
	00 00		 mov	 rcx, QWORD PTR _Istr$[rbp]
  0012f	48 8b 09	 mov	 rcx, QWORD PTR [rcx]
  00132	48 63 49 04	 movsxd	 rcx, DWORD PTR [rcx+4]
  00136	48 8b 95 30 02
	00 00		 mov	 rdx, QWORD PTR _Istr$[rbp]
  0013d	48 03 d1	 add	 rdx, rcx
  00140	48 8b ca	 mov	 rcx, rdx
  00143	ff 15 00 00 00
	00		 call	 QWORD PTR __imp_?width@ios_base@std@@QEBA_JXZ
  00149	48 8b 8d f8 01
	00 00		 mov	 rcx, QWORD PTR tv150[rbp]
  00150	48 3b c1	 cmp	 rax, rcx
  00153	73 2d		 jae	 SHORT $LN7@operator

; 5154 :             _Size = static_cast<_Mysizt>(_Istr.width());

  00155	48 8b 85 30 02
	00 00		 mov	 rax, QWORD PTR _Istr$[rbp]
  0015c	48 8b 00	 mov	 rax, QWORD PTR [rax]
  0015f	48 63 40 04	 movsxd	 rax, DWORD PTR [rax+4]
  00163	48 8b 8d 30 02
	00 00		 mov	 rcx, QWORD PTR _Istr$[rbp]
  0016a	48 03 c8	 add	 rcx, rax
  0016d	48 8b c1	 mov	 rax, rcx
  00170	48 8b c8	 mov	 rcx, rax
  00173	ff 15 00 00 00
	00		 call	 QWORD PTR __imp_?width@ios_base@std@@QEBA_JXZ
  00179	48 89 85 98 00
	00 00		 mov	 QWORD PTR _Size$6[rbp], rax

; 5155 :         } else {

  00180	eb 13		 jmp	 SHORT $LN8@operator
$LN7@operator:

; 5156 :             _Size = _Str.max_size();

  00182	48 8b 8d 38 02
	00 00		 mov	 rcx, QWORD PTR _Str$[rbp]
  00189	e8 00 00 00 00	 call	 ?max_size@?$basic_string@DU?$char_traits@D@std@@V?$allocator@D@2@@std@@QEBA_KXZ ; std::basic_string<char,std::char_traits<char>,std::allocator<char> >::max_size
  0018e	48 89 85 98 00
	00 00		 mov	 QWORD PTR _Size$6[rbp], rax
$LN8@operator:

; 5157 :         }
; 5158 : 
; 5159 :         typename _Traits::int_type _Meta = _Istr.rdbuf()->sgetc();

  00195	48 8b 85 30 02
	00 00		 mov	 rax, QWORD PTR _Istr$[rbp]
  0019c	48 8b 00	 mov	 rax, QWORD PTR [rax]
  0019f	48 63 40 04	 movsxd	 rax, DWORD PTR [rax+4]
  001a3	48 8b 8d 30 02
	00 00		 mov	 rcx, QWORD PTR _Istr$[rbp]
  001aa	48 03 c8	 add	 rcx, rax
  001ad	48 8b c1	 mov	 rax, rcx
  001b0	48 8b c8	 mov	 rcx, rax
  001b3	ff 15 00 00 00
	00		 call	 QWORD PTR __imp_?rdbuf@?$basic_ios@DU?$char_traits@D@std@@@std@@QEBAPEAV?$basic_streambuf@DU?$char_traits@D@std@@@2@XZ
  001b9	48 8b c8	 mov	 rcx, rax
  001bc	ff 15 00 00 00
	00		 call	 QWORD PTR __imp_?sgetc@?$basic_streambuf@DU?$char_traits@D@std@@@std@@QEAAHXZ
  001c2	89 85 f4 01 00
	00		 mov	 DWORD PTR tv262[rbp], eax
  001c8	8b 85 f4 01 00
	00		 mov	 eax, DWORD PTR tv262[rbp]
  001ce	89 85 b4 00 00
	00		 mov	 DWORD PTR _Meta$7[rbp], eax

; 5160 : 
; 5161 :         for (; 0 < _Size; --_Size, _Meta = _Istr.rdbuf()->snextc()) {

  001d4	eb 50		 jmp	 SHORT $LN4@operator
$LN2@operator:
  001d6	48 8b 85 98 00
	00 00		 mov	 rax, QWORD PTR _Size$6[rbp]
  001dd	48 ff c8	 dec	 rax
  001e0	48 89 85 98 00
	00 00		 mov	 QWORD PTR _Size$6[rbp], rax
  001e7	48 8b 85 30 02
	00 00		 mov	 rax, QWORD PTR _Istr$[rbp]
  001ee	48 8b 00	 mov	 rax, QWORD PTR [rax]
  001f1	48 63 40 04	 movsxd	 rax, DWORD PTR [rax+4]
  001f5	48 8b 8d 30 02
	00 00		 mov	 rcx, QWORD PTR _Istr$[rbp]
  001fc	48 03 c8	 add	 rcx, rax
  001ff	48 8b c1	 mov	 rax, rcx
  00202	48 8b c8	 mov	 rcx, rax
  00205	ff 15 00 00 00
	00		 call	 QWORD PTR __imp_?rdbuf@?$basic_ios@DU?$char_traits@D@std@@@std@@QEBAPEAV?$basic_streambuf@DU?$char_traits@D@std@@@2@XZ
  0020b	48 8b c8	 mov	 rcx, rax
  0020e	ff 15 00 00 00
	00		 call	 QWORD PTR __imp_?snextc@?$basic_streambuf@DU?$char_traits@D@std@@@std@@QEAAHXZ
  00214	89 85 f4 01 00
	00		 mov	 DWORD PTR tv263[rbp], eax
  0021a	8b 85 f4 01 00
	00		 mov	 eax, DWORD PTR tv263[rbp]
  00220	89 85 b4 00 00
	00		 mov	 DWORD PTR _Meta$7[rbp], eax
$LN4@operator:
  00226	48 83 bd 98 00
	00 00 00	 cmp	 QWORD PTR _Size$6[rbp], 0
  0022e	0f 86 89 00 00
	00		 jbe	 $LN3@operator

; 5162 :             if (_Traits::eq_int_type(_Traits::eof(), _Meta)) { // end of file, quit

  00234	e8 00 00 00 00	 call	 ?eof@?$_Narrow_char_traits@DH@std@@SAHXZ ; std::_Narrow_char_traits<char,int>::eof
  00239	89 85 c4 01 00
	00		 mov	 DWORD PTR $T9[rbp], eax
  0023f	48 8d 95 b4 00
	00 00		 lea	 rdx, QWORD PTR _Meta$7[rbp]
  00246	48 8d 8d c4 01
	00 00		 lea	 rcx, QWORD PTR $T9[rbp]
  0024d	e8 00 00 00 00	 call	 ?eq_int_type@?$_Narrow_char_traits@DH@std@@SA_NAEBH0@Z ; std::_Narrow_char_traits<char,int>::eq_int_type
  00252	0f b6 c0	 movzx	 eax, al
  00255	85 c0		 test	 eax, eax
  00257	74 0d		 je	 SHORT $LN9@operator

; 5163 :                 _State |= _Myis::eofbit;

  00259	8b 45 04	 mov	 eax, DWORD PTR _State$[rbp]
  0025c	83 c8 01	 or	 eax, 1
  0025f	89 45 04	 mov	 DWORD PTR _State$[rbp], eax

; 5164 :                 break;

  00262	eb 59		 jmp	 SHORT $LN3@operator
  00264	eb 52		 jmp	 SHORT $LN10@operator
$LN9@operator:

; 5165 :             } else if (_Ctype_fac.is(_Ctype::space, _Traits::to_char_type(_Meta))) {

  00266	48 8d 8d b4 00
	00 00		 lea	 rcx, QWORD PTR _Meta$7[rbp]
  0026d	e8 00 00 00 00	 call	 ?to_char_type@?$_Narrow_char_traits@DH@std@@SADAEBH@Z ; std::_Narrow_char_traits<char,int>::to_char_type
  00272	44 0f b6 c0	 movzx	 r8d, al
  00276	66 ba 48 00	 mov	 dx, 72			; 00000048H
  0027a	48 8b 4d 78	 mov	 rcx, QWORD PTR _Ctype_fac$5[rbp]
  0027e	ff 15 00 00 00
	00		 call	 QWORD PTR __imp_?is@?$ctype@D@std@@QEBA_NFD@Z
  00284	88 85 f4 01 00
	00		 mov	 BYTE PTR tv264[rbp], al
  0028a	0f b6 85 f4 01
	00 00		 movzx	 eax, BYTE PTR tv264[rbp]
  00291	85 c0		 test	 eax, eax
  00293	74 04		 je	 SHORT $LN11@operator

; 5166 :                 break; // whitespace, quit

  00295	eb 26		 jmp	 SHORT $LN3@operator

; 5167 :             } else { // add character to string

  00297	eb 1f		 jmp	 SHORT $LN10@operator
$LN11@operator:

; 5168 :                 _Str.push_back(_Traits::to_char_type(_Meta));

  00299	48 8d 8d b4 00
	00 00		 lea	 rcx, QWORD PTR _Meta$7[rbp]
  002a0	e8 00 00 00 00	 call	 ?to_char_type@?$_Narrow_char_traits@DH@std@@SADAEBH@Z ; std::_Narrow_char_traits<char,int>::to_char_type
  002a5	0f b6 d0	 movzx	 edx, al
  002a8	48 8b 8d 38 02
	00 00		 mov	 rcx, QWORD PTR _Str$[rbp]
  002af	e8 00 00 00 00	 call	 ?push_back@?$basic_string@DU?$char_traits@D@std@@V?$allocator@D@2@@std@@QEAAXD@Z ; std::basic_string<char,std::char_traits<char>,std::allocator<char> >::push_back

; 5169 :                 _Changed = true;

  002b4	c6 45 24 01	 mov	 BYTE PTR _Changed$[rbp], 1
$LN10@operator:

; 5170 :             }
; 5171 :         }

  002b8	e9 19 ff ff ff	 jmp	 $LN2@operator
$LN3@operator:
  002bd	eb 00		 jmp	 SHORT $LN5@operator
$LN20@operator:
$LN5@operator:

; 5172 :         _CATCH_IO_(_Myis, _Istr)
; 5173 :     }
; 5174 : 
; 5175 :     _Istr.width(0);

  002bf	48 8b 85 30 02
	00 00		 mov	 rax, QWORD PTR _Istr$[rbp]
  002c6	48 8b 00	 mov	 rax, QWORD PTR [rax]
  002c9	48 63 40 04	 movsxd	 rax, DWORD PTR [rax+4]
  002cd	48 8b 8d 30 02
	00 00		 mov	 rcx, QWORD PTR _Istr$[rbp]
  002d4	48 03 c8	 add	 rcx, rax
  002d7	48 8b c1	 mov	 rax, rcx
  002da	33 d2		 xor	 edx, edx
  002dc	48 8b c8	 mov	 rcx, rax
  002df	ff 15 00 00 00
	00		 call	 QWORD PTR __imp_?width@ios_base@std@@QEAA_J_J@Z

; 5176 :     if (!_Changed) {

  002e5	0f b6 45 24	 movzx	 eax, BYTE PTR _Changed$[rbp]
  002e9	85 c0		 test	 eax, eax
  002eb	75 09		 jne	 SHORT $LN13@operator

; 5177 :         _State |= _Myis::failbit;

  002ed	8b 45 04	 mov	 eax, DWORD PTR _State$[rbp]
  002f0	83 c8 02	 or	 eax, 2
  002f3	89 45 04	 mov	 DWORD PTR _State$[rbp], eax
$LN13@operator:

; 5178 :     }
; 5179 : 
; 5180 :     _Istr.setstate(_State);

  002f6	48 8b 85 30 02
	00 00		 mov	 rax, QWORD PTR _Istr$[rbp]
  002fd	48 8b 00	 mov	 rax, QWORD PTR [rax]
  00300	48 63 40 04	 movsxd	 rax, DWORD PTR [rax+4]
  00304	48 8b 8d 30 02
	00 00		 mov	 rcx, QWORD PTR _Istr$[rbp]
  0030b	48 03 c8	 add	 rcx, rax
  0030e	48 8b c1	 mov	 rax, rcx
  00311	45 33 c0	 xor	 r8d, r8d
  00314	8b 55 04	 mov	 edx, DWORD PTR _State$[rbp]
  00317	48 8b c8	 mov	 rcx, rax
  0031a	ff 15 00 00 00
	00		 call	 QWORD PTR __imp_?setstate@?$basic_ios@DU?$char_traits@D@std@@@std@@QEAAXH_N@Z

; 5181 :     return _Istr;

  00320	48 8b 85 30 02
	00 00		 mov	 rax, QWORD PTR _Istr$[rbp]
  00327	48 89 85 e8 01
	00 00		 mov	 QWORD PTR $T10[rbp], rax
  0032e	48 8d 4d 48	 lea	 rcx, QWORD PTR _Ok$[rbp]
  00332	e8 00 00 00 00	 call	 ??1sentry@?$basic_istream@DU?$char_traits@D@std@@@std@@QEAA@XZ
  00337	48 8b 85 e8 01
	00 00		 mov	 rax, QWORD PTR $T10[rbp]

; 5182 : }

  0033e	48 8b f8	 mov	 rdi, rax
  00341	48 8d 4d e0	 lea	 rcx, QWORD PTR [rbp-32]
  00345	48 8d 15 00 00
	00 00		 lea	 rdx, OFFSET FLAT:??$?5DU?$char_traits@D@std@@V?$allocator@D@1@@std@@YAAEAV?$basic_istream@DU?$char_traits@D@std@@@0@AEAV10@AEAV?$basic_string@DU?$char_traits@D@std@@V?$allocator@D@2@@0@@Z$rtcFrameData
  0034c	e8 00 00 00 00	 call	 _RTC_CheckStackVars
  00351	48 8b c7	 mov	 rax, rdi
  00354	48 8b 8d 08 02
	00 00		 mov	 rcx, QWORD PTR __$ArrayPad$[rbp]
  0035b	48 33 cd	 xor	 rcx, rbp
  0035e	e8 00 00 00 00	 call	 __security_check_cookie
  00363	48 8d a5 18 02
	00 00		 lea	 rsp, QWORD PTR [rbp+536]
  0036a	5f		 pop	 rdi
  0036b	5d		 pop	 rbp
  0036c	c3		 ret	 0
??$?5DU?$char_traits@D@std@@V?$allocator@D@1@@std@@YAAEAV?$basic_istream@DU?$char_traits@D@std@@@0@AEAV10@AEAV?$basic_string@DU?$char_traits@D@std@@V?$allocator@D@2@@0@@Z ENDP ; std::operator>><char,std::char_traits<char>,std::allocator<char> >
_TEXT	ENDS
; Function compile flags: /Odtp /RTCsu /ZI
;	COMDAT text$x
text$x	SEGMENT
_State$ = 4
_Changed$ = 36
_Ok$ = 72
_Ctype_fac$5 = 120
_Size$6 = 152
_Meta$7 = 180
$T8 = 408
$T9 = 452
$T10 = 488
tv264 = 500
tv263 = 500
tv262 = 500
tv150 = 504
tv65 = 504
tv259 = 512
__$ArrayPad$ = 520
_Istr$ = 560
_Str$ = 568
?dtor$0@?0???$?5DU?$char_traits@D@std@@V?$allocator@D@1@@std@@YAAEAV?$basic_istream@DU?$char_traits@D@std@@@0@AEAV10@AEAV?$basic_string@DU?$char_traits@D@std@@V?$allocator@D@2@@0@@Z@4HA PROC ; `std::operator>><char,std::char_traits<char>,std::allocator<char> >'::`1'::dtor$0
  00000	48 89 4c 24 08	 mov	 QWORD PTR [rsp+8], rcx
  00005	48 89 54 24 10	 mov	 QWORD PTR [rsp+16], rdx
  0000a	55		 push	 rbp
  0000b	57		 push	 rdi
  0000c	48 83 ec 28	 sub	 rsp, 40			; 00000028H
  00010	48 8d 6a 20	 lea	 rbp, QWORD PTR [rdx+32]
  00014	48 8d 4d 48	 lea	 rcx, QWORD PTR _Ok$[rbp]
  00018	e8 00 00 00 00	 call	 ??1sentry@?$basic_istream@DU?$char_traits@D@std@@@std@@QEAA@XZ
  0001d	48 83 c4 28	 add	 rsp, 40			; 00000028H
  00021	5f		 pop	 rdi
  00022	5d		 pop	 rbp
  00023	c3		 ret	 0
?dtor$0@?0???$?5DU?$char_traits@D@std@@V?$allocator@D@1@@std@@YAAEAV?$basic_istream@DU?$char_traits@D@std@@@0@AEAV10@AEAV?$basic_string@DU?$char_traits@D@std@@V?$allocator@D@2@@0@@Z@4HA ENDP ; `std::operator>><char,std::char_traits<char>,std::allocator<char> >'::`1'::dtor$0
text$x	ENDS
; Function compile flags: /Odtp /RTCsu /ZI
;	COMDAT text$x
text$x	SEGMENT
_State$ = 4
_Changed$ = 36
_Ok$ = 72
_Ctype_fac$5 = 120
_Size$6 = 152
_Meta$7 = 180
$T8 = 408
$T9 = 452
$T10 = 488
tv264 = 500
tv263 = 500
tv262 = 500
tv150 = 504
tv65 = 504
tv259 = 512
__$ArrayPad$ = 520
_Istr$ = 560
_Str$ = 568
?dtor$1@?0???$?5DU?$char_traits@D@std@@V?$allocator@D@1@@std@@YAAEAV?$basic_istream@DU?$char_traits@D@std@@@0@AEAV10@AEAV?$basic_string@DU?$char_traits@D@std@@V?$allocator@D@2@@0@@Z@4HA PROC ; `std::operator>><char,std::char_traits<char>,std::allocator<char> >'::`1'::dtor$1
  00000	48 89 4c 24 08	 mov	 QWORD PTR [rsp+8], rcx
  00005	48 89 54 24 10	 mov	 QWORD PTR [rsp+16], rdx
  0000a	55		 push	 rbp
  0000b	57		 push	 rdi
  0000c	48 83 ec 28	 sub	 rsp, 40			; 00000028H
  00010	48 8d 6a 20	 lea	 rbp, QWORD PTR [rdx+32]
  00014	48 8d 8d 98 01
	00 00		 lea	 rcx, QWORD PTR $T8[rbp]
  0001b	e8 00 00 00 00	 call	 ??1locale@std@@QEAA@XZ	; std::locale::~locale
  00020	48 83 c4 28	 add	 rsp, 40			; 00000028H
  00024	5f		 pop	 rdi
  00025	5d		 pop	 rbp
  00026	c3		 ret	 0
?dtor$1@?0???$?5DU?$char_traits@D@std@@V?$allocator@D@1@@std@@YAAEAV?$basic_istream@DU?$char_traits@D@std@@@0@AEAV10@AEAV?$basic_string@DU?$char_traits@D@std@@V?$allocator@D@2@@0@@Z@4HA ENDP ; `std::operator>><char,std::char_traits<char>,std::allocator<char> >'::`1'::dtor$1
text$x	ENDS
; Function compile flags: /Odtp /RTCsu /ZI
;	COMDAT text$x
text$x	SEGMENT
_State$ = 4
_Changed$ = 36
_Ok$ = 72
_Ctype_fac$5 = 120
_Size$6 = 152
_Meta$7 = 180
$T8 = 408
$T9 = 452
$T10 = 488
tv264 = 500
tv263 = 500
tv262 = 500
tv150 = 504
tv65 = 504
tv259 = 512
__$ArrayPad$ = 520
_Istr$ = 560
_Str$ = 568
?catch$2@?0???$?5DU?$char_traits@D@std@@V?$allocator@D@1@@std@@YAAEAV?$basic_istream@DU?$char_traits@D@std@@@0@AEAV10@AEAV?$basic_string@DU?$char_traits@D@std@@V?$allocator@D@2@@0@@Z@4HA PROC ; `std::operator>><char,std::char_traits<char>,std::allocator<char> >'::`1'::catch$2

; 5172 :         _CATCH_IO_(_Myis, _Istr)

  00000	48 89 4c 24 08	 mov	 QWORD PTR [rsp+8], rcx
  00005	48 89 54 24 10	 mov	 QWORD PTR [rsp+16], rdx
  0000a	55		 push	 rbp
  0000b	57		 push	 rdi
  0000c	48 83 ec 28	 sub	 rsp, 40			; 00000028H
  00010	48 8d 6a 20	 lea	 rbp, QWORD PTR [rdx+32]
__catch$??$?5DU?$char_traits@D@std@@V?$allocator@D@1@@std@@YAAEAV?$basic_istream@DU?$char_traits@D@std@@@0@AEAV10@AEAV?$basic_string@DU?$char_traits@D@std@@V?$allocator@D@2@@0@@Z$0:
  00014	48 8b 85 30 02
	00 00		 mov	 rax, QWORD PTR _Istr$[rbp]
  0001b	48 8b 00	 mov	 rax, QWORD PTR [rax]
  0001e	48 63 40 04	 movsxd	 rax, DWORD PTR [rax+4]
  00022	48 8b 8d 30 02
	00 00		 mov	 rcx, QWORD PTR _Istr$[rbp]
  00029	48 03 c8	 add	 rcx, rax
  0002c	48 8b c1	 mov	 rax, rcx
  0002f	41 b0 01	 mov	 r8b, 1
  00032	ba 04 00 00 00	 mov	 edx, 4
  00037	48 8b c8	 mov	 rcx, rax
  0003a	ff 15 00 00 00
	00		 call	 QWORD PTR __imp_?setstate@?$basic_ios@DU?$char_traits@D@std@@@std@@QEAAXH_N@Z
  00040	90		 npad	 1
  00041	48 8d 05 00 00
	00 00		 lea	 rax, $LN20@catch$2
  00048	48 83 c4 28	 add	 rsp, 40			; 00000028H
  0004c	5f		 pop	 rdi
  0004d	5d		 pop	 rbp
  0004e	c3		 ret	 0
  0004f	cc		 int	 3
?catch$2@?0???$?5DU?$char_traits@D@std@@V?$allocator@D@1@@std@@YAAEAV?$basic_istream@DU?$char_traits@D@std@@@0@AEAV10@AEAV?$basic_string@DU?$char_traits@D@std@@V?$allocator@D@2@@0@@Z@4HA ENDP ; `std::operator>><char,std::char_traits<char>,std::allocator<char> >'::`1'::catch$2
text$x	ENDS
; Function compile flags: /Odtp /RTCsu /ZI
; File C:\Program Files\Microsoft Visual Studio\2022\Community\VC\Tools\MSVC\14.37.32822\include\ostream
;	COMDAT ??$?6U?$char_traits@D@std@@@std@@YAAEAV?$basic_ostream@DU?$char_traits@D@std@@@0@AEAV10@PEBD@Z
_TEXT	SEGMENT
_State$ = 4
_Count$ = 40
_Pad$ = 72
_Ok$ = 104
$T4 = 340
$T5 = 372
$T6 = 404
$T7 = 436
$T8 = 472
tv285 = 484
tv283 = 484
tv296 = 488
tv295 = 488
tv139 = 488
tv137 = 488
__$ArrayPad$ = 496
_Ostr$ = 544
_Val$ = 552
??$?6U?$char_traits@D@std@@@std@@YAAEAV?$basic_ostream@DU?$char_traits@D@std@@@0@AEAV10@PEBD@Z PROC ; std::operator<<<std::char_traits<char> >, COMDAT

; 767  : basic_ostream<char, _Traits>& operator<<(basic_ostream<char, _Traits>& _Ostr, const char* _Val) {

$LN25:
  00000	48 89 54 24 10	 mov	 QWORD PTR [rsp+16], rdx
  00005	48 89 4c 24 08	 mov	 QWORD PTR [rsp+8], rcx
  0000a	55		 push	 rbp
  0000b	57		 push	 rdi
  0000c	48 81 ec 28 02
	00 00		 sub	 rsp, 552		; 00000228H
  00013	48 8d 6c 24 20	 lea	 rbp, QWORD PTR [rsp+32]
  00018	48 8d 7c 24 20	 lea	 rdi, QWORD PTR [rsp+32]
  0001d	b9 52 00 00 00	 mov	 ecx, 82			; 00000052H
  00022	b8 cc cc cc cc	 mov	 eax, -858993460		; ccccccccH
  00027	f3 ab		 rep stosd
  00029	48 8b 8c 24 48
	02 00 00	 mov	 rcx, QWORD PTR [rsp+584]
  00031	48 8b 05 00 00
	00 00		 mov	 rax, QWORD PTR __security_cookie
  00038	48 33 c5	 xor	 rax, rbp
  0003b	48 89 85 f0 01
	00 00		 mov	 QWORD PTR __$ArrayPad$[rbp], rax
  00042	48 8d 0d 00 00
	00 00		 lea	 rcx, OFFSET FLAT:__1D69971C_ostream
  00049	e8 00 00 00 00	 call	 __CheckForDebuggerJustMyCode

; 768  :     // insert NTBS into char stream
; 769  :     using _Elem = char;
; 770  :     using _Myos = basic_ostream<_Elem, _Traits>;
; 771  : 
; 772  :     ios_base::iostate _State = ios_base::goodbit;

  0004e	c7 45 04 00 00
	00 00		 mov	 DWORD PTR _State$[rbp], 0

; 773  :     streamsize _Count        = static_cast<streamsize>(_Traits::length(_Val));

  00055	48 8b 8d 28 02
	00 00		 mov	 rcx, QWORD PTR _Val$[rbp]
  0005c	e8 00 00 00 00	 call	 ?length@?$_Narrow_char_traits@DH@std@@SA_KQEBD@Z ; std::_Narrow_char_traits<char,int>::length
  00061	48 89 45 28	 mov	 QWORD PTR _Count$[rbp], rax

; 774  :     streamsize _Pad          = _Ostr.width() <= 0 || _Ostr.width() <= _Count ? 0 : _Ostr.width() - _Count;

  00065	48 8b 85 20 02
	00 00		 mov	 rax, QWORD PTR _Ostr$[rbp]
  0006c	48 8b 00	 mov	 rax, QWORD PTR [rax]
  0006f	48 63 40 04	 movsxd	 rax, DWORD PTR [rax+4]
  00073	48 8b 8d 20 02
	00 00		 mov	 rcx, QWORD PTR _Ostr$[rbp]
  0007a	48 03 c8	 add	 rcx, rax
  0007d	48 8b c1	 mov	 rax, rcx
  00080	48 8b c8	 mov	 rcx, rax
  00083	ff 15 00 00 00
	00		 call	 QWORD PTR __imp_?width@ios_base@std@@QEBA_JXZ
  00089	48 85 c0	 test	 rax, rax
  0008c	7e 5b		 jle	 SHORT $LN17@operator
  0008e	48 8b 85 20 02
	00 00		 mov	 rax, QWORD PTR _Ostr$[rbp]
  00095	48 8b 00	 mov	 rax, QWORD PTR [rax]
  00098	48 63 40 04	 movsxd	 rax, DWORD PTR [rax+4]
  0009c	48 8b 8d 20 02
	00 00		 mov	 rcx, QWORD PTR _Ostr$[rbp]
  000a3	48 03 c8	 add	 rcx, rax
  000a6	48 8b c1	 mov	 rax, rcx
  000a9	48 8b c8	 mov	 rcx, rax
  000ac	ff 15 00 00 00
	00		 call	 QWORD PTR __imp_?width@ios_base@std@@QEBA_JXZ
  000b2	48 3b 45 28	 cmp	 rax, QWORD PTR _Count$[rbp]
  000b6	7e 31		 jle	 SHORT $LN17@operator
  000b8	48 8b 85 20 02
	00 00		 mov	 rax, QWORD PTR _Ostr$[rbp]
  000bf	48 8b 00	 mov	 rax, QWORD PTR [rax]
  000c2	48 63 40 04	 movsxd	 rax, DWORD PTR [rax+4]
  000c6	48 8b 8d 20 02
	00 00		 mov	 rcx, QWORD PTR _Ostr$[rbp]
  000cd	48 03 c8	 add	 rcx, rax
  000d0	48 8b c1	 mov	 rax, rcx
  000d3	48 8b c8	 mov	 rcx, rax
  000d6	ff 15 00 00 00
	00		 call	 QWORD PTR __imp_?width@ios_base@std@@QEBA_JXZ
  000dc	48 2b 45 28	 sub	 rax, QWORD PTR _Count$[rbp]
  000e0	48 89 85 e8 01
	00 00		 mov	 QWORD PTR tv137[rbp], rax
  000e7	eb 0b		 jmp	 SHORT $LN18@operator
$LN17@operator:
  000e9	48 c7 85 e8 01
	00 00 00 00 00
	00		 mov	 QWORD PTR tv137[rbp], 0
$LN18@operator:
  000f4	48 8b 85 e8 01
	00 00		 mov	 rax, QWORD PTR tv137[rbp]
  000fb	48 89 45 48	 mov	 QWORD PTR _Pad$[rbp], rax

; 775  :     const typename _Myos::sentry _Ok(_Ostr);

  000ff	48 8b 95 20 02
	00 00		 mov	 rdx, QWORD PTR _Ostr$[rbp]
  00106	48 8d 4d 68	 lea	 rcx, QWORD PTR _Ok$[rbp]
  0010a	e8 00 00 00 00	 call	 ??0sentry@?$basic_ostream@DU?$char_traits@D@std@@@std@@QEAA@AEAV12@@Z ; std::basic_ostream<char,std::char_traits<char> >::sentry::sentry
  0010f	90		 npad	 1

; 776  : 
; 777  :     if (!_Ok) {

  00110	48 8d 4d 68	 lea	 rcx, QWORD PTR _Ok$[rbp]
  00114	e8 00 00 00 00	 call	 ??Bsentry@?$basic_ostream@DU?$char_traits@D@std@@@std@@QEBA_NXZ ; std::basic_ostream<char,std::char_traits<char> >::sentry::operator bool
  00119	0f b6 c0	 movzx	 eax, al
  0011c	85 c0		 test	 eax, eax
  0011e	75 0e		 jne	 SHORT $LN8@operator

; 778  :         _State |= ios_base::badbit;

  00120	8b 45 04	 mov	 eax, DWORD PTR _State$[rbp]
  00123	83 c8 04	 or	 eax, 4
  00126	89 45 04	 mov	 DWORD PTR _State$[rbp], eax

; 779  :     } else { // state okay, insert

  00129	e9 3a 02 00 00	 jmp	 $LN9@operator
$LN8@operator:

; 780  :         _TRY_IO_BEGIN
; 781  :         if ((_Ostr.flags() & ios_base::adjustfield) != ios_base::left) {

  0012e	48 8b 85 20 02
	00 00		 mov	 rax, QWORD PTR _Ostr$[rbp]
  00135	48 8b 00	 mov	 rax, QWORD PTR [rax]
  00138	48 63 40 04	 movsxd	 rax, DWORD PTR [rax+4]
  0013c	48 8b 8d 20 02
	00 00		 mov	 rcx, QWORD PTR _Ostr$[rbp]
  00143	48 03 c8	 add	 rcx, rax
  00146	48 8b c1	 mov	 rax, rcx
  00149	48 8b c8	 mov	 rcx, rax
  0014c	ff 15 00 00 00
	00		 call	 QWORD PTR __imp_?flags@ios_base@std@@QEBAHXZ
  00152	25 c0 01 00 00	 and	 eax, 448		; 000001c0H
  00157	83 f8 40	 cmp	 eax, 64			; 00000040H
  0015a	0f 84 bd 00 00
	00		 je	 $LN11@operator

; 782  :             for (; 0 < _Pad; --_Pad) { // pad on left

  00160	eb 0b		 jmp	 SHORT $LN4@operator
$LN2@operator:
  00162	48 8b 45 48	 mov	 rax, QWORD PTR _Pad$[rbp]
  00166	48 ff c8	 dec	 rax
  00169	48 89 45 48	 mov	 QWORD PTR _Pad$[rbp], rax
$LN4@operator:
  0016d	48 83 7d 48 00	 cmp	 QWORD PTR _Pad$[rbp], 0
  00172	0f 8e a5 00 00
	00		 jle	 $LN11@operator

; 783  :                 if (_Traits::eq_int_type(_Traits::eof(), _Ostr.rdbuf()->sputc(_Ostr.fill()))) {

  00178	48 8b 85 20 02
	00 00		 mov	 rax, QWORD PTR _Ostr$[rbp]
  0017f	48 8b 00	 mov	 rax, QWORD PTR [rax]
  00182	48 63 40 04	 movsxd	 rax, DWORD PTR [rax+4]
  00186	48 8b 8d 20 02
	00 00		 mov	 rcx, QWORD PTR _Ostr$[rbp]
  0018d	48 03 c8	 add	 rcx, rax
  00190	48 8b c1	 mov	 rax, rcx
  00193	48 8b c8	 mov	 rcx, rax
  00196	ff 15 00 00 00
	00		 call	 QWORD PTR __imp_?fill@?$basic_ios@DU?$char_traits@D@std@@@std@@QEBADXZ
  0019c	88 85 e4 01 00
	00		 mov	 BYTE PTR tv285[rbp], al
  001a2	48 8b 8d 20 02
	00 00		 mov	 rcx, QWORD PTR _Ostr$[rbp]
  001a9	48 8b 09	 mov	 rcx, QWORD PTR [rcx]
  001ac	48 63 49 04	 movsxd	 rcx, DWORD PTR [rcx+4]
  001b0	48 8b 95 20 02
	00 00		 mov	 rdx, QWORD PTR _Ostr$[rbp]
  001b7	48 03 d1	 add	 rdx, rcx
  001ba	48 8b ca	 mov	 rcx, rdx
  001bd	ff 15 00 00 00
	00		 call	 QWORD PTR __imp_?rdbuf@?$basic_ios@DU?$char_traits@D@std@@@std@@QEBAPEAV?$basic_streambuf@DU?$char_traits@D@std@@@2@XZ
  001c3	0f b6 8d e4 01
	00 00		 movzx	 ecx, BYTE PTR tv285[rbp]
  001ca	0f b6 d1	 movzx	 edx, cl
  001cd	48 8b c8	 mov	 rcx, rax
  001d0	ff 15 00 00 00
	00		 call	 QWORD PTR __imp_?sputc@?$basic_streambuf@DU?$char_traits@D@std@@@std@@QEAAHD@Z
  001d6	89 85 e8 01 00
	00		 mov	 DWORD PTR tv139[rbp], eax
  001dc	8b 85 e8 01 00
	00		 mov	 eax, DWORD PTR tv139[rbp]
  001e2	89 85 54 01 00
	00		 mov	 DWORD PTR $T4[rbp], eax
  001e8	e8 00 00 00 00	 call	 ?eof@?$_Narrow_char_traits@DH@std@@SAHXZ ; std::_Narrow_char_traits<char,int>::eof
  001ed	89 85 74 01 00
	00		 mov	 DWORD PTR $T5[rbp], eax
  001f3	48 8d 95 54 01
	00 00		 lea	 rdx, QWORD PTR $T4[rbp]
  001fa	48 8d 8d 74 01
	00 00		 lea	 rcx, QWORD PTR $T5[rbp]
  00201	e8 00 00 00 00	 call	 ?eq_int_type@?$_Narrow_char_traits@DH@std@@SA_NAEBH0@Z ; std::_Narrow_char_traits<char,int>::eq_int_type
  00206	0f b6 c0	 movzx	 eax, al
  00209	85 c0		 test	 eax, eax
  0020b	74 0b		 je	 SHORT $LN12@operator

; 784  :                     _State |= ios_base::badbit; // insertion failed, quit

  0020d	8b 45 04	 mov	 eax, DWORD PTR _State$[rbp]
  00210	83 c8 04	 or	 eax, 4
  00213	89 45 04	 mov	 DWORD PTR _State$[rbp], eax

; 785  :                     break;

  00216	eb 05		 jmp	 SHORT $LN11@operator
$LN12@operator:

; 786  :                 }
; 787  :             }

  00218	e9 45 ff ff ff	 jmp	 $LN2@operator
$LN11@operator:

; 788  :         }
; 789  : 
; 790  :         if (_State == ios_base::goodbit && _Ostr.rdbuf()->sputn(_Val, _Count) != _Count) {

  0021d	83 7d 04 00	 cmp	 DWORD PTR _State$[rbp], 0
  00221	75 55		 jne	 SHORT $LN13@operator
  00223	48 8b 85 20 02
	00 00		 mov	 rax, QWORD PTR _Ostr$[rbp]
  0022a	48 8b 00	 mov	 rax, QWORD PTR [rax]
  0022d	48 63 40 04	 movsxd	 rax, DWORD PTR [rax+4]
  00231	48 8b 8d 20 02
	00 00		 mov	 rcx, QWORD PTR _Ostr$[rbp]
  00238	48 03 c8	 add	 rcx, rax
  0023b	48 8b c1	 mov	 rax, rcx
  0023e	48 8b c8	 mov	 rcx, rax
  00241	ff 15 00 00 00
	00		 call	 QWORD PTR __imp_?rdbuf@?$basic_ios@DU?$char_traits@D@std@@@std@@QEBAPEAV?$basic_streambuf@DU?$char_traits@D@std@@@2@XZ
  00247	4c 8b 45 28	 mov	 r8, QWORD PTR _Count$[rbp]
  0024b	48 8b 95 28 02
	00 00		 mov	 rdx, QWORD PTR _Val$[rbp]
  00252	48 8b c8	 mov	 rcx, rax
  00255	ff 15 00 00 00
	00		 call	 QWORD PTR __imp_?sputn@?$basic_streambuf@DU?$char_traits@D@std@@@std@@QEAA_JPEBD_J@Z
  0025b	48 89 85 e8 01
	00 00		 mov	 QWORD PTR tv295[rbp], rax
  00262	48 8b 45 28	 mov	 rax, QWORD PTR _Count$[rbp]
  00266	48 39 85 e8 01
	00 00		 cmp	 QWORD PTR tv295[rbp], rax
  0026d	74 09		 je	 SHORT $LN13@operator

; 791  :             _State |= ios_base::badbit;

  0026f	8b 45 04	 mov	 eax, DWORD PTR _State$[rbp]
  00272	83 c8 04	 or	 eax, 4
  00275	89 45 04	 mov	 DWORD PTR _State$[rbp], eax
$LN13@operator:

; 792  :         }
; 793  : 
; 794  :         if (_State == ios_base::goodbit) {

  00278	83 7d 04 00	 cmp	 DWORD PTR _State$[rbp], 0
  0027c	0f 85 bd 00 00
	00		 jne	 $LN14@operator

; 795  :             for (; 0 < _Pad; --_Pad) { // pad on right

  00282	eb 0b		 jmp	 SHORT $LN7@operator
$LN5@operator:
  00284	48 8b 45 48	 mov	 rax, QWORD PTR _Pad$[rbp]
  00288	48 ff c8	 dec	 rax
  0028b	48 89 45 48	 mov	 QWORD PTR _Pad$[rbp], rax
$LN7@operator:
  0028f	48 83 7d 48 00	 cmp	 QWORD PTR _Pad$[rbp], 0
  00294	0f 8e a5 00 00
	00		 jle	 $LN14@operator

; 796  :                 if (_Traits::eq_int_type(_Traits::eof(), _Ostr.rdbuf()->sputc(_Ostr.fill()))) {

  0029a	48 8b 85 20 02
	00 00		 mov	 rax, QWORD PTR _Ostr$[rbp]
  002a1	48 8b 00	 mov	 rax, QWORD PTR [rax]
  002a4	48 63 40 04	 movsxd	 rax, DWORD PTR [rax+4]
  002a8	48 8b 8d 20 02
	00 00		 mov	 rcx, QWORD PTR _Ostr$[rbp]
  002af	48 03 c8	 add	 rcx, rax
  002b2	48 8b c1	 mov	 rax, rcx
  002b5	48 8b c8	 mov	 rcx, rax
  002b8	ff 15 00 00 00
	00		 call	 QWORD PTR __imp_?fill@?$basic_ios@DU?$char_traits@D@std@@@std@@QEBADXZ
  002be	88 85 e4 01 00
	00		 mov	 BYTE PTR tv283[rbp], al
  002c4	48 8b 8d 20 02
	00 00		 mov	 rcx, QWORD PTR _Ostr$[rbp]
  002cb	48 8b 09	 mov	 rcx, QWORD PTR [rcx]
  002ce	48 63 49 04	 movsxd	 rcx, DWORD PTR [rcx+4]
  002d2	48 8b 95 20 02
	00 00		 mov	 rdx, QWORD PTR _Ostr$[rbp]
  002d9	48 03 d1	 add	 rdx, rcx
  002dc	48 8b ca	 mov	 rcx, rdx
  002df	ff 15 00 00 00
	00		 call	 QWORD PTR __imp_?rdbuf@?$basic_ios@DU?$char_traits@D@std@@@std@@QEBAPEAV?$basic_streambuf@DU?$char_traits@D@std@@@2@XZ
  002e5	0f b6 8d e4 01
	00 00		 movzx	 ecx, BYTE PTR tv283[rbp]
  002ec	0f b6 d1	 movzx	 edx, cl
  002ef	48 8b c8	 mov	 rcx, rax
  002f2	ff 15 00 00 00
	00		 call	 QWORD PTR __imp_?sputc@?$basic_streambuf@DU?$char_traits@D@std@@@std@@QEAAHD@Z
  002f8	89 85 e8 01 00
	00		 mov	 DWORD PTR tv296[rbp], eax
  002fe	8b 85 e8 01 00
	00		 mov	 eax, DWORD PTR tv296[rbp]
  00304	89 85 94 01 00
	00		 mov	 DWORD PTR $T6[rbp], eax
  0030a	e8 00 00 00 00	 call	 ?eof@?$_Narrow_char_traits@DH@std@@SAHXZ ; std::_Narrow_char_traits<char,int>::eof
  0030f	89 85 b4 01 00
	00		 mov	 DWORD PTR $T7[rbp], eax
  00315	48 8d 95 94 01
	00 00		 lea	 rdx, QWORD PTR $T6[rbp]
  0031c	48 8d 8d b4 01
	00 00		 lea	 rcx, QWORD PTR $T7[rbp]
  00323	e8 00 00 00 00	 call	 ?eq_int_type@?$_Narrow_char_traits@DH@std@@SA_NAEBH0@Z ; std::_Narrow_char_traits<char,int>::eq_int_type
  00328	0f b6 c0	 movzx	 eax, al
  0032b	85 c0		 test	 eax, eax
  0032d	74 0b		 je	 SHORT $LN15@operator

; 797  :                     _State |= ios_base::badbit; // insertion failed, quit

  0032f	8b 45 04	 mov	 eax, DWORD PTR _State$[rbp]
  00332	83 c8 04	 or	 eax, 4
  00335	89 45 04	 mov	 DWORD PTR _State$[rbp], eax

; 798  :                     break;

  00338	eb 05		 jmp	 SHORT $LN14@operator
$LN15@operator:

; 799  :                 }
; 800  :             }

  0033a	e9 45 ff ff ff	 jmp	 $LN5@operator
$LN14@operator:

; 801  :         }
; 802  : 
; 803  :         _Ostr.width(0);

  0033f	48 8b 85 20 02
	00 00		 mov	 rax, QWORD PTR _Ostr$[rbp]
  00346	48 8b 00	 mov	 rax, QWORD PTR [rax]
  00349	48 63 40 04	 movsxd	 rax, DWORD PTR [rax+4]
  0034d	48 8b 8d 20 02
	00 00		 mov	 rcx, QWORD PTR _Ostr$[rbp]
  00354	48 03 c8	 add	 rcx, rax
  00357	48 8b c1	 mov	 rax, rcx
  0035a	33 d2		 xor	 edx, edx
  0035c	48 8b c8	 mov	 rcx, rax
  0035f	ff 15 00 00 00
	00		 call	 QWORD PTR __imp_?width@ios_base@std@@QEAA_J_J@Z
  00365	90		 npad	 1
  00366	eb 00		 jmp	 SHORT $LN9@operator
$LN23@operator:
$LN9@operator:

; 804  :         _CATCH_IO_(ios_base, _Ostr)
; 805  :     }
; 806  : 
; 807  :     _Ostr.setstate(_State);

  00368	48 8b 85 20 02
	00 00		 mov	 rax, QWORD PTR _Ostr$[rbp]
  0036f	48 8b 00	 mov	 rax, QWORD PTR [rax]
  00372	48 63 40 04	 movsxd	 rax, DWORD PTR [rax+4]
  00376	48 8b 8d 20 02
	00 00		 mov	 rcx, QWORD PTR _Ostr$[rbp]
  0037d	48 03 c8	 add	 rcx, rax
  00380	48 8b c1	 mov	 rax, rcx
  00383	45 33 c0	 xor	 r8d, r8d
  00386	8b 55 04	 mov	 edx, DWORD PTR _State$[rbp]
  00389	48 8b c8	 mov	 rcx, rax
  0038c	ff 15 00 00 00
	00		 call	 QWORD PTR __imp_?setstate@?$basic_ios@DU?$char_traits@D@std@@@std@@QEAAXH_N@Z

; 808  :     return _Ostr;

  00392	48 8b 85 20 02
	00 00		 mov	 rax, QWORD PTR _Ostr$[rbp]
  00399	48 89 85 d8 01
	00 00		 mov	 QWORD PTR $T8[rbp], rax
  003a0	48 8d 4d 68	 lea	 rcx, QWORD PTR _Ok$[rbp]
  003a4	e8 00 00 00 00	 call	 ??1sentry@?$basic_ostream@DU?$char_traits@D@std@@@std@@QEAA@XZ ; std::basic_ostream<char,std::char_traits<char> >::sentry::~sentry
  003a9	48 8b 85 d8 01
	00 00		 mov	 rax, QWORD PTR $T8[rbp]

; 809  : }

  003b0	48 8b f8	 mov	 rdi, rax
  003b3	48 8d 4d e0	 lea	 rcx, QWORD PTR [rbp-32]
  003b7	48 8d 15 00 00
	00 00		 lea	 rdx, OFFSET FLAT:??$?6U?$char_traits@D@std@@@std@@YAAEAV?$basic_ostream@DU?$char_traits@D@std@@@0@AEAV10@PEBD@Z$rtcFrameData
  003be	e8 00 00 00 00	 call	 _RTC_CheckStackVars
  003c3	48 8b c7	 mov	 rax, rdi
  003c6	48 8b 8d f0 01
	00 00		 mov	 rcx, QWORD PTR __$ArrayPad$[rbp]
  003cd	48 33 cd	 xor	 rcx, rbp
  003d0	e8 00 00 00 00	 call	 __security_check_cookie
  003d5	48 8d a5 08 02
	00 00		 lea	 rsp, QWORD PTR [rbp+520]
  003dc	5f		 pop	 rdi
  003dd	5d		 pop	 rbp
  003de	c3		 ret	 0
??$?6U?$char_traits@D@std@@@std@@YAAEAV?$basic_ostream@DU?$char_traits@D@std@@@0@AEAV10@PEBD@Z ENDP ; std::operator<<<std::char_traits<char> >
_TEXT	ENDS
; Function compile flags: /Odtp /RTCsu /ZI
;	COMDAT text$x
text$x	SEGMENT
_State$ = 4
_Count$ = 40
_Pad$ = 72
_Ok$ = 104
$T4 = 340
$T5 = 372
$T6 = 404
$T7 = 436
$T8 = 472
tv285 = 484
tv283 = 484
tv296 = 488
tv295 = 488
tv139 = 488
tv137 = 488
__$ArrayPad$ = 496
_Ostr$ = 544
_Val$ = 552
?dtor$0@?0???$?6U?$char_traits@D@std@@@std@@YAAEAV?$basic_ostream@DU?$char_traits@D@std@@@0@AEAV10@PEBD@Z@4HA PROC ; `std::operator<<<std::char_traits<char> >'::`1'::dtor$0
  00000	48 89 4c 24 08	 mov	 QWORD PTR [rsp+8], rcx
  00005	48 89 54 24 10	 mov	 QWORD PTR [rsp+16], rdx
  0000a	55		 push	 rbp
  0000b	57		 push	 rdi
  0000c	48 83 ec 28	 sub	 rsp, 40			; 00000028H
  00010	48 8d 6a 20	 lea	 rbp, QWORD PTR [rdx+32]
  00014	48 8d 4d 68	 lea	 rcx, QWORD PTR _Ok$[rbp]
  00018	e8 00 00 00 00	 call	 ??1sentry@?$basic_ostream@DU?$char_traits@D@std@@@std@@QEAA@XZ ; std::basic_ostream<char,std::char_traits<char> >::sentry::~sentry
  0001d	48 83 c4 28	 add	 rsp, 40			; 00000028H
  00021	5f		 pop	 rdi
  00022	5d		 pop	 rbp
  00023	c3		 ret	 0
?dtor$0@?0???$?6U?$char_traits@D@std@@@std@@YAAEAV?$basic_ostream@DU?$char_traits@D@std@@@0@AEAV10@PEBD@Z@4HA ENDP ; `std::operator<<<std::char_traits<char> >'::`1'::dtor$0
text$x	ENDS
; Function compile flags: /Odtp /RTCsu /ZI
;	COMDAT text$x
text$x	SEGMENT
_State$ = 4
_Count$ = 40
_Pad$ = 72
_Ok$ = 104
$T4 = 340
$T5 = 372
$T6 = 404
$T7 = 436
$T8 = 472
tv285 = 484
tv283 = 484
tv296 = 488
tv295 = 488
tv139 = 488
tv137 = 488
__$ArrayPad$ = 496
_Ostr$ = 544
_Val$ = 552
?catch$1@?0???$?6U?$char_traits@D@std@@@std@@YAAEAV?$basic_ostream@DU?$char_traits@D@std@@@0@AEAV10@PEBD@Z@4HA PROC ; `std::operator<<<std::char_traits<char> >'::`1'::catch$1

; 804  :         _CATCH_IO_(ios_base, _Ostr)

  00000	48 89 4c 24 08	 mov	 QWORD PTR [rsp+8], rcx
  00005	48 89 54 24 10	 mov	 QWORD PTR [rsp+16], rdx
  0000a	55		 push	 rbp
  0000b	57		 push	 rdi
  0000c	48 83 ec 28	 sub	 rsp, 40			; 00000028H
  00010	48 8d 6a 20	 lea	 rbp, QWORD PTR [rdx+32]
__catch$??$?6U?$char_traits@D@std@@@std@@YAAEAV?$basic_ostream@DU?$char_traits@D@std@@@0@AEAV10@PEBD@Z$0:
  00014	48 8b 85 20 02
	00 00		 mov	 rax, QWORD PTR _Ostr$[rbp]
  0001b	48 8b 00	 mov	 rax, QWORD PTR [rax]
  0001e	48 63 40 04	 movsxd	 rax, DWORD PTR [rax+4]
  00022	48 8b 8d 20 02
	00 00		 mov	 rcx, QWORD PTR _Ostr$[rbp]
  00029	48 03 c8	 add	 rcx, rax
  0002c	48 8b c1	 mov	 rax, rcx
  0002f	41 b0 01	 mov	 r8b, 1
  00032	ba 04 00 00 00	 mov	 edx, 4
  00037	48 8b c8	 mov	 rcx, rax
  0003a	ff 15 00 00 00
	00		 call	 QWORD PTR __imp_?setstate@?$basic_ios@DU?$char_traits@D@std@@@std@@QEAAXH_N@Z
  00040	90		 npad	 1
  00041	48 8d 05 00 00
	00 00		 lea	 rax, $LN23@catch$1
  00048	48 83 c4 28	 add	 rsp, 40			; 00000028H
  0004c	5f		 pop	 rdi
  0004d	5d		 pop	 rbp
  0004e	c3		 ret	 0
  0004f	cc		 int	 3
?catch$1@?0???$?6U?$char_traits@D@std@@@std@@YAAEAV?$basic_ostream@DU?$char_traits@D@std@@@0@AEAV10@PEBD@Z@4HA ENDP ; `std::operator<<<std::char_traits<char> >'::`1'::catch$1
text$x	ENDS
; Function compile flags: /Odtp /RTCsu /ZI
; File D:\ \\lab01\lab01\lab01.cpp
;	COMDAT main
_TEXT	SEGMENT
todaysDate$ = 4
left$ = 36
daysArray$ = 72
dateBD$ = 152
dateTD$ = 216
day$ = 280
month$ = 344
year$ = 408
Bday$ = 472
Bmonth$ = 536
Byear$ = 600
BdayInt$ = 660
BmonthInt$ = 692
ByearInt$ = 724
dayInt$ = 756
monthInt$ = 788
yearInt$ = 820
countBD$ = 852
countTD$ = 884
$T13 = 1492
$T14 = 1524
$T15 = 1560
$T16 = 1624
$T17 = 1688
$T18 = 1752
$T19 = 1816
$T20 = 1880
tv329 = 1928
tv327 = 1928
tv325 = 1928
tv323 = 1928
tv321 = 1928
tv319 = 1928
__$ArrayPad$ = 1936
main	PROC						; COMDAT

; 4    : {

$LN21:
  00000	40 55		 push	 rbp
  00002	57		 push	 rdi
  00003	48 81 ec c8 07
	00 00		 sub	 rsp, 1992		; 000007c8H
  0000a	48 8d 6c 24 20	 lea	 rbp, QWORD PTR [rsp+32]
  0000f	48 8d 7c 24 20	 lea	 rdi, QWORD PTR [rsp+32]
  00014	b9 5a 01 00 00	 mov	 ecx, 346		; 0000015aH
  00019	b8 cc cc cc cc	 mov	 eax, -858993460		; ccccccccH
  0001e	f3 ab		 rep stosd
  00020	48 8b 05 00 00
	00 00		 mov	 rax, QWORD PTR __security_cookie
  00027	48 33 c5	 xor	 rax, rbp
  0002a	48 89 85 90 07
	00 00		 mov	 QWORD PTR __$ArrayPad$[rbp], rax
  00031	48 8d 0d 00 00
	00 00		 lea	 rcx, OFFSET FLAT:__4F602630_lab01@cpp
  00038	e8 00 00 00 00	 call	 __CheckForDebuggerJustMyCode

; 5    :     int todaysDate = 0, left = 0;

  0003d	c7 45 04 00 00
	00 00		 mov	 DWORD PTR todaysDate$[rbp], 0
  00044	c7 45 24 00 00
	00 00		 mov	 DWORD PTR left$[rbp], 0

; 6    :     int daysArray[12] = { 31, 28, 31, 30, 31, 30, 31, 31, 30, 31, 30, 31 };

  0004b	c7 45 48 1f 00
	00 00		 mov	 DWORD PTR daysArray$[rbp], 31
  00052	c7 45 4c 1c 00
	00 00		 mov	 DWORD PTR daysArray$[rbp+4], 28
  00059	c7 45 50 1f 00
	00 00		 mov	 DWORD PTR daysArray$[rbp+8], 31
  00060	c7 45 54 1e 00
	00 00		 mov	 DWORD PTR daysArray$[rbp+12], 30
  00067	c7 45 58 1f 00
	00 00		 mov	 DWORD PTR daysArray$[rbp+16], 31
  0006e	c7 45 5c 1e 00
	00 00		 mov	 DWORD PTR daysArray$[rbp+20], 30
  00075	c7 45 60 1f 00
	00 00		 mov	 DWORD PTR daysArray$[rbp+24], 31
  0007c	c7 45 64 1f 00
	00 00		 mov	 DWORD PTR daysArray$[rbp+28], 31
  00083	c7 45 68 1e 00
	00 00		 mov	 DWORD PTR daysArray$[rbp+32], 30
  0008a	c7 45 6c 1f 00
	00 00		 mov	 DWORD PTR daysArray$[rbp+36], 31
  00091	c7 45 70 1e 00
	00 00		 mov	 DWORD PTR daysArray$[rbp+40], 30
  00098	c7 45 74 1f 00
	00 00		 mov	 DWORD PTR daysArray$[rbp+44], 31

; 7    :     setlocale(0, "");

  0009f	48 8d 15 00 00
	00 00		 lea	 rdx, OFFSET FLAT:??_C@_00CNPNBAHC@@
  000a6	33 c9		 xor	 ecx, ecx
  000a8	ff 15 00 00 00
	00		 call	 QWORD PTR __imp_setlocale

; 8    :     string dateBD, dateTD, day, month, year, Bday, Bmonth, Byear;

  000ae	48 8d 8d 98 00
	00 00		 lea	 rcx, QWORD PTR dateBD$[rbp]
  000b5	e8 00 00 00 00	 call	 ??0?$basic_string@DU?$char_traits@D@std@@V?$allocator@D@2@@std@@QEAA@XZ ; std::basic_string<char,std::char_traits<char>,std::allocator<char> >::basic_string<char,std::char_traits<char>,std::allocator<char> >
  000ba	90		 npad	 1
  000bb	48 8d 8d d8 00
	00 00		 lea	 rcx, QWORD PTR dateTD$[rbp]
  000c2	e8 00 00 00 00	 call	 ??0?$basic_string@DU?$char_traits@D@std@@V?$allocator@D@2@@std@@QEAA@XZ ; std::basic_string<char,std::char_traits<char>,std::allocator<char> >::basic_string<char,std::char_traits<char>,std::allocator<char> >
  000c7	90		 npad	 1
  000c8	48 8d 8d 18 01
	00 00		 lea	 rcx, QWORD PTR day$[rbp]
  000cf	e8 00 00 00 00	 call	 ??0?$basic_string@DU?$char_traits@D@std@@V?$allocator@D@2@@std@@QEAA@XZ ; std::basic_string<char,std::char_traits<char>,std::allocator<char> >::basic_string<char,std::char_traits<char>,std::allocator<char> >
  000d4	90		 npad	 1
  000d5	48 8d 8d 58 01
	00 00		 lea	 rcx, QWORD PTR month$[rbp]
  000dc	e8 00 00 00 00	 call	 ??0?$basic_string@DU?$char_traits@D@std@@V?$allocator@D@2@@std@@QEAA@XZ ; std::basic_string<char,std::char_traits<char>,std::allocator<char> >::basic_string<char,std::char_traits<char>,std::allocator<char> >
  000e1	90		 npad	 1
  000e2	48 8d 8d 98 01
	00 00		 lea	 rcx, QWORD PTR year$[rbp]
  000e9	e8 00 00 00 00	 call	 ??0?$basic_string@DU?$char_traits@D@std@@V?$allocator@D@2@@std@@QEAA@XZ ; std::basic_string<char,std::char_traits<char>,std::allocator<char> >::basic_string<char,std::char_traits<char>,std::allocator<char> >
  000ee	90		 npad	 1
  000ef	48 8d 8d d8 01
	00 00		 lea	 rcx, QWORD PTR Bday$[rbp]
  000f6	e8 00 00 00 00	 call	 ??0?$basic_string@DU?$char_traits@D@std@@V?$allocator@D@2@@std@@QEAA@XZ ; std::basic_string<char,std::char_traits<char>,std::allocator<char> >::basic_string<char,std::char_traits<char>,std::allocator<char> >
  000fb	90		 npad	 1
  000fc	48 8d 8d 18 02
	00 00		 lea	 rcx, QWORD PTR Bmonth$[rbp]
  00103	e8 00 00 00 00	 call	 ??0?$basic_string@DU?$char_traits@D@std@@V?$allocator@D@2@@std@@QEAA@XZ ; std::basic_string<char,std::char_traits<char>,std::allocator<char> >::basic_string<char,std::char_traits<char>,std::allocator<char> >
  00108	90		 npad	 1
  00109	48 8d 8d 58 02
	00 00		 lea	 rcx, QWORD PTR Byear$[rbp]
  00110	e8 00 00 00 00	 call	 ??0?$basic_string@DU?$char_traits@D@std@@V?$allocator@D@2@@std@@QEAA@XZ ; std::basic_string<char,std::char_traits<char>,std::allocator<char> >::basic_string<char,std::char_traits<char>,std::allocator<char> >
  00115	90		 npad	 1

; 9    :     
; 10   :     cout << "  ";

  00116	48 8d 15 00 00
	00 00		 lea	 rdx, OFFSET FLAT:??_C@_0M@LKCEPKJL@?$NP?5?p?n?d?h?k?$OA?q?$PM?5@
  0011d	48 8b 0d 00 00
	00 00		 mov	 rcx, QWORD PTR __imp_?cout@std@@3V?$basic_ostream@DU?$char_traits@D@std@@@1@A
  00124	e8 00 00 00 00	 call	 ??$?6U?$char_traits@D@std@@@std@@YAAEAV?$basic_ostream@DU?$char_traits@D@std@@@0@AEAV10@PEBD@Z ; std::operator<<<std::char_traits<char> >

; 11   :     cin >> dateBD;

  00129	48 8d 95 98 00
	00 00		 lea	 rdx, QWORD PTR dateBD$[rbp]
  00130	48 8b 0d 00 00
	00 00		 mov	 rcx, QWORD PTR __imp_?cin@std@@3V?$basic_istream@DU?$char_traits@D@std@@@1@A
  00137	e8 00 00 00 00	 call	 ??$?5DU?$char_traits@D@std@@V?$allocator@D@1@@std@@YAAEAV?$basic_istream@DU?$char_traits@D@std@@@0@AEAV10@AEAV?$basic_string@DU?$char_traits@D@std@@V?$allocator@D@2@@0@@Z ; std::operator>><char,std::char_traits<char>,std::allocator<char> >

; 12   :     cout << "      ";

  0013c	48 8d 15 00 00
	00 00		 lea	 rdx, OFFSET FLAT:??_C@_0CN@CMEOPOLI@?B?b?e?d?h?r?e?5?q?e?c?n?d?m?$PP?x?m?$PO?$PO?5?d?$OA?r?s?5?b?5?t?n?p?l@
  00143	48 8b 0d 00 00
	00 00		 mov	 rcx, QWORD PTR __imp_?cout@std@@3V?$basic_ostream@DU?$char_traits@D@std@@@1@A
  0014a	e8 00 00 00 00	 call	 ??$?6U?$char_traits@D@std@@@std@@YAAEAV?$basic_ostream@DU?$char_traits@D@std@@@0@AEAV10@PEBD@Z ; std::operator<<<std::char_traits<char> >

; 13   :     cin >> dateTD;

  0014f	48 8d 95 d8 00
	00 00		 lea	 rdx, QWORD PTR dateTD$[rbp]
  00156	48 8b 0d 00 00
	00 00		 mov	 rcx, QWORD PTR __imp_?cin@std@@3V?$basic_istream@DU?$char_traits@D@std@@@1@A
  0015d	e8 00 00 00 00	 call	 ??$?5DU?$char_traits@D@std@@V?$allocator@D@1@@std@@YAAEAV?$basic_istream@DU?$char_traits@D@std@@@0@AEAV10@AEAV?$basic_string@DU?$char_traits@D@std@@V?$allocator@D@2@@0@@Z ; std::operator>><char,std::char_traits<char>,std::allocator<char> >

; 14   : 
; 15   :     if (dateTD.size() != 8) {

  00162	48 8d 8d d8 00
	00 00		 lea	 rcx, QWORD PTR dateTD$[rbp]
  00169	e8 00 00 00 00	 call	 ?size@?$basic_string@DU?$char_traits@D@std@@V?$allocator@D@2@@std@@QEBA_KXZ ; std::basic_string<char,std::char_traits<char>,std::allocator<char> >::size
  0016e	48 83 f8 08	 cmp	 rax, 8
  00172	0f 84 8f 00 00
	00		 je	 $LN2@main

; 16   :         cout << "   !";

  00178	48 8d 15 00 00
	00 00		 lea	 rdx, OFFSET FLAT:??_C@_0BE@DLECMKKF@?B?$PL?5?n?x?h?a?k?h?q?$PM?5?b?5?d?$OA?r?e?$CB@
  0017f	48 8b 0d 00 00
	00 00		 mov	 rcx, QWORD PTR __imp_?cout@std@@3V?$basic_ostream@DU?$char_traits@D@std@@@1@A
  00186	e8 00 00 00 00	 call	 ??$?6U?$char_traits@D@std@@@std@@YAAEAV?$basic_ostream@DU?$char_traits@D@std@@@0@AEAV10@PEBD@Z ; std::operator<<<std::char_traits<char> >

; 17   :         return 0;

  0018b	c7 85 d4 05 00
	00 00 00 00 00	 mov	 DWORD PTR $T13[rbp], 0
  00195	48 8d 8d 58 02
	00 00		 lea	 rcx, QWORD PTR Byear$[rbp]
  0019c	e8 00 00 00 00	 call	 ??1?$basic_string@DU?$char_traits@D@std@@V?$allocator@D@2@@std@@QEAA@XZ ; std::basic_string<char,std::char_traits<char>,std::allocator<char> >::~basic_string<char,std::char_traits<char>,std::allocator<char> >
  001a1	90		 npad	 1
  001a2	48 8d 8d 18 02
	00 00		 lea	 rcx, QWORD PTR Bmonth$[rbp]
  001a9	e8 00 00 00 00	 call	 ??1?$basic_string@DU?$char_traits@D@std@@V?$allocator@D@2@@std@@QEAA@XZ ; std::basic_string<char,std::char_traits<char>,std::allocator<char> >::~basic_string<char,std::char_traits<char>,std::allocator<char> >
  001ae	90		 npad	 1
  001af	48 8d 8d d8 01
	00 00		 lea	 rcx, QWORD PTR Bday$[rbp]
  001b6	e8 00 00 00 00	 call	 ??1?$basic_string@DU?$char_traits@D@std@@V?$allocator@D@2@@std@@QEAA@XZ ; std::basic_string<char,std::char_traits<char>,std::allocator<char> >::~basic_string<char,std::char_traits<char>,std::allocator<char> >
  001bb	90		 npad	 1
  001bc	48 8d 8d 98 01
	00 00		 lea	 rcx, QWORD PTR year$[rbp]
  001c3	e8 00 00 00 00	 call	 ??1?$basic_string@DU?$char_traits@D@std@@V?$allocator@D@2@@std@@QEAA@XZ ; std::basic_string<char,std::char_traits<char>,std::allocator<char> >::~basic_string<char,std::char_traits<char>,std::allocator<char> >
  001c8	90		 npad	 1
  001c9	48 8d 8d 58 01
	00 00		 lea	 rcx, QWORD PTR month$[rbp]
  001d0	e8 00 00 00 00	 call	 ??1?$basic_string@DU?$char_traits@D@std@@V?$allocator@D@2@@std@@QEAA@XZ ; std::basic_string<char,std::char_traits<char>,std::allocator<char> >::~basic_string<char,std::char_traits<char>,std::allocator<char> >
  001d5	90		 npad	 1
  001d6	48 8d 8d 18 01
	00 00		 lea	 rcx, QWORD PTR day$[rbp]
  001dd	e8 00 00 00 00	 call	 ??1?$basic_string@DU?$char_traits@D@std@@V?$allocator@D@2@@std@@QEAA@XZ ; std::basic_string<char,std::char_traits<char>,std::allocator<char> >::~basic_string<char,std::char_traits<char>,std::allocator<char> >
  001e2	90		 npad	 1
  001e3	48 8d 8d d8 00
	00 00		 lea	 rcx, QWORD PTR dateTD$[rbp]
  001ea	e8 00 00 00 00	 call	 ??1?$basic_string@DU?$char_traits@D@std@@V?$allocator@D@2@@std@@QEAA@XZ ; std::basic_string<char,std::char_traits<char>,std::allocator<char> >::~basic_string<char,std::char_traits<char>,std::allocator<char> >
  001ef	90		 npad	 1
  001f0	48 8d 8d 98 00
	00 00		 lea	 rcx, QWORD PTR dateBD$[rbp]
  001f7	e8 00 00 00 00	 call	 ??1?$basic_string@DU?$char_traits@D@std@@V?$allocator@D@2@@std@@QEAA@XZ ; std::basic_string<char,std::char_traits<char>,std::allocator<char> >::~basic_string<char,std::char_traits<char>,std::allocator<char> >
  001fc	8b 85 d4 05 00
	00		 mov	 eax, DWORD PTR $T13[rbp]
  00202	e9 82 04 00 00	 jmp	 $LN19@main
$LN2@main:

; 18   :     }
; 19   :     if (dateBD.size() != 8) {

  00207	48 8d 8d 98 00
	00 00		 lea	 rcx, QWORD PTR dateBD$[rbp]
  0020e	e8 00 00 00 00	 call	 ?size@?$basic_string@DU?$char_traits@D@std@@V?$allocator@D@2@@std@@QEBA_KXZ ; std::basic_string<char,std::char_traits<char>,std::allocator<char> >::size
  00213	48 83 f8 08	 cmp	 rax, 8
  00217	0f 84 8f 00 00
	00		 je	 $LN3@main

; 20   :         cout << "   !";

  0021d	48 8d 15 00 00
	00 00		 lea	 rdx, OFFSET FLAT:??_C@_0BE@DLECMKKF@?B?$PL?5?n?x?h?a?k?h?q?$PM?5?b?5?d?$OA?r?e?$CB@
  00224	48 8b 0d 00 00
	00 00		 mov	 rcx, QWORD PTR __imp_?cout@std@@3V?$basic_ostream@DU?$char_traits@D@std@@@1@A
  0022b	e8 00 00 00 00	 call	 ??$?6U?$char_traits@D@std@@@std@@YAAEAV?$basic_ostream@DU?$char_traits@D@std@@@0@AEAV10@PEBD@Z ; std::operator<<<std::char_traits<char> >

; 21   :         return 0;

  00230	c7 85 f4 05 00
	00 00 00 00 00	 mov	 DWORD PTR $T14[rbp], 0
  0023a	48 8d 8d 58 02
	00 00		 lea	 rcx, QWORD PTR Byear$[rbp]
  00241	e8 00 00 00 00	 call	 ??1?$basic_string@DU?$char_traits@D@std@@V?$allocator@D@2@@std@@QEAA@XZ ; std::basic_string<char,std::char_traits<char>,std::allocator<char> >::~basic_string<char,std::char_traits<char>,std::allocator<char> >
  00246	90		 npad	 1
  00247	48 8d 8d 18 02
	00 00		 lea	 rcx, QWORD PTR Bmonth$[rbp]
  0024e	e8 00 00 00 00	 call	 ??1?$basic_string@DU?$char_traits@D@std@@V?$allocator@D@2@@std@@QEAA@XZ ; std::basic_string<char,std::char_traits<char>,std::allocator<char> >::~basic_string<char,std::char_traits<char>,std::allocator<char> >
  00253	90		 npad	 1
  00254	48 8d 8d d8 01
	00 00		 lea	 rcx, QWORD PTR Bday$[rbp]
  0025b	e8 00 00 00 00	 call	 ??1?$basic_string@DU?$char_traits@D@std@@V?$allocator@D@2@@std@@QEAA@XZ ; std::basic_string<char,std::char_traits<char>,std::allocator<char> >::~basic_string<char,std::char_traits<char>,std::allocator<char> >
  00260	90		 npad	 1
  00261	48 8d 8d 98 01
	00 00		 lea	 rcx, QWORD PTR year$[rbp]
  00268	e8 00 00 00 00	 call	 ??1?$basic_string@DU?$char_traits@D@std@@V?$allocator@D@2@@std@@QEAA@XZ ; std::basic_string<char,std::char_traits<char>,std::allocator<char> >::~basic_string<char,std::char_traits<char>,std::allocator<char> >
  0026d	90		 npad	 1
  0026e	48 8d 8d 58 01
	00 00		 lea	 rcx, QWORD PTR month$[rbp]
  00275	e8 00 00 00 00	 call	 ??1?$basic_string@DU?$char_traits@D@std@@V?$allocator@D@2@@std@@QEAA@XZ ; std::basic_string<char,std::char_traits<char>,std::allocator<char> >::~basic_string<char,std::char_traits<char>,std::allocator<char> >
  0027a	90		 npad	 1
  0027b	48 8d 8d 18 01
	00 00		 lea	 rcx, QWORD PTR day$[rbp]
  00282	e8 00 00 00 00	 call	 ??1?$basic_string@DU?$char_traits@D@std@@V?$allocator@D@2@@std@@QEAA@XZ ; std::basic_string<char,std::char_traits<char>,std::allocator<char> >::~basic_string<char,std::char_traits<char>,std::allocator<char> >
  00287	90		 npad	 1
  00288	48 8d 8d d8 00
	00 00		 lea	 rcx, QWORD PTR dateTD$[rbp]
  0028f	e8 00 00 00 00	 call	 ??1?$basic_string@DU?$char_traits@D@std@@V?$allocator@D@2@@std@@QEAA@XZ ; std::basic_string<char,std::char_traits<char>,std::allocator<char> >::~basic_string<char,std::char_traits<char>,std::allocator<char> >
  00294	90		 npad	 1
  00295	48 8d 8d 98 00
	00 00		 lea	 rcx, QWORD PTR dateBD$[rbp]
  0029c	e8 00 00 00 00	 call	 ??1?$basic_string@DU?$char_traits@D@std@@V?$allocator@D@2@@std@@QEAA@XZ ; std::basic_string<char,std::char_traits<char>,std::allocator<char> >::~basic_string<char,std::char_traits<char>,std::allocator<char> >
  002a1	8b 85 f4 05 00
	00		 mov	 eax, DWORD PTR $T14[rbp]
  002a7	e9 dd 03 00 00	 jmp	 $LN19@main
$LN3@main:

; 22   :     }
; 23   : 
; 24   :     Bday = dateBD.substr(0, 2);

  002ac	41 b9 02 00 00
	00		 mov	 r9d, 2
  002b2	45 33 c0	 xor	 r8d, r8d
  002b5	48 8d 95 18 06
	00 00		 lea	 rdx, QWORD PTR $T15[rbp]
  002bc	48 8d 8d 98 00
	00 00		 lea	 rcx, QWORD PTR dateBD$[rbp]
  002c3	e8 00 00 00 00	 call	 ?substr@?$basic_string@DU?$char_traits@D@std@@V?$allocator@D@2@@std@@QEBA?AV12@_K0@Z ; std::basic_string<char,std::char_traits<char>,std::allocator<char> >::substr
  002c8	48 89 85 88 07
	00 00		 mov	 QWORD PTR tv319[rbp], rax
  002cf	48 8b 95 88 07
	00 00		 mov	 rdx, QWORD PTR tv319[rbp]
  002d6	48 8d 8d d8 01
	00 00		 lea	 rcx, QWORD PTR Bday$[rbp]
  002dd	e8 00 00 00 00	 call	 ??4?$basic_string@DU?$char_traits@D@std@@V?$allocator@D@2@@std@@QEAAAEAV01@$$QEAV01@@Z ; std::basic_string<char,std::char_traits<char>,std::allocator<char> >::operator=
  002e2	48 8d 8d 18 06
	00 00		 lea	 rcx, QWORD PTR $T15[rbp]
  002e9	e8 00 00 00 00	 call	 ??1?$basic_string@DU?$char_traits@D@std@@V?$allocator@D@2@@std@@QEAA@XZ ; std::basic_string<char,std::char_traits<char>,std::allocator<char> >::~basic_string<char,std::char_traits<char>,std::allocator<char> >

; 25   :     Bmonth = dateBD.substr(2, 2);

  002ee	41 b9 02 00 00
	00		 mov	 r9d, 2
  002f4	41 b8 02 00 00
	00		 mov	 r8d, 2
  002fa	48 8d 95 58 06
	00 00		 lea	 rdx, QWORD PTR $T16[rbp]
  00301	48 8d 8d 98 00
	00 00		 lea	 rcx, QWORD PTR dateBD$[rbp]
  00308	e8 00 00 00 00	 call	 ?substr@?$basic_string@DU?$char_traits@D@std@@V?$allocator@D@2@@std@@QEBA?AV12@_K0@Z ; std::basic_string<char,std::char_traits<char>,std::allocator<char> >::substr
  0030d	48 89 85 88 07
	00 00		 mov	 QWORD PTR tv321[rbp], rax
  00314	48 8b 95 88 07
	00 00		 mov	 rdx, QWORD PTR tv321[rbp]
  0031b	48 8d 8d 18 02
	00 00		 lea	 rcx, QWORD PTR Bmonth$[rbp]
  00322	e8 00 00 00 00	 call	 ??4?$basic_string@DU?$char_traits@D@std@@V?$allocator@D@2@@std@@QEAAAEAV01@$$QEAV01@@Z ; std::basic_string<char,std::char_traits<char>,std::allocator<char> >::operator=
  00327	48 8d 8d 58 06
	00 00		 lea	 rcx, QWORD PTR $T16[rbp]
  0032e	e8 00 00 00 00	 call	 ??1?$basic_string@DU?$char_traits@D@std@@V?$allocator@D@2@@std@@QEAA@XZ ; std::basic_string<char,std::char_traits<char>,std::allocator<char> >::~basic_string<char,std::char_traits<char>,std::allocator<char> >

; 26   :     Byear = dateBD.substr(4, 7);

  00333	41 b9 07 00 00
	00		 mov	 r9d, 7
  00339	41 b8 04 00 00
	00		 mov	 r8d, 4
  0033f	48 8d 95 98 06
	00 00		 lea	 rdx, QWORD PTR $T17[rbp]
  00346	48 8d 8d 98 00
	00 00		 lea	 rcx, QWORD PTR dateBD$[rbp]
  0034d	e8 00 00 00 00	 call	 ?substr@?$basic_string@DU?$char_traits@D@std@@V?$allocator@D@2@@std@@QEBA?AV12@_K0@Z ; std::basic_string<char,std::char_traits<char>,std::allocator<char> >::substr
  00352	48 89 85 88 07
	00 00		 mov	 QWORD PTR tv323[rbp], rax
  00359	48 8b 95 88 07
	00 00		 mov	 rdx, QWORD PTR tv323[rbp]
  00360	48 8d 8d 58 02
	00 00		 lea	 rcx, QWORD PTR Byear$[rbp]
  00367	e8 00 00 00 00	 call	 ??4?$basic_string@DU?$char_traits@D@std@@V?$allocator@D@2@@std@@QEAAAEAV01@$$QEAV01@@Z ; std::basic_string<char,std::char_traits<char>,std::allocator<char> >::operator=
  0036c	48 8d 8d 98 06
	00 00		 lea	 rcx, QWORD PTR $T17[rbp]
  00373	e8 00 00 00 00	 call	 ??1?$basic_string@DU?$char_traits@D@std@@V?$allocator@D@2@@std@@QEAA@XZ ; std::basic_string<char,std::char_traits<char>,std::allocator<char> >::~basic_string<char,std::char_traits<char>,std::allocator<char> >

; 27   : 
; 28   :     int BdayInt = stoi(Bday); 

  00378	41 b8 0a 00 00
	00		 mov	 r8d, 10
  0037e	33 d2		 xor	 edx, edx
  00380	48 8d 8d d8 01
	00 00		 lea	 rcx, QWORD PTR Bday$[rbp]
  00387	e8 00 00 00 00	 call	 ?stoi@std@@YAHAEBV?$basic_string@DU?$char_traits@D@std@@V?$allocator@D@2@@1@PEA_KH@Z ; std::stoi
  0038c	89 85 94 02 00
	00		 mov	 DWORD PTR BdayInt$[rbp], eax

; 29   :     int BmonthInt = stoi(Bmonth);

  00392	41 b8 0a 00 00
	00		 mov	 r8d, 10
  00398	33 d2		 xor	 edx, edx
  0039a	48 8d 8d 18 02
	00 00		 lea	 rcx, QWORD PTR Bmonth$[rbp]
  003a1	e8 00 00 00 00	 call	 ?stoi@std@@YAHAEBV?$basic_string@DU?$char_traits@D@std@@V?$allocator@D@2@@1@PEA_KH@Z ; std::stoi
  003a6	89 85 b4 02 00
	00		 mov	 DWORD PTR BmonthInt$[rbp], eax

; 30   :     int ByearInt = stoi(Byear);

  003ac	41 b8 0a 00 00
	00		 mov	 r8d, 10
  003b2	33 d2		 xor	 edx, edx
  003b4	48 8d 8d 58 02
	00 00		 lea	 rcx, QWORD PTR Byear$[rbp]
  003bb	e8 00 00 00 00	 call	 ?stoi@std@@YAHAEBV?$basic_string@DU?$char_traits@D@std@@V?$allocator@D@2@@1@PEA_KH@Z ; std::stoi
  003c0	89 85 d4 02 00
	00		 mov	 DWORD PTR ByearInt$[rbp], eax

; 31   : 
; 32   :     day = dateTD.substr(0, 2);

  003c6	41 b9 02 00 00
	00		 mov	 r9d, 2
  003cc	45 33 c0	 xor	 r8d, r8d
  003cf	48 8d 95 d8 06
	00 00		 lea	 rdx, QWORD PTR $T18[rbp]
  003d6	48 8d 8d d8 00
	00 00		 lea	 rcx, QWORD PTR dateTD$[rbp]
  003dd	e8 00 00 00 00	 call	 ?substr@?$basic_string@DU?$char_traits@D@std@@V?$allocator@D@2@@std@@QEBA?AV12@_K0@Z ; std::basic_string<char,std::char_traits<char>,std::allocator<char> >::substr
  003e2	48 89 85 88 07
	00 00		 mov	 QWORD PTR tv325[rbp], rax
  003e9	48 8b 95 88 07
	00 00		 mov	 rdx, QWORD PTR tv325[rbp]
  003f0	48 8d 8d 18 01
	00 00		 lea	 rcx, QWORD PTR day$[rbp]
  003f7	e8 00 00 00 00	 call	 ??4?$basic_string@DU?$char_traits@D@std@@V?$allocator@D@2@@std@@QEAAAEAV01@$$QEAV01@@Z ; std::basic_string<char,std::char_traits<char>,std::allocator<char> >::operator=
  003fc	48 8d 8d d8 06
	00 00		 lea	 rcx, QWORD PTR $T18[rbp]
  00403	e8 00 00 00 00	 call	 ??1?$basic_string@DU?$char_traits@D@std@@V?$allocator@D@2@@std@@QEAA@XZ ; std::basic_string<char,std::char_traits<char>,std::allocator<char> >::~basic_string<char,std::char_traits<char>,std::allocator<char> >

; 33   :     month = dateTD.substr(2, 2);

  00408	41 b9 02 00 00
	00		 mov	 r9d, 2
  0040e	41 b8 02 00 00
	00		 mov	 r8d, 2
  00414	48 8d 95 18 07
	00 00		 lea	 rdx, QWORD PTR $T19[rbp]
  0041b	48 8d 8d d8 00
	00 00		 lea	 rcx, QWORD PTR dateTD$[rbp]
  00422	e8 00 00 00 00	 call	 ?substr@?$basic_string@DU?$char_traits@D@std@@V?$allocator@D@2@@std@@QEBA?AV12@_K0@Z ; std::basic_string<char,std::char_traits<char>,std::allocator<char> >::substr
  00427	48 89 85 88 07
	00 00		 mov	 QWORD PTR tv327[rbp], rax
  0042e	48 8b 95 88 07
	00 00		 mov	 rdx, QWORD PTR tv327[rbp]
  00435	48 8d 8d 58 01
	00 00		 lea	 rcx, QWORD PTR month$[rbp]
  0043c	e8 00 00 00 00	 call	 ??4?$basic_string@DU?$char_traits@D@std@@V?$allocator@D@2@@std@@QEAAAEAV01@$$QEAV01@@Z ; std::basic_string<char,std::char_traits<char>,std::allocator<char> >::operator=
  00441	48 8d 8d 18 07
	00 00		 lea	 rcx, QWORD PTR $T19[rbp]
  00448	e8 00 00 00 00	 call	 ??1?$basic_string@DU?$char_traits@D@std@@V?$allocator@D@2@@std@@QEAA@XZ ; std::basic_string<char,std::char_traits<char>,std::allocator<char> >::~basic_string<char,std::char_traits<char>,std::allocator<char> >

; 34   :     year = dateTD.substr(4, 7);

  0044d	41 b9 07 00 00
	00		 mov	 r9d, 7
  00453	41 b8 04 00 00
	00		 mov	 r8d, 4
  00459	48 8d 95 58 07
	00 00		 lea	 rdx, QWORD PTR $T20[rbp]
  00460	48 8d 8d d8 00
	00 00		 lea	 rcx, QWORD PTR dateTD$[rbp]
  00467	e8 00 00 00 00	 call	 ?substr@?$basic_string@DU?$char_traits@D@std@@V?$allocator@D@2@@std@@QEBA?AV12@_K0@Z ; std::basic_string<char,std::char_traits<char>,std::allocator<char> >::substr
  0046c	48 89 85 88 07
	00 00		 mov	 QWORD PTR tv329[rbp], rax
  00473	48 8b 95 88 07
	00 00		 mov	 rdx, QWORD PTR tv329[rbp]
  0047a	48 8d 8d 98 01
	00 00		 lea	 rcx, QWORD PTR year$[rbp]
  00481	e8 00 00 00 00	 call	 ??4?$basic_string@DU?$char_traits@D@std@@V?$allocator@D@2@@std@@QEAAAEAV01@$$QEAV01@@Z ; std::basic_string<char,std::char_traits<char>,std::allocator<char> >::operator=
  00486	48 8d 8d 58 07
	00 00		 lea	 rcx, QWORD PTR $T20[rbp]
  0048d	e8 00 00 00 00	 call	 ??1?$basic_string@DU?$char_traits@D@std@@V?$allocator@D@2@@std@@QEAA@XZ ; std::basic_string<char,std::char_traits<char>,std::allocator<char> >::~basic_string<char,std::char_traits<char>,std::allocator<char> >

; 35   : 
; 36   :     int dayInt = stoi(day); 

  00492	41 b8 0a 00 00
	00		 mov	 r8d, 10
  00498	33 d2		 xor	 edx, edx
  0049a	48 8d 8d 18 01
	00 00		 lea	 rcx, QWORD PTR day$[rbp]
  004a1	e8 00 00 00 00	 call	 ?stoi@std@@YAHAEBV?$basic_string@DU?$char_traits@D@std@@V?$allocator@D@2@@1@PEA_KH@Z ; std::stoi
  004a6	89 85 f4 02 00
	00		 mov	 DWORD PTR dayInt$[rbp], eax

; 37   :     int monthInt = stoi(month);

  004ac	41 b8 0a 00 00
	00		 mov	 r8d, 10
  004b2	33 d2		 xor	 edx, edx
  004b4	48 8d 8d 58 01
	00 00		 lea	 rcx, QWORD PTR month$[rbp]
  004bb	e8 00 00 00 00	 call	 ?stoi@std@@YAHAEBV?$basic_string@DU?$char_traits@D@std@@V?$allocator@D@2@@1@PEA_KH@Z ; std::stoi
  004c0	89 85 14 03 00
	00		 mov	 DWORD PTR monthInt$[rbp], eax

; 38   :     int yearInt = stoi(year);

  004c6	41 b8 0a 00 00
	00		 mov	 r8d, 10
  004cc	33 d2		 xor	 edx, edx
  004ce	48 8d 8d 98 01
	00 00		 lea	 rcx, QWORD PTR year$[rbp]
  004d5	e8 00 00 00 00	 call	 ?stoi@std@@YAHAEBV?$basic_string@DU?$char_traits@D@std@@V?$allocator@D@2@@1@PEA_KH@Z ; std::stoi
  004da	89 85 34 03 00
	00		 mov	 DWORD PTR yearInt$[rbp], eax

; 39   : 
; 40   :     checkValidation(BdayInt, BmonthInt, ByearInt, daysArray);

  004e0	4c 8d 4d 48	 lea	 r9, QWORD PTR daysArray$[rbp]
  004e4	44 8b 85 d4 02
	00 00		 mov	 r8d, DWORD PTR ByearInt$[rbp]
  004eb	8b 95 b4 02 00
	00		 mov	 edx, DWORD PTR BmonthInt$[rbp]
  004f1	8b 8d 94 02 00
	00		 mov	 ecx, DWORD PTR BdayInt$[rbp]
  004f7	e8 00 00 00 00	 call	 ?checkValidation@@YAHHHHQEAH@Z ; checkValidation

; 41   :     checkValidation(dayInt, monthInt, yearInt, daysArray);

  004fc	4c 8d 4d 48	 lea	 r9, QWORD PTR daysArray$[rbp]
  00500	44 8b 85 34 03
	00 00		 mov	 r8d, DWORD PTR yearInt$[rbp]
  00507	8b 95 14 03 00
	00		 mov	 edx, DWORD PTR monthInt$[rbp]
  0050d	8b 8d f4 02 00
	00		 mov	 ecx, DWORD PTR dayInt$[rbp]
  00513	e8 00 00 00 00	 call	 ?checkValidation@@YAHHHHQEAH@Z ; checkValidation

; 42   : 
; 43   :     int countBD = countTodaysDate(BdayInt, BmonthInt, daysArray);

  00518	4c 8d 45 48	 lea	 r8, QWORD PTR daysArray$[rbp]
  0051c	8b 95 b4 02 00
	00		 mov	 edx, DWORD PTR BmonthInt$[rbp]
  00522	8b 8d 94 02 00
	00		 mov	 ecx, DWORD PTR BdayInt$[rbp]
  00528	e8 00 00 00 00	 call	 ?countTodaysDate@@YAHHHQEAH@Z ; countTodaysDate
  0052d	89 85 54 03 00
	00		 mov	 DWORD PTR countBD$[rbp], eax

; 44   :     int countTD = countTodaysDate(dayInt, monthInt, daysArray);

  00533	4c 8d 45 48	 lea	 r8, QWORD PTR daysArray$[rbp]
  00537	8b 95 14 03 00
	00		 mov	 edx, DWORD PTR monthInt$[rbp]
  0053d	8b 8d f4 02 00
	00		 mov	 ecx, DWORD PTR dayInt$[rbp]
  00543	e8 00 00 00 00	 call	 ?countTodaysDate@@YAHHHQEAH@Z ; countTodaysDate
  00548	89 85 74 03 00
	00		 mov	 DWORD PTR countTD$[rbp], eax

; 45   : 
; 46   :     makeLeft(yearInt, countBD, countTD, left);

  0054e	4c 8d 4d 24	 lea	 r9, QWORD PTR left$[rbp]
  00552	44 8b 85 74 03
	00 00		 mov	 r8d, DWORD PTR countTD$[rbp]
  00559	8b 95 54 03 00
	00		 mov	 edx, DWORD PTR countBD$[rbp]
  0055f	8b 8d 34 03 00
	00		 mov	 ecx, DWORD PTR yearInt$[rbp]
  00565	e8 00 00 00 00	 call	 ?makeLeft@@YAHHHHAEAH@Z	; makeLeft

; 47   :     
; 48   :     cout << "    - " << countTD << endl;

  0056a	48 8d 15 00 00
	00 00		 lea	 rdx, OFFSET FLAT:??_C@_0CF@ENAOLNIK@?O?n?p?$PP?d?j?n?b?$PL?i?5?m?n?l?e?p?5?q?e?c?n?d?m?$PP?x?m?e?c?n?5?d@
  00571	48 8b 0d 00 00
	00 00		 mov	 rcx, QWORD PTR __imp_?cout@std@@3V?$basic_ostream@DU?$char_traits@D@std@@@1@A
  00578	e8 00 00 00 00	 call	 ??$?6U?$char_traits@D@std@@@std@@YAAEAV?$basic_ostream@DU?$char_traits@D@std@@@0@AEAV10@PEBD@Z ; std::operator<<<std::char_traits<char> >
  0057d	8b 95 74 03 00
	00		 mov	 edx, DWORD PTR countTD$[rbp]
  00583	48 8b c8	 mov	 rcx, rax
  00586	ff 15 00 00 00
	00		 call	 QWORD PTR __imp_??6?$basic_ostream@DU?$char_traits@D@std@@@std@@QEAAAEAV01@H@Z
  0058c	48 8d 15 00 00
	00 00		 lea	 rdx, OFFSET FLAT:??$endl@DU?$char_traits@D@std@@@std@@YAAEAV?$basic_ostream@DU?$char_traits@D@std@@@0@AEAV10@@Z ; std::endl<char,std::char_traits<char> >
  00593	48 8b c8	 mov	 rcx, rax
  00596	ff 15 00 00 00
	00		 call	 QWORD PTR __imp_??6?$basic_ostream@DU?$char_traits@D@std@@@std@@QEAAAEAV01@P6AAEAV01@AEAV01@@Z@Z

; 49   :     left += countBD - countTD;

  0059c	8b 85 74 03 00
	00		 mov	 eax, DWORD PTR countTD$[rbp]
  005a2	8b 8d 54 03 00
	00		 mov	 ecx, DWORD PTR countBD$[rbp]
  005a8	2b c8		 sub	 ecx, eax
  005aa	8b c1		 mov	 eax, ecx
  005ac	8b 4d 24	 mov	 ecx, DWORD PTR left$[rbp]
  005af	03 c8		 add	 ecx, eax
  005b1	8b c1		 mov	 eax, ecx
  005b3	89 45 24	 mov	 DWORD PTR left$[rbp], eax

; 50   :     cout << "    - " << left << endl;

  005b6	48 8d 15 00 00
	00 00		 lea	 rdx, OFFSET FLAT:??_C@_0BM@ECJLCKJH@?D?n?5?d?m?$PP?5?P?n?f?d?e?m?h?$PP?5?n?q?r?$OA?k?n?q?$PM?5?9?5@
  005bd	48 8b 0d 00 00
	00 00		 mov	 rcx, QWORD PTR __imp_?cout@std@@3V?$basic_ostream@DU?$char_traits@D@std@@@1@A
  005c4	e8 00 00 00 00	 call	 ??$?6U?$char_traits@D@std@@@std@@YAAEAV?$basic_ostream@DU?$char_traits@D@std@@@0@AEAV10@PEBD@Z ; std::operator<<<std::char_traits<char> >
  005c9	8b 55 24	 mov	 edx, DWORD PTR left$[rbp]
  005cc	48 8b c8	 mov	 rcx, rax
  005cf	ff 15 00 00 00
	00		 call	 QWORD PTR __imp_??6?$basic_ostream@DU?$char_traits@D@std@@@std@@QEAAAEAV01@H@Z
  005d5	48 8d 15 00 00
	00 00		 lea	 rdx, OFFSET FLAT:??$endl@DU?$char_traits@D@std@@@std@@YAAEAV?$basic_ostream@DU?$char_traits@D@std@@@0@AEAV10@@Z ; std::endl<char,std::char_traits<char> >
  005dc	48 8b c8	 mov	 rcx, rax
  005df	ff 15 00 00 00
	00		 call	 QWORD PTR __imp_??6?$basic_ostream@DU?$char_traits@D@std@@@std@@QEAAAEAV01@P6AAEAV01@AEAV01@@Z@Z

; 51   :     cout << " - "; 

  005e5	48 8d 15 00 00
	00 00		 lea	 rdx, OFFSET FLAT:??_C@_08GIKPFBHL@?L?e?q?$PP?v?5?9?5@
  005ec	48 8b 0d 00 00
	00 00		 mov	 rcx, QWORD PTR __imp_?cout@std@@3V?$basic_ostream@DU?$char_traits@D@std@@@1@A
  005f3	e8 00 00 00 00	 call	 ??$?6U?$char_traits@D@std@@@std@@YAAEAV?$basic_ostream@DU?$char_traits@D@std@@@0@AEAV10@PEBD@Z ; std::operator<<<std::char_traits<char> >

; 52   :     nameMonth(monthInt);

  005f8	8b 8d 14 03 00
	00		 mov	 ecx, DWORD PTR monthInt$[rbp]
  005fe	e8 00 00 00 00	 call	 ?nameMonth@@YAXH@Z	; nameMonth

; 53   :     congrat(countTD);

  00603	8b 8d 74 03 00
	00		 mov	 ecx, DWORD PTR countTD$[rbp]
  00609	e8 00 00 00 00	 call	 ?congrat@@YAXH@Z	; congrat

; 54   : 
; 55   :     system("Pause");

  0060e	48 8d 0d 00 00
	00 00		 lea	 rcx, OFFSET FLAT:??_C@_05PEDNBBBD@Pause@
  00615	ff 15 00 00 00
	00		 call	 QWORD PTR __imp_system
  0061b	90		 npad	 1

; 56   : }

  0061c	48 8d 8d 58 02
	00 00		 lea	 rcx, QWORD PTR Byear$[rbp]
  00623	e8 00 00 00 00	 call	 ??1?$basic_string@DU?$char_traits@D@std@@V?$allocator@D@2@@std@@QEAA@XZ ; std::basic_string<char,std::char_traits<char>,std::allocator<char> >::~basic_string<char,std::char_traits<char>,std::allocator<char> >
  00628	90		 npad	 1
  00629	48 8d 8d 18 02
	00 00		 lea	 rcx, QWORD PTR Bmonth$[rbp]
  00630	e8 00 00 00 00	 call	 ??1?$basic_string@DU?$char_traits@D@std@@V?$allocator@D@2@@std@@QEAA@XZ ; std::basic_string<char,std::char_traits<char>,std::allocator<char> >::~basic_string<char,std::char_traits<char>,std::allocator<char> >
  00635	90		 npad	 1
  00636	48 8d 8d d8 01
	00 00		 lea	 rcx, QWORD PTR Bday$[rbp]
  0063d	e8 00 00 00 00	 call	 ??1?$basic_string@DU?$char_traits@D@std@@V?$allocator@D@2@@std@@QEAA@XZ ; std::basic_string<char,std::char_traits<char>,std::allocator<char> >::~basic_string<char,std::char_traits<char>,std::allocator<char> >
  00642	90		 npad	 1
  00643	48 8d 8d 98 01
	00 00		 lea	 rcx, QWORD PTR year$[rbp]
  0064a	e8 00 00 00 00	 call	 ??1?$basic_string@DU?$char_traits@D@std@@V?$allocator@D@2@@std@@QEAA@XZ ; std::basic_string<char,std::char_traits<char>,std::allocator<char> >::~basic_string<char,std::char_traits<char>,std::allocator<char> >
  0064f	90		 npad	 1
  00650	48 8d 8d 58 01
	00 00		 lea	 rcx, QWORD PTR month$[rbp]
  00657	e8 00 00 00 00	 call	 ??1?$basic_string@DU?$char_traits@D@std@@V?$allocator@D@2@@std@@QEAA@XZ ; std::basic_string<char,std::char_traits<char>,std::allocator<char> >::~basic_string<char,std::char_traits<char>,std::allocator<char> >
  0065c	90		 npad	 1
  0065d	48 8d 8d 18 01
	00 00		 lea	 rcx, QWORD PTR day$[rbp]
  00664	e8 00 00 00 00	 call	 ??1?$basic_string@DU?$char_traits@D@std@@V?$allocator@D@2@@std@@QEAA@XZ ; std::basic_string<char,std::char_traits<char>,std::allocator<char> >::~basic_string<char,std::char_traits<char>,std::allocator<char> >
  00669	90		 npad	 1
  0066a	48 8d 8d d8 00
	00 00		 lea	 rcx, QWORD PTR dateTD$[rbp]
  00671	e8 00 00 00 00	 call	 ??1?$basic_string@DU?$char_traits@D@std@@V?$allocator@D@2@@std@@QEAA@XZ ; std::basic_string<char,std::char_traits<char>,std::allocator<char> >::~basic_string<char,std::char_traits<char>,std::allocator<char> >
  00676	90		 npad	 1
  00677	48 8d 8d 98 00
	00 00		 lea	 rcx, QWORD PTR dateBD$[rbp]
  0067e	e8 00 00 00 00	 call	 ??1?$basic_string@DU?$char_traits@D@std@@V?$allocator@D@2@@std@@QEAA@XZ ; std::basic_string<char,std::char_traits<char>,std::allocator<char> >::~basic_string<char,std::char_traits<char>,std::allocator<char> >
  00683	eb 02		 jmp	 SHORT $LN20@main
  00685	eb 02		 jmp	 SHORT $LN19@main
$LN20@main:
  00687	33 c0		 xor	 eax, eax
$LN19@main:
  00689	48 8b f8	 mov	 rdi, rax
  0068c	48 8d 4d e0	 lea	 rcx, QWORD PTR [rbp-32]
  00690	48 8d 15 00 00
	00 00		 lea	 rdx, OFFSET FLAT:main$rtcFrameData
  00697	e8 00 00 00 00	 call	 _RTC_CheckStackVars
  0069c	48 8b c7	 mov	 rax, rdi
  0069f	48 8b 8d 90 07
	00 00		 mov	 rcx, QWORD PTR __$ArrayPad$[rbp]
  006a6	48 33 cd	 xor	 rcx, rbp
  006a9	e8 00 00 00 00	 call	 __security_check_cookie
  006ae	48 8d a5 a8 07
	00 00		 lea	 rsp, QWORD PTR [rbp+1960]
  006b5	5f		 pop	 rdi
  006b6	5d		 pop	 rbp
  006b7	c3		 ret	 0
main	ENDP
_TEXT	ENDS
; Function compile flags: /Odtp /RTCsu /ZI
;	COMDAT text$x
text$x	SEGMENT
todaysDate$ = 4
left$ = 36
daysArray$ = 72
dateBD$ = 152
dateTD$ = 216
day$ = 280
month$ = 344
year$ = 408
Bday$ = 472
Bmonth$ = 536
Byear$ = 600
BdayInt$ = 660
BmonthInt$ = 692
ByearInt$ = 724
dayInt$ = 756
monthInt$ = 788
yearInt$ = 820
countBD$ = 852
countTD$ = 884
$T13 = 1492
$T14 = 1524
$T15 = 1560
$T16 = 1624
$T17 = 1688
$T18 = 1752
$T19 = 1816
$T20 = 1880
tv329 = 1928
tv327 = 1928
tv325 = 1928
tv323 = 1928
tv321 = 1928
tv319 = 1928
__$ArrayPad$ = 1936
main$dtor$0 PROC
  00000	48 89 4c 24 08	 mov	 QWORD PTR [rsp+8], rcx
  00005	48 89 54 24 10	 mov	 QWORD PTR [rsp+16], rdx
  0000a	55		 push	 rbp
  0000b	57		 push	 rdi
  0000c	48 83 ec 28	 sub	 rsp, 40			; 00000028H
  00010	48 8d 6a 20	 lea	 rbp, QWORD PTR [rdx+32]
  00014	48 8d 8d 98 00
	00 00		 lea	 rcx, QWORD PTR dateBD$[rbp]
  0001b	e8 00 00 00 00	 call	 ??1?$basic_string@DU?$char_traits@D@std@@V?$allocator@D@2@@std@@QEAA@XZ ; std::basic_string<char,std::char_traits<char>,std::allocator<char> >::~basic_string<char,std::char_traits<char>,std::allocator<char> >
  00020	48 83 c4 28	 add	 rsp, 40			; 00000028H
  00024	5f		 pop	 rdi
  00025	5d		 pop	 rbp
  00026	c3		 ret	 0
main$dtor$0 ENDP
text$x	ENDS
; Function compile flags: /Odtp /RTCsu /ZI
;	COMDAT text$x
text$x	SEGMENT
todaysDate$ = 4
left$ = 36
daysArray$ = 72
dateBD$ = 152
dateTD$ = 216
day$ = 280
month$ = 344
year$ = 408
Bday$ = 472
Bmonth$ = 536
Byear$ = 600
BdayInt$ = 660
BmonthInt$ = 692
ByearInt$ = 724
dayInt$ = 756
monthInt$ = 788
yearInt$ = 820
countBD$ = 852
countTD$ = 884
$T13 = 1492
$T14 = 1524
$T15 = 1560
$T16 = 1624
$T17 = 1688
$T18 = 1752
$T19 = 1816
$T20 = 1880
tv329 = 1928
tv327 = 1928
tv325 = 1928
tv323 = 1928
tv321 = 1928
tv319 = 1928
__$ArrayPad$ = 1936
main$dtor$1 PROC
  00000	48 89 4c 24 08	 mov	 QWORD PTR [rsp+8], rcx
  00005	48 89 54 24 10	 mov	 QWORD PTR [rsp+16], rdx
  0000a	55		 push	 rbp
  0000b	57		 push	 rdi
  0000c	48 83 ec 28	 sub	 rsp, 40			; 00000028H
  00010	48 8d 6a 20	 lea	 rbp, QWORD PTR [rdx+32]
  00014	48 8d 8d d8 00
	00 00		 lea	 rcx, QWORD PTR dateTD$[rbp]
  0001b	e8 00 00 00 00	 call	 ??1?$basic_string@DU?$char_traits@D@std@@V?$allocator@D@2@@std@@QEAA@XZ ; std::basic_string<char,std::char_traits<char>,std::allocator<char> >::~basic_string<char,std::char_traits<char>,std::allocator<char> >
  00020	48 83 c4 28	 add	 rsp, 40			; 00000028H
  00024	5f		 pop	 rdi
  00025	5d		 pop	 rbp
  00026	c3		 ret	 0
main$dtor$1 ENDP
text$x	ENDS
; Function compile flags: /Odtp /RTCsu /ZI
;	COMDAT text$x
text$x	SEGMENT
todaysDate$ = 4
left$ = 36
daysArray$ = 72
dateBD$ = 152
dateTD$ = 216
day$ = 280
month$ = 344
year$ = 408
Bday$ = 472
Bmonth$ = 536
Byear$ = 600
BdayInt$ = 660
BmonthInt$ = 692
ByearInt$ = 724
dayInt$ = 756
monthInt$ = 788
yearInt$ = 820
countBD$ = 852
countTD$ = 884
$T13 = 1492
$T14 = 1524
$T15 = 1560
$T16 = 1624
$T17 = 1688
$T18 = 1752
$T19 = 1816
$T20 = 1880
tv329 = 1928
tv327 = 1928
tv325 = 1928
tv323 = 1928
tv321 = 1928
tv319 = 1928
__$ArrayPad$ = 1936
main$dtor$2 PROC
  00000	48 89 4c 24 08	 mov	 QWORD PTR [rsp+8], rcx
  00005	48 89 54 24 10	 mov	 QWORD PTR [rsp+16], rdx
  0000a	55		 push	 rbp
  0000b	57		 push	 rdi
  0000c	48 83 ec 28	 sub	 rsp, 40			; 00000028H
  00010	48 8d 6a 20	 lea	 rbp, QWORD PTR [rdx+32]
  00014	48 8d 8d 18 01
	00 00		 lea	 rcx, QWORD PTR day$[rbp]
  0001b	e8 00 00 00 00	 call	 ??1?$basic_string@DU?$char_traits@D@std@@V?$allocator@D@2@@std@@QEAA@XZ ; std::basic_string<char,std::char_traits<char>,std::allocator<char> >::~basic_string<char,std::char_traits<char>,std::allocator<char> >
  00020	48 83 c4 28	 add	 rsp, 40			; 00000028H
  00024	5f		 pop	 rdi
  00025	5d		 pop	 rbp
  00026	c3		 ret	 0
main$dtor$2 ENDP
text$x	ENDS
; Function compile flags: /Odtp /RTCsu /ZI
;	COMDAT text$x
text$x	SEGMENT
todaysDate$ = 4
left$ = 36
daysArray$ = 72
dateBD$ = 152
dateTD$ = 216
day$ = 280
month$ = 344
year$ = 408
Bday$ = 472
Bmonth$ = 536
Byear$ = 600
BdayInt$ = 660
BmonthInt$ = 692
ByearInt$ = 724
dayInt$ = 756
monthInt$ = 788
yearInt$ = 820
countBD$ = 852
countTD$ = 884
$T13 = 1492
$T14 = 1524
$T15 = 1560
$T16 = 1624
$T17 = 1688
$T18 = 1752
$T19 = 1816
$T20 = 1880
tv329 = 1928
tv327 = 1928
tv325 = 1928
tv323 = 1928
tv321 = 1928
tv319 = 1928
__$ArrayPad$ = 1936
main$dtor$3 PROC
  00000	48 89 4c 24 08	 mov	 QWORD PTR [rsp+8], rcx
  00005	48 89 54 24 10	 mov	 QWORD PTR [rsp+16], rdx
  0000a	55		 push	 rbp
  0000b	57		 push	 rdi
  0000c	48 83 ec 28	 sub	 rsp, 40			; 00000028H
  00010	48 8d 6a 20	 lea	 rbp, QWORD PTR [rdx+32]
  00014	48 8d 8d 58 01
	00 00		 lea	 rcx, QWORD PTR month$[rbp]
  0001b	e8 00 00 00 00	 call	 ??1?$basic_string@DU?$char_traits@D@std@@V?$allocator@D@2@@std@@QEAA@XZ ; std::basic_string<char,std::char_traits<char>,std::allocator<char> >::~basic_string<char,std::char_traits<char>,std::allocator<char> >
  00020	48 83 c4 28	 add	 rsp, 40			; 00000028H
  00024	5f		 pop	 rdi
  00025	5d		 pop	 rbp
  00026	c3		 ret	 0
main$dtor$3 ENDP
text$x	ENDS
; Function compile flags: /Odtp /RTCsu /ZI
;	COMDAT text$x
text$x	SEGMENT
todaysDate$ = 4
left$ = 36
daysArray$ = 72
dateBD$ = 152
dateTD$ = 216
day$ = 280
month$ = 344
year$ = 408
Bday$ = 472
Bmonth$ = 536
Byear$ = 600
BdayInt$ = 660
BmonthInt$ = 692
ByearInt$ = 724
dayInt$ = 756
monthInt$ = 788
yearInt$ = 820
countBD$ = 852
countTD$ = 884
$T13 = 1492
$T14 = 1524
$T15 = 1560
$T16 = 1624
$T17 = 1688
$T18 = 1752
$T19 = 1816
$T20 = 1880
tv329 = 1928
tv327 = 1928
tv325 = 1928
tv323 = 1928
tv321 = 1928
tv319 = 1928
__$ArrayPad$ = 1936
main$dtor$4 PROC
  00000	48 89 4c 24 08	 mov	 QWORD PTR [rsp+8], rcx
  00005	48 89 54 24 10	 mov	 QWORD PTR [rsp+16], rdx
  0000a	55		 push	 rbp
  0000b	57		 push	 rdi
  0000c	48 83 ec 28	 sub	 rsp, 40			; 00000028H
  00010	48 8d 6a 20	 lea	 rbp, QWORD PTR [rdx+32]
  00014	48 8d 8d 98 01
	00 00		 lea	 rcx, QWORD PTR year$[rbp]
  0001b	e8 00 00 00 00	 call	 ??1?$basic_string@DU?$char_traits@D@std@@V?$allocator@D@2@@std@@QEAA@XZ ; std::basic_string<char,std::char_traits<char>,std::allocator<char> >::~basic_string<char,std::char_traits<char>,std::allocator<char> >
  00020	48 83 c4 28	 add	 rsp, 40			; 00000028H
  00024	5f		 pop	 rdi
  00025	5d		 pop	 rbp
  00026	c3		 ret	 0
main$dtor$4 ENDP
text$x	ENDS
; Function compile flags: /Odtp /RTCsu /ZI
;	COMDAT text$x
text$x	SEGMENT
todaysDate$ = 4
left$ = 36
daysArray$ = 72
dateBD$ = 152
dateTD$ = 216
day$ = 280
month$ = 344
year$ = 408
Bday$ = 472
Bmonth$ = 536
Byear$ = 600
BdayInt$ = 660
BmonthInt$ = 692
ByearInt$ = 724
dayInt$ = 756
monthInt$ = 788
yearInt$ = 820
countBD$ = 852
countTD$ = 884
$T13 = 1492
$T14 = 1524
$T15 = 1560
$T16 = 1624
$T17 = 1688
$T18 = 1752
$T19 = 1816
$T20 = 1880
tv329 = 1928
tv327 = 1928
tv325 = 1928
tv323 = 1928
tv321 = 1928
tv319 = 1928
__$ArrayPad$ = 1936
main$dtor$5 PROC
  00000	48 89 4c 24 08	 mov	 QWORD PTR [rsp+8], rcx
  00005	48 89 54 24 10	 mov	 QWORD PTR [rsp+16], rdx
  0000a	55		 push	 rbp
  0000b	57		 push	 rdi
  0000c	48 83 ec 28	 sub	 rsp, 40			; 00000028H
  00010	48 8d 6a 20	 lea	 rbp, QWORD PTR [rdx+32]
  00014	48 8d 8d d8 01
	00 00		 lea	 rcx, QWORD PTR Bday$[rbp]
  0001b	e8 00 00 00 00	 call	 ??1?$basic_string@DU?$char_traits@D@std@@V?$allocator@D@2@@std@@QEAA@XZ ; std::basic_string<char,std::char_traits<char>,std::allocator<char> >::~basic_string<char,std::char_traits<char>,std::allocator<char> >
  00020	48 83 c4 28	 add	 rsp, 40			; 00000028H
  00024	5f		 pop	 rdi
  00025	5d		 pop	 rbp
  00026	c3		 ret	 0
main$dtor$5 ENDP
text$x	ENDS
; Function compile flags: /Odtp /RTCsu /ZI
;	COMDAT text$x
text$x	SEGMENT
todaysDate$ = 4
left$ = 36
daysArray$ = 72
dateBD$ = 152
dateTD$ = 216
day$ = 280
month$ = 344
year$ = 408
Bday$ = 472
Bmonth$ = 536
Byear$ = 600
BdayInt$ = 660
BmonthInt$ = 692
ByearInt$ = 724
dayInt$ = 756
monthInt$ = 788
yearInt$ = 820
countBD$ = 852
countTD$ = 884
$T13 = 1492
$T14 = 1524
$T15 = 1560
$T16 = 1624
$T17 = 1688
$T18 = 1752
$T19 = 1816
$T20 = 1880
tv329 = 1928
tv327 = 1928
tv325 = 1928
tv323 = 1928
tv321 = 1928
tv319 = 1928
__$ArrayPad$ = 1936
main$dtor$6 PROC
  00000	48 89 4c 24 08	 mov	 QWORD PTR [rsp+8], rcx
  00005	48 89 54 24 10	 mov	 QWORD PTR [rsp+16], rdx
  0000a	55		 push	 rbp
  0000b	57		 push	 rdi
  0000c	48 83 ec 28	 sub	 rsp, 40			; 00000028H
  00010	48 8d 6a 20	 lea	 rbp, QWORD PTR [rdx+32]
  00014	48 8d 8d 18 02
	00 00		 lea	 rcx, QWORD PTR Bmonth$[rbp]
  0001b	e8 00 00 00 00	 call	 ??1?$basic_string@DU?$char_traits@D@std@@V?$allocator@D@2@@std@@QEAA@XZ ; std::basic_string<char,std::char_traits<char>,std::allocator<char> >::~basic_string<char,std::char_traits<char>,std::allocator<char> >
  00020	48 83 c4 28	 add	 rsp, 40			; 00000028H
  00024	5f		 pop	 rdi
  00025	5d		 pop	 rbp
  00026	c3		 ret	 0
main$dtor$6 ENDP
text$x	ENDS
; Function compile flags: /Odtp /RTCsu /ZI
;	COMDAT text$x
text$x	SEGMENT
todaysDate$ = 4
left$ = 36
daysArray$ = 72
dateBD$ = 152
dateTD$ = 216
day$ = 280
month$ = 344
year$ = 408
Bday$ = 472
Bmonth$ = 536
Byear$ = 600
BdayInt$ = 660
BmonthInt$ = 692
ByearInt$ = 724
dayInt$ = 756
monthInt$ = 788
yearInt$ = 820
countBD$ = 852
countTD$ = 884
$T13 = 1492
$T14 = 1524
$T15 = 1560
$T16 = 1624
$T17 = 1688
$T18 = 1752
$T19 = 1816
$T20 = 1880
tv329 = 1928
tv327 = 1928
tv325 = 1928
tv323 = 1928
tv321 = 1928
tv319 = 1928
__$ArrayPad$ = 1936
main$dtor$7 PROC
  00000	48 89 4c 24 08	 mov	 QWORD PTR [rsp+8], rcx
  00005	48 89 54 24 10	 mov	 QWORD PTR [rsp+16], rdx
  0000a	55		 push	 rbp
  0000b	57		 push	 rdi
  0000c	48 83 ec 28	 sub	 rsp, 40			; 00000028H
  00010	48 8d 6a 20	 lea	 rbp, QWORD PTR [rdx+32]
  00014	48 8d 8d 58 02
	00 00		 lea	 rcx, QWORD PTR Byear$[rbp]
  0001b	e8 00 00 00 00	 call	 ??1?$basic_string@DU?$char_traits@D@std@@V?$allocator@D@2@@std@@QEAA@XZ ; std::basic_string<char,std::char_traits<char>,std::allocator<char> >::~basic_string<char,std::char_traits<char>,std::allocator<char> >
  00020	48 83 c4 28	 add	 rsp, 40			; 00000028H
  00024	5f		 pop	 rdi
  00025	5d		 pop	 rbp
  00026	c3		 ret	 0
main$dtor$7 ENDP
text$x	ENDS
; Function compile flags: /Odtp /RTCsu /ZI
; File C:\Program Files\Microsoft Visual Studio\2022\Community\VC\Tools\MSVC\14.37.32822\include\string
;	COMDAT ?stoi@std@@YAHAEBV?$basic_string@DU?$char_traits@D@std@@V?$allocator@D@2@@1@PEA_KH@Z
_TEXT	SEGMENT
_Errno_ref$ = 8
_Ptr$ = 40
_Eptr$ = 72
_Ans$ = 100
__$ArrayPad$ = 312
_Str$ = 352
_Idx$ = 360
_Base$ = 368
?stoi@std@@YAHAEBV?$basic_string@DU?$char_traits@D@std@@V?$allocator@D@2@@1@PEA_KH@Z PROC ; std::stoi, COMDAT

; 89   : _EXPORT_STD _NODISCARD inline int stoi(const string& _Str, size_t* _Idx = nullptr, int _Base = 10) {

$LN6:
  00000	44 89 44 24 18	 mov	 DWORD PTR [rsp+24], r8d
  00005	48 89 54 24 10	 mov	 QWORD PTR [rsp+16], rdx
  0000a	48 89 4c 24 08	 mov	 QWORD PTR [rsp+8], rcx
  0000f	55		 push	 rbp
  00010	57		 push	 rdi
  00011	48 81 ec 68 01
	00 00		 sub	 rsp, 360		; 00000168H
  00018	48 8d 6c 24 20	 lea	 rbp, QWORD PTR [rsp+32]
  0001d	48 8d 7c 24 20	 lea	 rdi, QWORD PTR [rsp+32]
  00022	b9 22 00 00 00	 mov	 ecx, 34			; 00000022H
  00027	b8 cc cc cc cc	 mov	 eax, -858993460		; ccccccccH
  0002c	f3 ab		 rep stosd
  0002e	48 8b 8c 24 88
	01 00 00	 mov	 rcx, QWORD PTR [rsp+392]
  00036	48 8b 05 00 00
	00 00		 mov	 rax, QWORD PTR __security_cookie
  0003d	48 33 c5	 xor	 rax, rbp
  00040	48 89 85 38 01
	00 00		 mov	 QWORD PTR __$ArrayPad$[rbp], rax
  00047	48 8d 0d 00 00
	00 00		 lea	 rcx, OFFSET FLAT:__273C093E_string
  0004e	e8 00 00 00 00	 call	 __CheckForDebuggerJustMyCode

; 90   :     int& _Errno_ref  = errno; // Nonzero cost, pay it once

  00053	ff 15 00 00 00
	00		 call	 QWORD PTR __imp__errno
  00059	48 89 45 08	 mov	 QWORD PTR _Errno_ref$[rbp], rax

; 91   :     const char* _Ptr = _Str.c_str();

  0005d	48 8b 8d 60 01
	00 00		 mov	 rcx, QWORD PTR _Str$[rbp]
  00064	e8 00 00 00 00	 call	 ?c_str@?$basic_string@DU?$char_traits@D@std@@V?$allocator@D@2@@std@@QEBAPEBDXZ ; std::basic_string<char,std::char_traits<char>,std::allocator<char> >::c_str
  00069	48 89 45 28	 mov	 QWORD PTR _Ptr$[rbp], rax

; 92   :     char* _Eptr;
; 93   :     _Errno_ref      = 0;

  0006d	48 8b 45 08	 mov	 rax, QWORD PTR _Errno_ref$[rbp]
  00071	c7 00 00 00 00
	00		 mov	 DWORD PTR [rax], 0

; 94   :     const long _Ans = _CSTD strtol(_Ptr, &_Eptr, _Base);

  00077	44 8b 85 70 01
	00 00		 mov	 r8d, DWORD PTR _Base$[rbp]
  0007e	48 8d 55 48	 lea	 rdx, QWORD PTR _Eptr$[rbp]
  00082	48 8b 4d 28	 mov	 rcx, QWORD PTR _Ptr$[rbp]
  00086	ff 15 00 00 00
	00		 call	 QWORD PTR __imp_strtol
  0008c	89 45 64	 mov	 DWORD PTR _Ans$[rbp], eax

; 95   : 
; 96   :     if (_Ptr == _Eptr) {

  0008f	48 8b 45 48	 mov	 rax, QWORD PTR _Eptr$[rbp]
  00093	48 39 45 28	 cmp	 QWORD PTR _Ptr$[rbp], rax
  00097	75 0c		 jne	 SHORT $LN2@stoi

; 97   :         _Xinvalid_argument("invalid stoi argument");

  00099	48 8d 0d 00 00
	00 00		 lea	 rcx, OFFSET FLAT:??_C@_0BG@HGEDEDEC@invalid?5stoi?5argument@
  000a0	e8 00 00 00 00	 call	 ?_Xinvalid_argument@std@@YAXPEBD@Z ; std::_Xinvalid_argument
$LN2@stoi:

; 98   :     }
; 99   : 
; 100  :     if (_Errno_ref == ERANGE) {

  000a5	48 8b 45 08	 mov	 rax, QWORD PTR _Errno_ref$[rbp]
  000a9	83 38 22	 cmp	 DWORD PTR [rax], 34	; 00000022H
  000ac	75 0c		 jne	 SHORT $LN3@stoi

; 101  :         _Xout_of_range("stoi argument out of range");

  000ae	48 8d 0d 00 00
	00 00		 lea	 rcx, OFFSET FLAT:??_C@_0BL@MFFNMGGC@stoi?5argument?5out?5of?5range@
  000b5	e8 00 00 00 00	 call	 ?_Xout_of_range@std@@YAXPEBD@Z ; std::_Xout_of_range
$LN3@stoi:

; 102  :     }
; 103  : 
; 104  :     if (_Idx) {

  000ba	48 83 bd 68 01
	00 00 00	 cmp	 QWORD PTR _Idx$[rbp], 0
  000c2	74 18		 je	 SHORT $LN4@stoi

; 105  :         *_Idx = static_cast<size_t>(_Eptr - _Ptr);

  000c4	48 8b 45 28	 mov	 rax, QWORD PTR _Ptr$[rbp]
  000c8	48 8b 4d 48	 mov	 rcx, QWORD PTR _Eptr$[rbp]
  000cc	48 2b c8	 sub	 rcx, rax
  000cf	48 8b c1	 mov	 rax, rcx
  000d2	48 8b 8d 68 01
	00 00		 mov	 rcx, QWORD PTR _Idx$[rbp]
  000d9	48 89 01	 mov	 QWORD PTR [rcx], rax
$LN4@stoi:

; 106  :     }
; 107  : 
; 108  :     return static_cast<int>(_Ans);

  000dc	8b 45 64	 mov	 eax, DWORD PTR _Ans$[rbp]
$LN5@stoi:

; 109  : }

  000df	48 8b f8	 mov	 rdi, rax
  000e2	48 8d 4d e0	 lea	 rcx, QWORD PTR [rbp-32]
  000e6	48 8d 15 00 00
	00 00		 lea	 rdx, OFFSET FLAT:?stoi@std@@YAHAEBV?$basic_string@DU?$char_traits@D@std@@V?$allocator@D@2@@1@PEA_KH@Z$rtcFrameData
  000ed	e8 00 00 00 00	 call	 _RTC_CheckStackVars
  000f2	48 8b c7	 mov	 rax, rdi
  000f5	48 8b 8d 38 01
	00 00		 mov	 rcx, QWORD PTR __$ArrayPad$[rbp]
  000fc	48 33 cd	 xor	 rcx, rbp
  000ff	e8 00 00 00 00	 call	 __security_check_cookie
  00104	48 8d a5 48 01
	00 00		 lea	 rsp, QWORD PTR [rbp+328]
  0010b	5f		 pop	 rdi
  0010c	5d		 pop	 rbp
  0010d	c3		 ret	 0
?stoi@std@@YAHAEBV?$basic_string@DU?$char_traits@D@std@@V?$allocator@D@2@@1@PEA_KH@Z ENDP ; std::stoi
_TEXT	ENDS
; Function compile flags: /Odtp /RTCsu /ZI
; File C:\Program Files\Microsoft Visual Studio\2022\Community\VC\Tools\MSVC\14.37.32822\include\xlocale
;	COMDAT ??$use_facet@V?$ctype@D@std@@@std@@YAAEBV?$ctype@D@0@AEBVlocale@0@@Z
_TEXT	SEGMENT
_Lock$6 = 4
_Psave$7 = 40
_Id$8 = 72
_Pf$9 = 104
_Pfmod$10 = 136
_Psave_guard$11 = 168
$T12 = 392
__$ArrayPad$ = 408
_Loc$ = 448
??$use_facet@V?$ctype@D@std@@@std@@YAAEBV?$ctype@D@0@AEBVlocale@0@@Z PROC ; std::use_facet<std::ctype<char> >, COMDAT

; 422  : const _Facet& __CRTDECL use_facet(const locale& _Loc) { // get facet reference from locale

$LN11:
  00000	48 89 4c 24 08	 mov	 QWORD PTR [rsp+8], rcx
  00005	55		 push	 rbp
  00006	57		 push	 rdi
  00007	48 81 ec c8 01
	00 00		 sub	 rsp, 456		; 000001c8H
  0000e	48 8d 6c 24 20	 lea	 rbp, QWORD PTR [rsp+32]
  00013	48 8d 7c 24 20	 lea	 rdi, QWORD PTR [rsp+32]
  00018	b9 3a 00 00 00	 mov	 ecx, 58			; 0000003aH
  0001d	b8 cc cc cc cc	 mov	 eax, -858993460		; ccccccccH
  00022	f3 ab		 rep stosd
  00024	48 8b 8c 24 e8
	01 00 00	 mov	 rcx, QWORD PTR [rsp+488]
  0002c	48 8b 05 00 00
	00 00		 mov	 rax, QWORD PTR __security_cookie
  00033	48 33 c5	 xor	 rax, rbp
  00036	48 89 85 98 01
	00 00		 mov	 QWORD PTR __$ArrayPad$[rbp], rax
  0003d	48 8d 0d 00 00
	00 00		 lea	 rcx, OFFSET FLAT:__0E794DD8_xlocale
  00044	e8 00 00 00 00	 call	 __CheckForDebuggerJustMyCode

; 423  :     _BEGIN_LOCK(_LOCK_LOCALE) // the thread lock, make get atomic

  00049	33 d2		 xor	 edx, edx
  0004b	48 8d 4d 04	 lea	 rcx, QWORD PTR _Lock$6[rbp]
  0004f	ff 15 00 00 00
	00		 call	 QWORD PTR __imp_??0_Lockit@std@@QEAA@H@Z
  00055	90		 npad	 1

; 424  :     const locale::facet* _Psave = _Facetptr<_Facet>::_Psave; // static pointer to lazy facet

  00056	48 8b 05 00 00
	00 00		 mov	 rax, QWORD PTR ?_Psave@?$_Facetptr@V?$ctype@D@std@@@std@@2PEBVfacet@locale@2@EB ; std::_Facetptr<std::ctype<char> >::_Psave
  0005d	48 89 45 28	 mov	 QWORD PTR _Psave$7[rbp], rax

; 425  : 
; 426  :     const size_t _Id         = _Facet::id;

  00061	48 8b 0d 00 00
	00 00		 mov	 rcx, QWORD PTR __imp_?id@?$ctype@D@std@@2V0locale@2@A
  00068	ff 15 00 00 00
	00		 call	 QWORD PTR __imp_??Bid@locale@std@@QEAA_KXZ
  0006e	48 89 45 48	 mov	 QWORD PTR _Id$8[rbp], rax

; 427  :     const locale::facet* _Pf = _Loc._Getfacet(_Id);

  00072	48 8b 55 48	 mov	 rdx, QWORD PTR _Id$8[rbp]
  00076	48 8b 8d c0 01
	00 00		 mov	 rcx, QWORD PTR _Loc$[rbp]
  0007d	e8 00 00 00 00	 call	 ?_Getfacet@locale@std@@QEBAPEBVfacet@12@_K@Z ; std::locale::_Getfacet
  00082	48 89 45 68	 mov	 QWORD PTR _Pf$9[rbp], rax

; 428  : 
; 429  :     if (!_Pf) {

  00086	48 83 7d 68 00	 cmp	 QWORD PTR _Pf$9[rbp], 0
  0008b	0f 85 af 00 00
	00		 jne	 $LN2@use_facet

; 430  :         if (_Psave) {

  00091	48 83 7d 28 00	 cmp	 QWORD PTR _Psave$7[rbp], 0
  00096	74 0d		 je	 SHORT $LN3@use_facet

; 431  :             _Pf = _Psave; // lazy facet already allocated

  00098	48 8b 45 28	 mov	 rax, QWORD PTR _Psave$7[rbp]
  0009c	48 89 45 68	 mov	 QWORD PTR _Pf$9[rbp], rax
  000a0	e9 9b 00 00 00	 jmp	 $LN2@use_facet
$LN3@use_facet:

; 432  :         } else if (_Facet::_Getcat(&_Psave, &_Loc) == static_cast<size_t>(-1)) {

  000a5	48 8b 95 c0 01
	00 00		 mov	 rdx, QWORD PTR _Loc$[rbp]
  000ac	48 8d 4d 28	 lea	 rcx, QWORD PTR _Psave$7[rbp]
  000b0	ff 15 00 00 00
	00		 call	 QWORD PTR __imp_?_Getcat@?$ctype@D@std@@SA_KPEAPEBVfacet@locale@2@PEBV42@@Z
  000b6	48 83 f8 ff	 cmp	 rax, -1
  000ba	75 08		 jne	 SHORT $LN5@use_facet

; 433  : #if _HAS_EXCEPTIONS
; 434  :             _Throw_bad_cast(); // lazy disallowed

  000bc	e8 00 00 00 00	 call	 ?_Throw_bad_cast@std@@YAXXZ ; std::_Throw_bad_cast
  000c1	90		 npad	 1

; 435  : #else // _HAS_EXCEPTIONS
; 436  :             _CSTD abort(); // lazy disallowed
; 437  : #endif // _HAS_EXCEPTIONS
; 438  :         } else { // queue up lazy facet for destruction

  000c2	eb 7c		 jmp	 SHORT $LN2@use_facet
$LN5@use_facet:

; 439  :             auto _Pfmod = const_cast<locale::facet*>(_Psave);

  000c4	48 8b 45 28	 mov	 rax, QWORD PTR _Psave$7[rbp]
  000c8	48 89 85 88 00
	00 00		 mov	 QWORD PTR _Pfmod$10[rbp], rax

; 440  :             unique_ptr<_Facet_base> _Psave_guard(static_cast<_Facet_base*>(_Pfmod));

  000cf	ba 08 00 00 00	 mov	 edx, 8
  000d4	48 8d 8d a8 00
	00 00		 lea	 rcx, QWORD PTR _Psave_guard$11[rbp]
  000db	e8 00 00 00 00	 call	 ?__autoclassinit2@?$unique_ptr@V_Facet_base@std@@U?$default_delete@V_Facet_base@std@@@2@@std@@QEAAX_K@Z
  000e0	48 8b 95 88 00
	00 00		 mov	 rdx, QWORD PTR _Pfmod$10[rbp]
  000e7	48 8d 8d a8 00
	00 00		 lea	 rcx, QWORD PTR _Psave_guard$11[rbp]
  000ee	e8 00 00 00 00	 call	 ??$?0U?$default_delete@V_Facet_base@std@@@std@@$0A@@?$unique_ptr@V_Facet_base@std@@U?$default_delete@V_Facet_base@std@@@2@@std@@QEAA@PEAV_Facet_base@1@@Z ; std::unique_ptr<std::_Facet_base,std::default_delete<std::_Facet_base> >::unique_ptr<std::_Facet_base,std::default_delete<std::_Facet_base> ><std::default_delete<std::_Facet_base>,0>
  000f3	90		 npad	 1

; 441  : 
; 442  : #if defined(_M_CEE)
; 443  :             _Facet_Register_m(_Pfmod);
; 444  : #else // defined(_M_CEE)
; 445  :             _Facet_Register(_Pfmod);

  000f4	48 8b 8d 88 00
	00 00		 mov	 rcx, QWORD PTR _Pfmod$10[rbp]
  000fb	e8 00 00 00 00	 call	 ?_Facet_Register@std@@YAXPEAV_Facet_base@1@@Z ; std::_Facet_Register

; 446  : #endif // defined(_M_CEE)
; 447  : 
; 448  :             _Pfmod->_Incref();

  00100	48 8b 85 88 00
	00 00		 mov	 rax, QWORD PTR _Pfmod$10[rbp]
  00107	48 8b 00	 mov	 rax, QWORD PTR [rax]
  0010a	48 8b 8d 88 00
	00 00		 mov	 rcx, QWORD PTR _Pfmod$10[rbp]
  00111	ff 50 08	 call	 QWORD PTR [rax+8]

; 449  :             _Facetptr<_Facet>::_Psave = _Psave;

  00114	48 8b 45 28	 mov	 rax, QWORD PTR _Psave$7[rbp]
  00118	48 89 05 00 00
	00 00		 mov	 QWORD PTR ?_Psave@?$_Facetptr@V?$ctype@D@std@@@std@@2PEBVfacet@locale@2@EB, rax ; std::_Facetptr<std::ctype<char> >::_Psave

; 450  :             _Pf                       = _Psave;

  0011f	48 8b 45 28	 mov	 rax, QWORD PTR _Psave$7[rbp]
  00123	48 89 45 68	 mov	 QWORD PTR _Pf$9[rbp], rax

; 451  : 
; 452  :             (void) _Psave_guard.release();

  00127	48 8d 8d a8 00
	00 00		 lea	 rcx, QWORD PTR _Psave_guard$11[rbp]
  0012e	e8 00 00 00 00	 call	 ?release@?$unique_ptr@V_Facet_base@std@@U?$default_delete@V_Facet_base@std@@@2@@std@@QEAAPEAV_Facet_base@2@XZ ; std::unique_ptr<std::_Facet_base,std::default_delete<std::_Facet_base> >::release
  00133	90		 npad	 1

; 453  :         }

  00134	48 8d 8d a8 00
	00 00		 lea	 rcx, QWORD PTR _Psave_guard$11[rbp]
  0013b	e8 00 00 00 00	 call	 ??1?$unique_ptr@V_Facet_base@std@@U?$default_delete@V_Facet_base@std@@@2@@std@@QEAA@XZ ; std::unique_ptr<std::_Facet_base,std::default_delete<std::_Facet_base> >::~unique_ptr<std::_Facet_base,std::default_delete<std::_Facet_base> >
$LN2@use_facet:

; 454  :     }
; 455  : 
; 456  :     return static_cast<const _Facet&>(*_Pf); // should be dynamic_cast

  00140	48 8b 45 68	 mov	 rax, QWORD PTR _Pf$9[rbp]
  00144	48 89 85 88 01
	00 00		 mov	 QWORD PTR $T12[rbp], rax
  0014b	48 8d 4d 04	 lea	 rcx, QWORD PTR _Lock$6[rbp]
  0014f	ff 15 00 00 00
	00		 call	 QWORD PTR __imp_??1_Lockit@std@@QEAA@XZ
  00155	48 8b 85 88 01
	00 00		 mov	 rax, QWORD PTR $T12[rbp]

; 457  :     _END_LOCK()
; 458  : } // end of use_facet body

  0015c	48 8b f8	 mov	 rdi, rax
  0015f	48 8d 4d e0	 lea	 rcx, QWORD PTR [rbp-32]
  00163	48 8d 15 00 00
	00 00		 lea	 rdx, OFFSET FLAT:??$use_facet@V?$ctype@D@std@@@std@@YAAEBV?$ctype@D@0@AEBVlocale@0@@Z$rtcFrameData
  0016a	e8 00 00 00 00	 call	 _RTC_CheckStackVars
  0016f	48 8b c7	 mov	 rax, rdi
  00172	48 8b 8d 98 01
	00 00		 mov	 rcx, QWORD PTR __$ArrayPad$[rbp]
  00179	48 33 cd	 xor	 rcx, rbp
  0017c	e8 00 00 00 00	 call	 __security_check_cookie
  00181	48 8d a5 a8 01
	00 00		 lea	 rsp, QWORD PTR [rbp+424]
  00188	5f		 pop	 rdi
  00189	5d		 pop	 rbp
  0018a	c3		 ret	 0
$LN10@use_facet:
??$use_facet@V?$ctype@D@std@@@std@@YAAEBV?$ctype@D@0@AEBVlocale@0@@Z ENDP ; std::use_facet<std::ctype<char> >
_TEXT	ENDS
; Function compile flags: /Odtp /RTCsu /ZI
;	COMDAT text$x
text$x	SEGMENT
_Lock$6 = 4
_Psave$7 = 40
_Id$8 = 72
_Pf$9 = 104
_Pfmod$10 = 136
_Psave_guard$11 = 168
$T12 = 392
__$ArrayPad$ = 408
_Loc$ = 448
?dtor$0@?0???$use_facet@V?$ctype@D@std@@@std@@YAAEBV?$ctype@D@0@AEBVlocale@0@@Z@4HA PROC ; `std::use_facet<std::ctype<char> >'::`1'::dtor$0
  00000	48 89 4c 24 08	 mov	 QWORD PTR [rsp+8], rcx
  00005	48 89 54 24 10	 mov	 QWORD PTR [rsp+16], rdx
  0000a	55		 push	 rbp
  0000b	57		 push	 rdi
  0000c	48 83 ec 28	 sub	 rsp, 40			; 00000028H
  00010	48 8d 6a 20	 lea	 rbp, QWORD PTR [rdx+32]
  00014	48 8d 4d 04	 lea	 rcx, QWORD PTR _Lock$6[rbp]
  00018	ff 15 00 00 00
	00		 call	 QWORD PTR __imp_??1_Lockit@std@@QEAA@XZ
  0001e	48 83 c4 28	 add	 rsp, 40			; 00000028H
  00022	5f		 pop	 rdi
  00023	5d		 pop	 rbp
  00024	c3		 ret	 0
?dtor$0@?0???$use_facet@V?$ctype@D@std@@@std@@YAAEBV?$ctype@D@0@AEBVlocale@0@@Z@4HA ENDP ; `std::use_facet<std::ctype<char> >'::`1'::dtor$0
text$x	ENDS
; Function compile flags: /Odtp /RTCsu /ZI
;	COMDAT text$x
text$x	SEGMENT
_Lock$6 = 4
_Psave$7 = 40
_Id$8 = 72
_Pf$9 = 104
_Pfmod$10 = 136
_Psave_guard$11 = 168
$T12 = 392
__$ArrayPad$ = 408
_Loc$ = 448
?dtor$1@?0???$use_facet@V?$ctype@D@std@@@std@@YAAEBV?$ctype@D@0@AEBVlocale@0@@Z@4HA PROC ; `std::use_facet<std::ctype<char> >'::`1'::dtor$1
  00000	48 89 4c 24 08	 mov	 QWORD PTR [rsp+8], rcx
  00005	48 89 54 24 10	 mov	 QWORD PTR [rsp+16], rdx
  0000a	55		 push	 rbp
  0000b	57		 push	 rdi
  0000c	48 83 ec 28	 sub	 rsp, 40			; 00000028H
  00010	48 8d 6a 20	 lea	 rbp, QWORD PTR [rdx+32]
  00014	48 8d 8d a8 00
	00 00		 lea	 rcx, QWORD PTR _Psave_guard$11[rbp]
  0001b	e8 00 00 00 00	 call	 ??1?$unique_ptr@V_Facet_base@std@@U?$default_delete@V_Facet_base@std@@@2@@std@@QEAA@XZ ; std::unique_ptr<std::_Facet_base,std::default_delete<std::_Facet_base> >::~unique_ptr<std::_Facet_base,std::default_delete<std::_Facet_base> >
  00020	48 83 c4 28	 add	 rsp, 40			; 00000028H
  00024	5f		 pop	 rdi
  00025	5d		 pop	 rbp
  00026	c3		 ret	 0
?dtor$1@?0???$use_facet@V?$ctype@D@std@@@std@@YAAEBV?$ctype@D@0@AEBVlocale@0@@Z@4HA ENDP ; `std::use_facet<std::ctype<char> >'::`1'::dtor$1
text$x	ENDS
; Function compile flags: /Odtp /RTCsu /ZI
; File C:\Program Files\Microsoft Visual Studio\2022\Community\VC\Tools\MSVC\14.37.32822\include\xlocale
;	COMDAT ?_Getfacet@locale@std@@QEBAPEBVfacet@12@_K@Z
_TEXT	SEGMENT
_Facptr$ = 8
_Ptr0$ = 40
tv71 = 248
this$ = 288
_Id$ = 296
?_Getfacet@locale@std@@QEBAPEBVfacet@12@_K@Z PROC	; std::locale::_Getfacet, COMDAT

; 368  :     const facet* _Getfacet(size_t _Id) const { // look up a facet in locale object

$LN8:
  00000	48 89 54 24 10	 mov	 QWORD PTR [rsp+16], rdx
  00005	48 89 4c 24 08	 mov	 QWORD PTR [rsp+8], rcx
  0000a	55		 push	 rbp
  0000b	57		 push	 rdi
  0000c	48 81 ec 28 01
	00 00		 sub	 rsp, 296		; 00000128H
  00013	48 8d 6c 24 20	 lea	 rbp, QWORD PTR [rsp+32]
  00018	48 8d 0d 00 00
	00 00		 lea	 rcx, OFFSET FLAT:__0E794DD8_xlocale
  0001f	e8 00 00 00 00	 call	 __CheckForDebuggerJustMyCode

; 369  :         const facet* _Facptr = _Id < _Ptr->_Facetcount ? _Ptr->_Facetvec[_Id] : nullptr; // null if id off end

  00024	48 8b 85 20 01
	00 00		 mov	 rax, QWORD PTR this$[rbp]
  0002b	48 8b 40 08	 mov	 rax, QWORD PTR [rax+8]
  0002f	48 8b 40 18	 mov	 rax, QWORD PTR [rax+24]
  00033	48 39 85 28 01
	00 00		 cmp	 QWORD PTR _Id$[rbp], rax
  0003a	73 23		 jae	 SHORT $LN6@Getfacet
  0003c	48 8b 85 20 01
	00 00		 mov	 rax, QWORD PTR this$[rbp]
  00043	48 8b 40 08	 mov	 rax, QWORD PTR [rax+8]
  00047	48 8b 40 10	 mov	 rax, QWORD PTR [rax+16]
  0004b	48 8b 8d 28 01
	00 00		 mov	 rcx, QWORD PTR _Id$[rbp]
  00052	48 8b 04 c8	 mov	 rax, QWORD PTR [rax+rcx*8]
  00056	48 89 85 f8 00
	00 00		 mov	 QWORD PTR tv71[rbp], rax
  0005d	eb 0b		 jmp	 SHORT $LN7@Getfacet
$LN6@Getfacet:
  0005f	48 c7 85 f8 00
	00 00 00 00 00
	00		 mov	 QWORD PTR tv71[rbp], 0
$LN7@Getfacet:
  0006a	48 8b 85 f8 00
	00 00		 mov	 rax, QWORD PTR tv71[rbp]
  00071	48 89 45 08	 mov	 QWORD PTR _Facptr$[rbp], rax

; 370  :         if (_Facptr || !_Ptr->_Xparent) {

  00075	48 83 7d 08 00	 cmp	 QWORD PTR _Facptr$[rbp], 0
  0007a	75 13		 jne	 SHORT $LN3@Getfacet
  0007c	48 8b 85 20 01
	00 00		 mov	 rax, QWORD PTR this$[rbp]
  00083	48 8b 40 08	 mov	 rax, QWORD PTR [rax+8]
  00087	0f b6 40 24	 movzx	 eax, BYTE PTR [rax+36]
  0008b	85 c0		 test	 eax, eax
  0008d	75 06		 jne	 SHORT $LN2@Getfacet
$LN3@Getfacet:

; 371  :             return _Facptr; // found facet or not transparent

  0008f	48 8b 45 08	 mov	 rax, QWORD PTR _Facptr$[rbp]
  00093	eb 31		 jmp	 SHORT $LN1@Getfacet
$LN2@Getfacet:

; 372  :         }
; 373  : 
; 374  :         // look in current locale
; 375  :         locale::_Locimp* _Ptr0 = _Getgloballocale();

  00095	e8 00 00 00 00	 call	 ?_Getgloballocale@locale@std@@CAPEAV_Locimp@12@XZ ; std::locale::_Getgloballocale
  0009a	48 89 45 28	 mov	 QWORD PTR _Ptr0$[rbp], rax

; 376  :         if (_Id < _Ptr0->_Facetcount) {

  0009e	48 8b 45 28	 mov	 rax, QWORD PTR _Ptr0$[rbp]
  000a2	48 8b 40 18	 mov	 rax, QWORD PTR [rax+24]
  000a6	48 39 85 28 01
	00 00		 cmp	 QWORD PTR _Id$[rbp], rax
  000ad	73 15		 jae	 SHORT $LN4@Getfacet

; 377  :             return _Ptr0->_Facetvec[_Id]; // get from current locale

  000af	48 8b 45 28	 mov	 rax, QWORD PTR _Ptr0$[rbp]
  000b3	48 8b 40 10	 mov	 rax, QWORD PTR [rax+16]
  000b7	48 8b 8d 28 01
	00 00		 mov	 rcx, QWORD PTR _Id$[rbp]
  000be	48 8b 04 c8	 mov	 rax, QWORD PTR [rax+rcx*8]
  000c2	eb 02		 jmp	 SHORT $LN1@Getfacet
$LN4@Getfacet:

; 378  :         }
; 379  : 
; 380  :         return nullptr; // no entry in current locale

  000c4	33 c0		 xor	 eax, eax
$LN1@Getfacet:

; 381  :     }

  000c6	48 8d a5 08 01
	00 00		 lea	 rsp, QWORD PTR [rbp+264]
  000cd	5f		 pop	 rdi
  000ce	5d		 pop	 rbp
  000cf	c3		 ret	 0
?_Getfacet@locale@std@@QEBAPEBVfacet@12@_K@Z ENDP	; std::locale::_Getfacet
_TEXT	ENDS
; Function compile flags: /Odtp /RTCsu /ZI
; File C:\Program Files\Microsoft Visual Studio\2022\Community\VC\Tools\MSVC\14.37.32822\include\xlocale
;	COMDAT ??1locale@std@@QEAA@XZ
_TEXT	SEGMENT
$T1 = 200
tv84 = 216
this$ = 256
??1locale@std@@QEAA@XZ PROC				; std::locale::~locale, COMDAT

; 345  :     ~locale() noexcept {

$LN6:
  00000	48 89 4c 24 08	 mov	 QWORD PTR [rsp+8], rcx
  00005	55		 push	 rbp
  00006	57		 push	 rdi
  00007	48 81 ec 08 01
	00 00		 sub	 rsp, 264		; 00000108H
  0000e	48 8d 6c 24 20	 lea	 rbp, QWORD PTR [rsp+32]
  00013	48 8d 0d 00 00
	00 00		 lea	 rcx, OFFSET FLAT:__0E794DD8_xlocale
  0001a	e8 00 00 00 00	 call	 __CheckForDebuggerJustMyCode

; 346  :         if (_Ptr) {

  0001f	48 8b 85 00 01
	00 00		 mov	 rax, QWORD PTR this$[rbp]
  00026	48 83 78 08 00	 cmp	 QWORD PTR [rax+8], 0
  0002b	74 59		 je	 SHORT $LN2@locale

; 347  :             delete _Ptr->_Decref();

  0002d	48 8b 85 00 01
	00 00		 mov	 rax, QWORD PTR this$[rbp]
  00034	48 8b 40 08	 mov	 rax, QWORD PTR [rax+8]
  00038	48 8b 8d 00 01
	00 00		 mov	 rcx, QWORD PTR this$[rbp]
  0003f	48 8b 49 08	 mov	 rcx, QWORD PTR [rcx+8]
  00043	48 8b 00	 mov	 rax, QWORD PTR [rax]
  00046	ff 50 10	 call	 QWORD PTR [rax+16]
  00049	48 89 85 c8 00
	00 00		 mov	 QWORD PTR $T1[rbp], rax
  00050	48 83 bd c8 00
	00 00 00	 cmp	 QWORD PTR $T1[rbp], 0
  00058	74 21		 je	 SHORT $LN4@locale
  0005a	48 8b 85 c8 00
	00 00		 mov	 rax, QWORD PTR $T1[rbp]
  00061	48 8b 00	 mov	 rax, QWORD PTR [rax]
  00064	ba 01 00 00 00	 mov	 edx, 1
  00069	48 8b 8d c8 00
	00 00		 mov	 rcx, QWORD PTR $T1[rbp]
  00070	ff 10		 call	 QWORD PTR [rax]
  00072	48 89 85 d8 00
	00 00		 mov	 QWORD PTR tv84[rbp], rax
  00079	eb 0b		 jmp	 SHORT $LN2@locale
$LN4@locale:
  0007b	48 c7 85 d8 00
	00 00 00 00 00
	00		 mov	 QWORD PTR tv84[rbp], 0
$LN2@locale:

; 348  :         }
; 349  :     }

  00086	48 8d a5 e8 00
	00 00		 lea	 rsp, QWORD PTR [rbp+232]
  0008d	5f		 pop	 rdi
  0008e	5d		 pop	 rbp
  0008f	c3		 ret	 0
??1locale@std@@QEAA@XZ ENDP				; std::locale::~locale
_TEXT	ENDS
; Function compile flags: /Odtp /RTCsu /ZI
; File C:\Program Files\Microsoft Visual Studio\2022\Community\VC\Tools\MSVC\14.37.32822\include\typeinfo
;	COMDAT ?_Throw_bad_cast@std@@YAXXZ
_TEXT	SEGMENT
$T1 = 200
?_Throw_bad_cast@std@@YAXXZ PROC			; std::_Throw_bad_cast, COMDAT

; 68   : [[noreturn]] inline void _Throw_bad_cast() {

$LN3:
  00000	40 55		 push	 rbp
  00002	57		 push	 rdi
  00003	48 81 ec 18 01
	00 00		 sub	 rsp, 280		; 00000118H
  0000a	48 8d 6c 24 20	 lea	 rbp, QWORD PTR [rsp+32]
  0000f	48 8d 0d 00 00
	00 00		 lea	 rcx, OFFSET FLAT:__A79F13E8_typeinfo
  00016	e8 00 00 00 00	 call	 __CheckForDebuggerJustMyCode

; 69   :     _THROW(bad_cast{});

  0001b	48 8d 8d c8 00
	00 00		 lea	 rcx, QWORD PTR $T1[rbp]
  00022	e8 00 00 00 00	 call	 ??0bad_cast@std@@QEAA@XZ ; std::bad_cast::bad_cast
  00027	48 8d 15 00 00
	00 00		 lea	 rdx, OFFSET FLAT:_TI2?AVbad_cast@std@@
  0002e	48 8d 8d c8 00
	00 00		 lea	 rcx, QWORD PTR $T1[rbp]
  00035	e8 00 00 00 00	 call	 _CxxThrowException
$LN2@Throw_bad_:

; 70   : }

  0003a	48 8d a5 f8 00
	00 00		 lea	 rsp, QWORD PTR [rbp+248]
  00041	5f		 pop	 rdi
  00042	5d		 pop	 rbp
  00043	c3		 ret	 0
?_Throw_bad_cast@std@@YAXXZ ENDP			; std::_Throw_bad_cast
_TEXT	ENDS
; Function compile flags: /Odtp /RTCsu /ZI
;	COMDAT ??_Gbad_cast@std@@UEAAPEAXI@Z
_TEXT	SEGMENT
this$ = 224
__flags$ = 232
??_Gbad_cast@std@@UEAAPEAXI@Z PROC			; std::bad_cast::`scalar deleting destructor', COMDAT
$LN4:
  00000	89 54 24 10	 mov	 DWORD PTR [rsp+16], edx
  00004	48 89 4c 24 08	 mov	 QWORD PTR [rsp+8], rcx
  00009	55		 push	 rbp
  0000a	57		 push	 rdi
  0000b	48 81 ec e8 00
	00 00		 sub	 rsp, 232		; 000000e8H
  00012	48 8d 6c 24 20	 lea	 rbp, QWORD PTR [rsp+32]
  00017	48 8b 8d e0 00
	00 00		 mov	 rcx, QWORD PTR this$[rbp]
  0001e	e8 00 00 00 00	 call	 ??1bad_cast@std@@UEAA@XZ
  00023	8b 85 e8 00 00
	00		 mov	 eax, DWORD PTR __flags$[rbp]
  00029	83 e0 01	 and	 eax, 1
  0002c	85 c0		 test	 eax, eax
  0002e	74 11		 je	 SHORT $LN2@scalar
  00030	ba 18 00 00 00	 mov	 edx, 24
  00035	48 8b 8d e0 00
	00 00		 mov	 rcx, QWORD PTR this$[rbp]
  0003c	e8 00 00 00 00	 call	 ??3@YAXPEAX_K@Z		; operator delete
$LN2@scalar:
  00041	48 8b 85 e0 00
	00 00		 mov	 rax, QWORD PTR this$[rbp]
  00048	48 8d a5 c8 00
	00 00		 lea	 rsp, QWORD PTR [rbp+200]
  0004f	5f		 pop	 rdi
  00050	5d		 pop	 rbp
  00051	c3		 ret	 0
??_Gbad_cast@std@@UEAAPEAXI@Z ENDP			; std::bad_cast::`scalar deleting destructor'
_TEXT	ENDS
; Function compile flags: /Odtp /RTCsu /ZI
;	COMDAT ??0bad_cast@std@@QEAA@AEBV01@@Z
_TEXT	SEGMENT
this$ = 224
__that$ = 232
??0bad_cast@std@@QEAA@AEBV01@@Z PROC			; std::bad_cast::bad_cast, COMDAT
$LN3:
  00000	48 89 54 24 10	 mov	 QWORD PTR [rsp+16], rdx
  00005	48 89 4c 24 08	 mov	 QWORD PTR [rsp+8], rcx
  0000a	55		 push	 rbp
  0000b	57		 push	 rdi
  0000c	48 81 ec e8 00
	00 00		 sub	 rsp, 232		; 000000e8H
  00013	48 8d 6c 24 20	 lea	 rbp, QWORD PTR [rsp+32]
  00018	48 8b 95 e8 00
	00 00		 mov	 rdx, QWORD PTR __that$[rbp]
  0001f	48 8b 8d e0 00
	00 00		 mov	 rcx, QWORD PTR this$[rbp]
  00026	e8 00 00 00 00	 call	 ??0exception@std@@QEAA@AEBV01@@Z ; std::exception::exception
  0002b	48 8b 85 e0 00
	00 00		 mov	 rax, QWORD PTR this$[rbp]
  00032	48 8d 0d 00 00
	00 00		 lea	 rcx, OFFSET FLAT:??_7bad_cast@std@@6B@
  00039	48 89 08	 mov	 QWORD PTR [rax], rcx
  0003c	48 8b 85 e0 00
	00 00		 mov	 rax, QWORD PTR this$[rbp]
  00043	48 8d a5 c8 00
	00 00		 lea	 rsp, QWORD PTR [rbp+200]
  0004a	5f		 pop	 rdi
  0004b	5d		 pop	 rbp
  0004c	c3		 ret	 0
??0bad_cast@std@@QEAA@AEBV01@@Z ENDP			; std::bad_cast::bad_cast
_TEXT	ENDS
; Function compile flags: /Odtp /RTCsu /ZI
;	COMDAT ??1bad_cast@std@@UEAA@XZ
_TEXT	SEGMENT
this$ = 224
??1bad_cast@std@@UEAA@XZ PROC				; std::bad_cast::~bad_cast, COMDAT
$LN3:
  00000	48 89 4c 24 08	 mov	 QWORD PTR [rsp+8], rcx
  00005	55		 push	 rbp
  00006	57		 push	 rdi
  00007	48 81 ec e8 00
	00 00		 sub	 rsp, 232		; 000000e8H
  0000e	48 8d 6c 24 20	 lea	 rbp, QWORD PTR [rsp+32]
  00013	48 8b 8d e0 00
	00 00		 mov	 rcx, QWORD PTR this$[rbp]
  0001a	e8 00 00 00 00	 call	 ??1exception@std@@UEAA@XZ ; std::exception::~exception
  0001f	48 8d a5 c8 00
	00 00		 lea	 rsp, QWORD PTR [rbp+200]
  00026	5f		 pop	 rdi
  00027	5d		 pop	 rbp
  00028	c3		 ret	 0
??1bad_cast@std@@UEAA@XZ ENDP				; std::bad_cast::~bad_cast
_TEXT	ENDS
; Function compile flags: /Odtp /RTCsu /ZI
; File C:\Program Files\Microsoft Visual Studio\2022\Community\VC\Tools\MSVC\14.37.32822\include\vcruntime_typeinfo.h
;	COMDAT ??0bad_cast@std@@QEAA@XZ
_TEXT	SEGMENT
this$ = 224
??0bad_cast@std@@QEAA@XZ PROC				; std::bad_cast::bad_cast, COMDAT

; 153  :     {

$LN3:
  00000	48 89 4c 24 08	 mov	 QWORD PTR [rsp+8], rcx
  00005	55		 push	 rbp
  00006	57		 push	 rdi
  00007	48 81 ec e8 00
	00 00		 sub	 rsp, 232		; 000000e8H
  0000e	48 8d 6c 24 20	 lea	 rbp, QWORD PTR [rsp+32]
  00013	48 8d 0d 00 00
	00 00		 lea	 rcx, OFFSET FLAT:__0632977E_vcruntime_typeinfo@h
  0001a	e8 00 00 00 00	 call	 __CheckForDebuggerJustMyCode

; 152  :         : exception("bad cast", 1)

  0001f	41 b8 01 00 00
	00		 mov	 r8d, 1
  00025	48 8d 15 00 00
	00 00		 lea	 rdx, OFFSET FLAT:??_C@_08EPJLHIJG@bad?5cast@
  0002c	48 8b 8d e0 00
	00 00		 mov	 rcx, QWORD PTR this$[rbp]
  00033	e8 00 00 00 00	 call	 ??0exception@std@@QEAA@QEBDH@Z ; std::exception::exception

; 153  :     {

  00038	48 8b 85 e0 00
	00 00		 mov	 rax, QWORD PTR this$[rbp]
  0003f	48 8d 0d 00 00
	00 00		 lea	 rcx, OFFSET FLAT:??_7bad_cast@std@@6B@
  00046	48 89 08	 mov	 QWORD PTR [rax], rcx

; 154  :     }

  00049	48 8b 85 e0 00
	00 00		 mov	 rax, QWORD PTR this$[rbp]
  00050	48 8d a5 c8 00
	00 00		 lea	 rsp, QWORD PTR [rbp+200]
  00057	5f		 pop	 rdi
  00058	5d		 pop	 rbp
  00059	c3		 ret	 0
??0bad_cast@std@@QEAA@XZ ENDP				; std::bad_cast::bad_cast
_TEXT	ENDS
; Function compile flags: /Odtp /RTCsu /ZI
;	COMDAT ??1?$_Compressed_pair@V?$allocator@D@std@@V?$_String_val@U?$_Simple_types@D@std@@@2@$00@std@@QEAA@XZ
_TEXT	SEGMENT
this$ = 224
??1?$_Compressed_pair@V?$allocator@D@std@@V?$_String_val@U?$_Simple_types@D@std@@@2@$00@std@@QEAA@XZ PROC ; std::_Compressed_pair<std::allocator<char>,std::_String_val<std::_Simple_types<char> >,1>::~_Compressed_pair<std::allocator<char>,std::_String_val<std::_Simple_types<char> >,1>, COMDAT
$LN3:
  00000	48 89 4c 24 08	 mov	 QWORD PTR [rsp+8], rcx
  00005	55		 push	 rbp
  00006	57		 push	 rdi
  00007	48 81 ec e8 00
	00 00		 sub	 rsp, 232		; 000000e8H
  0000e	48 8d 6c 24 20	 lea	 rbp, QWORD PTR [rsp+32]
  00013	48 8b 85 e0 00
	00 00		 mov	 rax, QWORD PTR this$[rbp]
  0001a	48 8b c8	 mov	 rcx, rax
  0001d	e8 00 00 00 00	 call	 ??1?$_String_val@U?$_Simple_types@D@std@@@std@@QEAA@XZ
  00022	48 8d a5 c8 00
	00 00		 lea	 rsp, QWORD PTR [rbp+200]
  00029	5f		 pop	 rdi
  0002a	5d		 pop	 rbp
  0002b	c3		 ret	 0
??1?$_Compressed_pair@V?$allocator@D@std@@V?$_String_val@U?$_Simple_types@D@std@@@2@$00@std@@QEAA@XZ ENDP ; std::_Compressed_pair<std::allocator<char>,std::_String_val<std::_Simple_types<char> >,1>::~_Compressed_pair<std::allocator<char>,std::_String_val<std::_Simple_types<char> >,1>
_TEXT	ENDS
; Function compile flags: /Odtp /RTCsu /ZI
; File C:\Program Files\Microsoft Visual Studio\2022\Community\VC\Tools\MSVC\14.37.32822\include\xmemory
;	COMDAT ?_Get_first@?$_Compressed_pair@V?$allocator@D@std@@V?$_String_val@U?$_Simple_types@D@std@@@2@$00@std@@QEBAAEBV?$allocator@D@2@XZ
_TEXT	SEGMENT
this$ = 224
?_Get_first@?$_Compressed_pair@V?$allocator@D@std@@V?$_String_val@U?$_Simple_types@D@std@@@2@$00@std@@QEBAAEBV?$allocator@D@2@XZ PROC ; std::_Compressed_pair<std::allocator<char>,std::_String_val<std::_Simple_types<char> >,1>::_Get_first, COMDAT

; 1526 :     constexpr const _Ty1& _Get_first() const noexcept {

$LN3:
  00000	48 89 4c 24 08	 mov	 QWORD PTR [rsp+8], rcx
  00005	55		 push	 rbp
  00006	57		 push	 rdi
  00007	48 81 ec e8 00
	00 00		 sub	 rsp, 232		; 000000e8H
  0000e	48 8d 6c 24 20	 lea	 rbp, QWORD PTR [rsp+32]
  00013	48 8d 0d 00 00
	00 00		 lea	 rcx, OFFSET FLAT:__A594BF75_xmemory
  0001a	e8 00 00 00 00	 call	 __CheckForDebuggerJustMyCode

; 1527 :         return *this;

  0001f	48 8b 85 e0 00
	00 00		 mov	 rax, QWORD PTR this$[rbp]

; 1528 :     }

  00026	48 8d a5 c8 00
	00 00		 lea	 rsp, QWORD PTR [rbp+200]
  0002d	5f		 pop	 rdi
  0002e	5d		 pop	 rbp
  0002f	c3		 ret	 0
?_Get_first@?$_Compressed_pair@V?$allocator@D@std@@V?$_String_val@U?$_Simple_types@D@std@@@2@$00@std@@QEBAAEBV?$allocator@D@2@XZ ENDP ; std::_Compressed_pair<std::allocator<char>,std::_String_val<std::_Simple_types<char> >,1>::_Get_first
_TEXT	ENDS
; Function compile flags: /Odtp /RTCsu /ZI
; File C:\Program Files\Microsoft Visual Studio\2022\Community\VC\Tools\MSVC\14.37.32822\include\xmemory
;	COMDAT ?_Get_first@?$_Compressed_pair@V?$allocator@D@std@@V?$_String_val@U?$_Simple_types@D@std@@@2@$00@std@@QEAAAEAV?$allocator@D@2@XZ
_TEXT	SEGMENT
this$ = 224
?_Get_first@?$_Compressed_pair@V?$allocator@D@std@@V?$_String_val@U?$_Simple_types@D@std@@@2@$00@std@@QEAAAEAV?$allocator@D@2@XZ PROC ; std::_Compressed_pair<std::allocator<char>,std::_String_val<std::_Simple_types<char> >,1>::_Get_first, COMDAT

; 1522 :     constexpr _Ty1& _Get_first() noexcept {

$LN3:
  00000	48 89 4c 24 08	 mov	 QWORD PTR [rsp+8], rcx
  00005	55		 push	 rbp
  00006	57		 push	 rdi
  00007	48 81 ec e8 00
	00 00		 sub	 rsp, 232		; 000000e8H
  0000e	48 8d 6c 24 20	 lea	 rbp, QWORD PTR [rsp+32]
  00013	48 8d 0d 00 00
	00 00		 lea	 rcx, OFFSET FLAT:__A594BF75_xmemory
  0001a	e8 00 00 00 00	 call	 __CheckForDebuggerJustMyCode

; 1523 :         return *this;

  0001f	48 8b 85 e0 00
	00 00		 mov	 rax, QWORD PTR this$[rbp]

; 1524 :     }

  00026	48 8d a5 c8 00
	00 00		 lea	 rsp, QWORD PTR [rbp+200]
  0002d	5f		 pop	 rdi
  0002e	5d		 pop	 rbp
  0002f	c3		 ret	 0
?_Get_first@?$_Compressed_pair@V?$allocator@D@std@@V?$_String_val@U?$_Simple_types@D@std@@@2@$00@std@@QEAAAEAV?$allocator@D@2@XZ ENDP ; std::_Compressed_pair<std::allocator<char>,std::_String_val<std::_Simple_types<char> >,1>::_Get_first
_TEXT	ENDS
; Function compile flags: /Odtp /RTCsu /ZI
; File C:\Program Files\Microsoft Visual Studio\2022\Community\VC\Tools\MSVC\14.37.32822\include\xstring
;	COMDAT ?_Getal@?$basic_string@DU?$char_traits@D@std@@V?$allocator@D@2@@std@@AEBAAEBV?$allocator@D@2@XZ
_TEXT	SEGMENT
this$ = 224
?_Getal@?$basic_string@DU?$char_traits@D@std@@V?$allocator@D@2@@std@@AEBAAEBV?$allocator@D@2@XZ PROC ; std::basic_string<char,std::char_traits<char>,std::allocator<char> >::_Getal, COMDAT

; 4861 :     _CONSTEXPR20 const _Alty& _Getal() const noexcept {

$LN3:
  00000	48 89 4c 24 08	 mov	 QWORD PTR [rsp+8], rcx
  00005	55		 push	 rbp
  00006	57		 push	 rdi
  00007	48 81 ec e8 00
	00 00		 sub	 rsp, 232		; 000000e8H
  0000e	48 8d 6c 24 20	 lea	 rbp, QWORD PTR [rsp+32]
  00013	48 8d 0d 00 00
	00 00		 lea	 rcx, OFFSET FLAT:__D14739E9_xstring
  0001a	e8 00 00 00 00	 call	 __CheckForDebuggerJustMyCode

; 4862 :         return _Mypair._Get_first();

  0001f	48 8b 85 e0 00
	00 00		 mov	 rax, QWORD PTR this$[rbp]
  00026	48 8b c8	 mov	 rcx, rax
  00029	e8 00 00 00 00	 call	 ?_Get_first@?$_Compressed_pair@V?$allocator@D@std@@V?$_String_val@U?$_Simple_types@D@std@@@2@$00@std@@QEBAAEBV?$allocator@D@2@XZ ; std::_Compressed_pair<std::allocator<char>,std::_String_val<std::_Simple_types<char> >,1>::_Get_first

; 4863 :     }

  0002e	48 8d a5 c8 00
	00 00		 lea	 rsp, QWORD PTR [rbp+200]
  00035	5f		 pop	 rdi
  00036	5d		 pop	 rbp
  00037	c3		 ret	 0
?_Getal@?$basic_string@DU?$char_traits@D@std@@V?$allocator@D@2@@std@@AEBAAEBV?$allocator@D@2@XZ ENDP ; std::basic_string<char,std::char_traits<char>,std::allocator<char> >::_Getal
_TEXT	ENDS
; Function compile flags: /Odtp /RTCsu /ZI
; File C:\Program Files\Microsoft Visual Studio\2022\Community\VC\Tools\MSVC\14.37.32822\include\xstring
;	COMDAT ?_Getal@?$basic_string@DU?$char_traits@D@std@@V?$allocator@D@2@@std@@AEAAAEAV?$allocator@D@2@XZ
_TEXT	SEGMENT
this$ = 224
?_Getal@?$basic_string@DU?$char_traits@D@std@@V?$allocator@D@2@@std@@AEAAAEAV?$allocator@D@2@XZ PROC ; std::basic_string<char,std::char_traits<char>,std::allocator<char> >::_Getal, COMDAT

; 4857 :     _CONSTEXPR20 _Alty& _Getal() noexcept {

$LN3:
  00000	48 89 4c 24 08	 mov	 QWORD PTR [rsp+8], rcx
  00005	55		 push	 rbp
  00006	57		 push	 rdi
  00007	48 81 ec e8 00
	00 00		 sub	 rsp, 232		; 000000e8H
  0000e	48 8d 6c 24 20	 lea	 rbp, QWORD PTR [rsp+32]
  00013	48 8d 0d 00 00
	00 00		 lea	 rcx, OFFSET FLAT:__D14739E9_xstring
  0001a	e8 00 00 00 00	 call	 __CheckForDebuggerJustMyCode

; 4858 :         return _Mypair._Get_first();

  0001f	48 8b 85 e0 00
	00 00		 mov	 rax, QWORD PTR this$[rbp]
  00026	48 8b c8	 mov	 rcx, rax
  00029	e8 00 00 00 00	 call	 ?_Get_first@?$_Compressed_pair@V?$allocator@D@std@@V?$_String_val@U?$_Simple_types@D@std@@@2@$00@std@@QEAAAEAV?$allocator@D@2@XZ ; std::_Compressed_pair<std::allocator<char>,std::_String_val<std::_Simple_types<char> >,1>::_Get_first

; 4859 :     }

  0002e	48 8d a5 c8 00
	00 00		 lea	 rsp, QWORD PTR [rbp+200]
  00035	5f		 pop	 rdi
  00036	5d		 pop	 rbp
  00037	c3		 ret	 0
?_Getal@?$basic_string@DU?$char_traits@D@std@@V?$allocator@D@2@@std@@AEAAAEAV?$allocator@D@2@XZ ENDP ; std::basic_string<char,std::char_traits<char>,std::allocator<char> >::_Getal
_TEXT	ENDS
; Function compile flags: /Odtp /RTCsu /ZI
; File C:\Program Files\Microsoft Visual Studio\2022\Community\VC\Tools\MSVC\14.37.32822\include\xstring
;	COMDAT ?_Swap_proxy_and_iterators@?$basic_string@DU?$char_traits@D@std@@V?$allocator@D@2@@std@@AEAAXAEAV12@@Z
_TEXT	SEGMENT
this$ = 224
_Right$ = 232
?_Swap_proxy_and_iterators@?$basic_string@DU?$char_traits@D@std@@V?$allocator@D@2@@std@@AEAAXAEAV12@@Z PROC ; std::basic_string<char,std::char_traits<char>,std::allocator<char> >::_Swap_proxy_and_iterators, COMDAT

; 4853 :     _CONSTEXPR20 void _Swap_proxy_and_iterators(basic_string& _Right) {

$LN3:
  00000	48 89 54 24 10	 mov	 QWORD PTR [rsp+16], rdx
  00005	48 89 4c 24 08	 mov	 QWORD PTR [rsp+8], rcx
  0000a	55		 push	 rbp
  0000b	57		 push	 rdi
  0000c	48 81 ec e8 00
	00 00		 sub	 rsp, 232		; 000000e8H
  00013	48 8d 6c 24 20	 lea	 rbp, QWORD PTR [rsp+32]
  00018	48 8d 0d 00 00
	00 00		 lea	 rcx, OFFSET FLAT:__D14739E9_xstring
  0001f	e8 00 00 00 00	 call	 __CheckForDebuggerJustMyCode

; 4854 :         _Mypair._Myval2._Swap_proxy_and_iterators(_Right._Mypair._Myval2);

  00024	48 8b 85 e8 00
	00 00		 mov	 rax, QWORD PTR _Right$[rbp]
  0002b	48 8b 8d e0 00
	00 00		 mov	 rcx, QWORD PTR this$[rbp]
  00032	48 8b d0	 mov	 rdx, rax
  00035	e8 00 00 00 00	 call	 ?_Swap_proxy_and_iterators@_Container_base12@std@@QEAAXAEAU12@@Z ; std::_Container_base12::_Swap_proxy_and_iterators

; 4855 :     }

  0003a	48 8d a5 c8 00
	00 00		 lea	 rsp, QWORD PTR [rbp+200]
  00041	5f		 pop	 rdi
  00042	5d		 pop	 rbp
  00043	c3		 ret	 0
?_Swap_proxy_and_iterators@?$basic_string@DU?$char_traits@D@std@@V?$allocator@D@2@@std@@AEAAXAEAV12@@Z ENDP ; std::basic_string<char,std::char_traits<char>,std::allocator<char> >::_Swap_proxy_and_iterators
_TEXT	ENDS
; Function compile flags: /Odtp /RTCsu /ZI
; File C:\Program Files\Microsoft Visual Studio\2022\Community\VC\Tools\MSVC\14.37.32822\include\xstring
;	COMDAT ?_Tidy_deallocate@?$basic_string@DU?$char_traits@D@std@@V?$allocator@D@2@@std@@AEAAXXZ
_TEXT	SEGMENT
_My_data$ = 8
_Ptr$1 = 40
_Al$2 = 72
$T3 = 292
this$ = 352
?_Tidy_deallocate@?$basic_string@DU?$char_traits@D@std@@V?$allocator@D@2@@std@@AEAAXXZ PROC ; std::basic_string<char,std::char_traits<char>,std::allocator<char> >::_Tidy_deallocate, COMDAT

; 4829 :     _CONSTEXPR20 void _Tidy_deallocate() noexcept { // initialize buffer, deallocating any storage

$LN4:
  00000	48 89 4c 24 08	 mov	 QWORD PTR [rsp+8], rcx
  00005	55		 push	 rbp
  00006	57		 push	 rdi
  00007	48 81 ec 68 01
	00 00		 sub	 rsp, 360		; 00000168H
  0000e	48 8d 6c 24 20	 lea	 rbp, QWORD PTR [rsp+32]
  00013	48 8d 0d 00 00
	00 00		 lea	 rcx, OFFSET FLAT:__D14739E9_xstring
  0001a	e8 00 00 00 00	 call	 __CheckForDebuggerJustMyCode

; 4830 :         auto& _My_data = _Mypair._Myval2;

  0001f	48 8b 85 60 01
	00 00		 mov	 rax, QWORD PTR this$[rbp]
  00026	48 89 45 08	 mov	 QWORD PTR _My_data$[rbp], rax

; 4831 :         _My_data._Orphan_all();

  0002a	48 8b 4d 08	 mov	 rcx, QWORD PTR _My_data$[rbp]
  0002e	e8 00 00 00 00	 call	 ?_Orphan_all@_Container_base12@std@@QEAAXXZ ; std::_Container_base12::_Orphan_all

; 4832 :         if (_My_data._Large_string_engaged()) {

  00033	48 8b 4d 08	 mov	 rcx, QWORD PTR _My_data$[rbp]
  00037	e8 00 00 00 00	 call	 ?_Large_string_engaged@?$_String_val@U?$_Simple_types@D@std@@@std@@QEBA_NXZ ; std::_String_val<std::_Simple_types<char> >::_Large_string_engaged
  0003c	0f b6 c0	 movzx	 eax, al
  0003f	85 c0		 test	 eax, eax
  00041	74 50		 je	 SHORT $LN2@Tidy_deall

; 4833 :             _ASAN_STRING_REMOVE(*this);
; 4834 :             const pointer _Ptr = _My_data._Bx._Ptr;

  00043	48 8b 45 08	 mov	 rax, QWORD PTR _My_data$[rbp]
  00047	48 8b 40 08	 mov	 rax, QWORD PTR [rax+8]
  0004b	48 89 45 28	 mov	 QWORD PTR _Ptr$1[rbp], rax

; 4835 :             auto& _Al          = _Getal();

  0004f	48 8b 8d 60 01
	00 00		 mov	 rcx, QWORD PTR this$[rbp]
  00056	e8 00 00 00 00	 call	 ?_Getal@?$basic_string@DU?$char_traits@D@std@@V?$allocator@D@2@@std@@AEAAAEAV?$allocator@D@2@XZ ; std::basic_string<char,std::char_traits<char>,std::allocator<char> >::_Getal
  0005b	48 89 45 48	 mov	 QWORD PTR _Al$2[rbp], rax

; 4836 :             _Destroy_in_place(_My_data._Bx._Ptr);

  0005f	48 8b 45 08	 mov	 rax, QWORD PTR _My_data$[rbp]
  00063	48 83 c0 08	 add	 rax, 8
  00067	48 8b c8	 mov	 rcx, rax
  0006a	e8 00 00 00 00	 call	 ??$_Destroy_in_place@PEAD@std@@YAXAEAPEAD@Z ; std::_Destroy_in_place<char *>

; 4837 :             _My_data._Activate_SSO_buffer();

  0006f	48 8b 4d 08	 mov	 rcx, QWORD PTR _My_data$[rbp]
  00073	e8 00 00 00 00	 call	 ?_Activate_SSO_buffer@?$_String_val@U?$_Simple_types@D@std@@@std@@QEAAXXZ ; std::_String_val<std::_Simple_types<char> >::_Activate_SSO_buffer

; 4838 :             _Al.deallocate(_Ptr, _My_data._Myres + 1);

  00078	48 8b 45 08	 mov	 rax, QWORD PTR _My_data$[rbp]
  0007c	48 8b 40 20	 mov	 rax, QWORD PTR [rax+32]
  00080	48 ff c0	 inc	 rax
  00083	4c 8b c0	 mov	 r8, rax
  00086	48 8b 55 28	 mov	 rdx, QWORD PTR _Ptr$1[rbp]
  0008a	48 8b 4d 48	 mov	 rcx, QWORD PTR _Al$2[rbp]
  0008e	e8 00 00 00 00	 call	 ?deallocate@?$allocator@D@std@@QEAAXQEAD_K@Z ; std::allocator<char>::deallocate
$LN2@Tidy_deall:

; 4839 :         }
; 4840 : 
; 4841 :         _My_data._Mysize = 0;

  00093	48 8b 45 08	 mov	 rax, QWORD PTR _My_data$[rbp]
  00097	48 c7 40 18 00
	00 00 00	 mov	 QWORD PTR [rax+24], 0

; 4842 :         _My_data._Myres  = _BUF_SIZE - 1;

  0009f	48 8b 45 08	 mov	 rax, QWORD PTR _My_data$[rbp]
  000a3	48 c7 40 20 0f
	00 00 00	 mov	 QWORD PTR [rax+32], 15

; 4843 :         // the _Traits::assign is last so the codegen doesn't think the char write can alias this
; 4844 :         _Traits::assign(_My_data._Bx._Buf[0], _Elem());

  000ab	c6 85 24 01 00
	00 00		 mov	 BYTE PTR $T3[rbp], 0
  000b2	b8 01 00 00 00	 mov	 eax, 1
  000b7	48 6b c0 00	 imul	 rax, rax, 0
  000bb	48 8b 4d 08	 mov	 rcx, QWORD PTR _My_data$[rbp]
  000bf	48 8d 44 01 08	 lea	 rax, QWORD PTR [rcx+rax+8]
  000c4	48 8d 95 24 01
	00 00		 lea	 rdx, QWORD PTR $T3[rbp]
  000cb	48 8b c8	 mov	 rcx, rax
  000ce	e8 00 00 00 00	 call	 ?assign@?$_Narrow_char_traits@DH@std@@SAXAEADAEBD@Z ; std::_Narrow_char_traits<char,int>::assign
  000d3	90		 npad	 1

; 4845 :     }

  000d4	48 8d a5 48 01
	00 00		 lea	 rsp, QWORD PTR [rbp+328]
  000db	5f		 pop	 rdi
  000dc	5d		 pop	 rbp
  000dd	c3		 ret	 0
?_Tidy_deallocate@?$basic_string@DU?$char_traits@D@std@@V?$allocator@D@2@@std@@AEAAXXZ ENDP ; std::basic_string<char,std::char_traits<char>,std::allocator<char> >::_Tidy_deallocate
_TEXT	ENDS
; Function compile flags: /Odtp /RTCsu /ZI
; File C:\Program Files\Microsoft Visual Studio\2022\Community\VC\Tools\MSVC\14.37.32822\include\xstring
;	COMDAT ?_Tidy_init@?$basic_string@DU?$char_traits@D@std@@V?$allocator@D@2@@std@@AEAAXXZ
_TEXT	SEGMENT
_My_data$ = 8
$T1 = 228
this$ = 288
?_Tidy_init@?$basic_string@DU?$char_traits@D@std@@V?$allocator@D@2@@std@@AEAAXXZ PROC ; std::basic_string<char,std::char_traits<char>,std::allocator<char> >::_Tidy_init, COMDAT

; 4818 :     _CONSTEXPR20 void _Tidy_init() noexcept {

$LN3:
  00000	48 89 4c 24 08	 mov	 QWORD PTR [rsp+8], rcx
  00005	55		 push	 rbp
  00006	57		 push	 rdi
  00007	48 81 ec 28 01
	00 00		 sub	 rsp, 296		; 00000128H
  0000e	48 8d 6c 24 20	 lea	 rbp, QWORD PTR [rsp+32]
  00013	48 8d 0d 00 00
	00 00		 lea	 rcx, OFFSET FLAT:__D14739E9_xstring
  0001a	e8 00 00 00 00	 call	 __CheckForDebuggerJustMyCode

; 4819 :         // initialize basic_string data members
; 4820 :         auto& _My_data   = _Mypair._Myval2;

  0001f	48 8b 85 20 01
	00 00		 mov	 rax, QWORD PTR this$[rbp]
  00026	48 89 45 08	 mov	 QWORD PTR _My_data$[rbp], rax

; 4821 :         _My_data._Mysize = 0;

  0002a	48 8b 45 08	 mov	 rax, QWORD PTR _My_data$[rbp]
  0002e	48 c7 40 18 00
	00 00 00	 mov	 QWORD PTR [rax+24], 0

; 4822 :         _My_data._Myres  = _BUF_SIZE - 1;

  00036	48 8b 45 08	 mov	 rax, QWORD PTR _My_data$[rbp]
  0003a	48 c7 40 20 0f
	00 00 00	 mov	 QWORD PTR [rax+32], 15

; 4823 :         _My_data._Activate_SSO_buffer();

  00042	48 8b 4d 08	 mov	 rcx, QWORD PTR _My_data$[rbp]
  00046	e8 00 00 00 00	 call	 ?_Activate_SSO_buffer@?$_String_val@U?$_Simple_types@D@std@@@std@@QEAAXXZ ; std::_String_val<std::_Simple_types<char> >::_Activate_SSO_buffer

; 4824 : 
; 4825 :         // the _Traits::assign is last so the codegen doesn't think the char write can alias this
; 4826 :         _Traits::assign(_My_data._Bx._Buf[0], _Elem());

  0004b	c6 85 e4 00 00
	00 00		 mov	 BYTE PTR $T1[rbp], 0
  00052	b8 01 00 00 00	 mov	 eax, 1
  00057	48 6b c0 00	 imul	 rax, rax, 0
  0005b	48 8b 4d 08	 mov	 rcx, QWORD PTR _My_data$[rbp]
  0005f	48 8d 44 01 08	 lea	 rax, QWORD PTR [rcx+rax+8]
  00064	48 8d 95 e4 00
	00 00		 lea	 rdx, QWORD PTR $T1[rbp]
  0006b	48 8b c8	 mov	 rcx, rax
  0006e	e8 00 00 00 00	 call	 ?assign@?$_Narrow_char_traits@DH@std@@SAXAEADAEBD@Z ; std::_Narrow_char_traits<char,int>::assign

; 4827 :     }

  00073	48 8d a5 08 01
	00 00		 lea	 rsp, QWORD PTR [rbp+264]
  0007a	5f		 pop	 rdi
  0007b	5d		 pop	 rbp
  0007c	c3		 ret	 0
?_Tidy_init@?$basic_string@DU?$char_traits@D@std@@V?$allocator@D@2@@std@@AEAAXXZ ENDP ; std::basic_string<char,std::char_traits<char>,std::allocator<char> >::_Tidy_init
_TEXT	ENDS
; Function compile flags: /Odtp /RTCsu /ZI
; File C:\Program Files\Microsoft Visual Studio\2022\Community\VC\Tools\MSVC\14.37.32822\include\xstring
;	COMDAT ?_Eos@?$basic_string@DU?$char_traits@D@std@@V?$allocator@D@2@@std@@AEAAX_K@Z
_TEXT	SEGMENT
$T1 = 196
this$ = 256
_New_size$ = 264
?_Eos@?$basic_string@DU?$char_traits@D@std@@V?$allocator@D@2@@std@@AEAAX_K@Z PROC ; std::basic_string<char,std::char_traits<char>,std::allocator<char> >::_Eos, COMDAT

; 4813 :     _CONSTEXPR20 void _Eos(const size_type _New_size) { // set new length and null terminator

$LN3:
  00000	48 89 54 24 10	 mov	 QWORD PTR [rsp+16], rdx
  00005	48 89 4c 24 08	 mov	 QWORD PTR [rsp+8], rcx
  0000a	55		 push	 rbp
  0000b	57		 push	 rdi
  0000c	48 81 ec 08 01
	00 00		 sub	 rsp, 264		; 00000108H
  00013	48 8d 6c 24 20	 lea	 rbp, QWORD PTR [rsp+32]
  00018	48 8d 0d 00 00
	00 00		 lea	 rcx, OFFSET FLAT:__D14739E9_xstring
  0001f	e8 00 00 00 00	 call	 __CheckForDebuggerJustMyCode

; 4814 :         _ASAN_STRING_MODIFY(*this, _Mypair._Myval2._Mysize, _New_size);
; 4815 :         _Traits::assign(_Mypair._Myval2._Myptr()[_Mypair._Myval2._Mysize = _New_size], _Elem());

  00024	c6 85 c4 00 00
	00 00		 mov	 BYTE PTR $T1[rbp], 0
  0002b	48 8b 85 00 01
	00 00		 mov	 rax, QWORD PTR this$[rbp]
  00032	48 8b 8d 08 01
	00 00		 mov	 rcx, QWORD PTR _New_size$[rbp]
  00039	48 89 48 18	 mov	 QWORD PTR [rax+24], rcx
  0003d	48 8b 85 00 01
	00 00		 mov	 rax, QWORD PTR this$[rbp]
  00044	48 8b c8	 mov	 rcx, rax
  00047	e8 00 00 00 00	 call	 ?_Myptr@?$_String_val@U?$_Simple_types@D@std@@@std@@QEAAPEADXZ ; std::_String_val<std::_Simple_types<char> >::_Myptr
  0004c	48 03 85 08 01
	00 00		 add	 rax, QWORD PTR _New_size$[rbp]
  00053	48 8d 95 c4 00
	00 00		 lea	 rdx, QWORD PTR $T1[rbp]
  0005a	48 8b c8	 mov	 rcx, rax
  0005d	e8 00 00 00 00	 call	 ?assign@?$_Narrow_char_traits@DH@std@@SAXAEADAEBD@Z ; std::_Narrow_char_traits<char,int>::assign

; 4816 :     }

  00062	48 8d a5 e8 00
	00 00		 lea	 rsp, QWORD PTR [rbp+232]
  00069	5f		 pop	 rdi
  0006a	5d		 pop	 rbp
  0006b	c3		 ret	 0
?_Eos@?$basic_string@DU?$char_traits@D@std@@V?$allocator@D@2@@std@@AEAAX_K@Z ENDP ; std::basic_string<char,std::char_traits<char>,std::allocator<char> >::_Eos
_TEXT	ENDS
; Function compile flags: /Odtp /RTCsu /ZI
; File C:\Program Files\Microsoft Visual Studio\2022\Community\VC\Tools\MSVC\14.37.32822\include\xstring
;	COMDAT ?_Calculate_growth@?$basic_string@DU?$char_traits@D@std@@V?$allocator@D@2@@std@@AEBA_K_K@Z
_TEXT	SEGMENT
this$ = 224
_Requested$ = 232
?_Calculate_growth@?$basic_string@DU?$char_traits@D@std@@V?$allocator@D@2@@std@@AEBA_K_K@Z PROC ; std::basic_string<char,std::char_traits<char>,std::allocator<char> >::_Calculate_growth, COMDAT

; 4726 :     _NODISCARD _CONSTEXPR20 size_type _Calculate_growth(const size_type _Requested) const noexcept {

$LN3:
  00000	48 89 54 24 10	 mov	 QWORD PTR [rsp+16], rdx
  00005	48 89 4c 24 08	 mov	 QWORD PTR [rsp+8], rcx
  0000a	55		 push	 rbp
  0000b	57		 push	 rdi
  0000c	48 81 ec e8 00
	00 00		 sub	 rsp, 232		; 000000e8H
  00013	48 8d 6c 24 20	 lea	 rbp, QWORD PTR [rsp+32]
  00018	48 8d 0d 00 00
	00 00		 lea	 rcx, OFFSET FLAT:__D14739E9_xstring
  0001f	e8 00 00 00 00	 call	 __CheckForDebuggerJustMyCode

; 4727 :         return _Calculate_growth(_Requested, _Mypair._Myval2._Myres, max_size());

  00024	48 8b 8d e0 00
	00 00		 mov	 rcx, QWORD PTR this$[rbp]
  0002b	e8 00 00 00 00	 call	 ?max_size@?$basic_string@DU?$char_traits@D@std@@V?$allocator@D@2@@std@@QEBA_KXZ ; std::basic_string<char,std::char_traits<char>,std::allocator<char> >::max_size
  00030	4c 8b c0	 mov	 r8, rax
  00033	48 8b 85 e0 00
	00 00		 mov	 rax, QWORD PTR this$[rbp]
  0003a	48 8b 50 20	 mov	 rdx, QWORD PTR [rax+32]
  0003e	48 8b 8d e8 00
	00 00		 mov	 rcx, QWORD PTR _Requested$[rbp]
  00045	e8 00 00 00 00	 call	 ?_Calculate_growth@?$basic_string@DU?$char_traits@D@std@@V?$allocator@D@2@@std@@CA_K_K00@Z ; std::basic_string<char,std::char_traits<char>,std::allocator<char> >::_Calculate_growth

; 4728 :     }

  0004a	48 8d a5 c8 00
	00 00		 lea	 rsp, QWORD PTR [rbp+200]
  00051	5f		 pop	 rdi
  00052	5d		 pop	 rbp
  00053	c3		 ret	 0
?_Calculate_growth@?$basic_string@DU?$char_traits@D@std@@V?$allocator@D@2@@std@@AEBA_K_K@Z ENDP ; std::basic_string<char,std::char_traits<char>,std::allocator<char> >::_Calculate_growth
_TEXT	ENDS
; Function compile flags: /Odtp /RTCsu /ZI
; File C:\Program Files\Microsoft Visual Studio\2022\Community\VC\Tools\MSVC\14.37.32822\include\xstring
;	COMDAT ?_Calculate_growth@?$basic_string@DU?$char_traits@D@std@@V?$allocator@D@2@@std@@CA_K_K00@Z
_TEXT	SEGMENT
_Masked$ = 8
$T4 = 232
__$ArrayPad$ = 248
_Requested$ = 288
_Old$ = 296
_Max$ = 304
?_Calculate_growth@?$basic_string@DU?$char_traits@D@std@@V?$allocator@D@2@@std@@CA_K_K00@Z PROC ; std::basic_string<char,std::char_traits<char>,std::allocator<char> >::_Calculate_growth, COMDAT

; 4713 :         const size_type _Requested, const size_type _Old, const size_type _Max) noexcept {

$LN5:
  00000	4c 89 44 24 18	 mov	 QWORD PTR [rsp+24], r8
  00005	48 89 54 24 10	 mov	 QWORD PTR [rsp+16], rdx
  0000a	48 89 4c 24 08	 mov	 QWORD PTR [rsp+8], rcx
  0000f	55		 push	 rbp
  00010	57		 push	 rdi
  00011	48 81 ec 28 01
	00 00		 sub	 rsp, 296		; 00000128H
  00018	48 8d 6c 24 20	 lea	 rbp, QWORD PTR [rsp+32]
  0001d	48 8d 7c 24 20	 lea	 rdi, QWORD PTR [rsp+32]
  00022	b9 12 00 00 00	 mov	 ecx, 18
  00027	b8 cc cc cc cc	 mov	 eax, -858993460		; ccccccccH
  0002c	f3 ab		 rep stosd
  0002e	48 8b 8c 24 48
	01 00 00	 mov	 rcx, QWORD PTR [rsp+328]
  00036	48 8b 05 00 00
	00 00		 mov	 rax, QWORD PTR __security_cookie
  0003d	48 33 c5	 xor	 rax, rbp
  00040	48 89 85 f8 00
	00 00		 mov	 QWORD PTR __$ArrayPad$[rbp], rax
  00047	48 8d 0d 00 00
	00 00		 lea	 rcx, OFFSET FLAT:__D14739E9_xstring
  0004e	e8 00 00 00 00	 call	 __CheckForDebuggerJustMyCode

; 4714 :         const size_type _Masked = _Requested | _ALLOC_MASK;

  00053	48 8b 85 20 01
	00 00		 mov	 rax, QWORD PTR _Requested$[rbp]
  0005a	48 83 c8 0f	 or	 rax, 15
  0005e	48 89 45 08	 mov	 QWORD PTR _Masked$[rbp], rax

; 4715 :         if (_Masked > _Max) { // the mask overflows, settle for max_size()

  00062	48 8b 85 30 01
	00 00		 mov	 rax, QWORD PTR _Max$[rbp]
  00069	48 39 45 08	 cmp	 QWORD PTR _Masked$[rbp], rax
  0006d	76 09		 jbe	 SHORT $LN2@Calculate_

; 4716 :             return _Max;

  0006f	48 8b 85 30 01
	00 00		 mov	 rax, QWORD PTR _Max$[rbp]
  00076	eb 68		 jmp	 SHORT $LN1@Calculate_
$LN2@Calculate_:

; 4717 :         }
; 4718 : 
; 4719 :         if (_Old > _Max - _Old / 2) { // similarly, geometric overflows

  00078	33 d2		 xor	 edx, edx
  0007a	48 8b 85 28 01
	00 00		 mov	 rax, QWORD PTR _Old$[rbp]
  00081	b9 02 00 00 00	 mov	 ecx, 2
  00086	48 f7 f1	 div	 rcx
  00089	48 8b 8d 30 01
	00 00		 mov	 rcx, QWORD PTR _Max$[rbp]
  00090	48 2b c8	 sub	 rcx, rax
  00093	48 8b c1	 mov	 rax, rcx
  00096	48 39 85 28 01
	00 00		 cmp	 QWORD PTR _Old$[rbp], rax
  0009d	76 09		 jbe	 SHORT $LN3@Calculate_

; 4720 :             return _Max;

  0009f	48 8b 85 30 01
	00 00		 mov	 rax, QWORD PTR _Max$[rbp]
  000a6	eb 38		 jmp	 SHORT $LN1@Calculate_
$LN3@Calculate_:

; 4721 :         }
; 4722 : 
; 4723 :         return (_STD max)(_Masked, _Old + _Old / 2);

  000a8	33 d2		 xor	 edx, edx
  000aa	48 8b 85 28 01
	00 00		 mov	 rax, QWORD PTR _Old$[rbp]
  000b1	b9 02 00 00 00	 mov	 ecx, 2
  000b6	48 f7 f1	 div	 rcx
  000b9	48 8b 8d 28 01
	00 00		 mov	 rcx, QWORD PTR _Old$[rbp]
  000c0	48 03 c8	 add	 rcx, rax
  000c3	48 8b c1	 mov	 rax, rcx
  000c6	48 89 85 e8 00
	00 00		 mov	 QWORD PTR $T4[rbp], rax
  000cd	48 8d 95 e8 00
	00 00		 lea	 rdx, QWORD PTR $T4[rbp]
  000d4	48 8d 4d 08	 lea	 rcx, QWORD PTR _Masked$[rbp]
  000d8	e8 00 00 00 00	 call	 ??$max@_K@std@@YAAEB_KAEB_K0@Z ; std::max<unsigned __int64>
  000dd	48 8b 00	 mov	 rax, QWORD PTR [rax]
$LN1@Calculate_:

; 4724 :     }

  000e0	48 8b f8	 mov	 rdi, rax
  000e3	48 8d 4d e0	 lea	 rcx, QWORD PTR [rbp-32]
  000e7	48 8d 15 00 00
	00 00		 lea	 rdx, OFFSET FLAT:?_Calculate_growth@?$basic_string@DU?$char_traits@D@std@@V?$allocator@D@2@@std@@CA_K_K00@Z$rtcFrameData
  000ee	e8 00 00 00 00	 call	 _RTC_CheckStackVars
  000f3	48 8b c7	 mov	 rax, rdi
  000f6	48 8b 8d f8 00
	00 00		 mov	 rcx, QWORD PTR __$ArrayPad$[rbp]
  000fd	48 33 cd	 xor	 rcx, rbp
  00100	e8 00 00 00 00	 call	 __security_check_cookie
  00105	48 8d a5 08 01
	00 00		 lea	 rsp, QWORD PTR [rbp+264]
  0010c	5f		 pop	 rdi
  0010d	5d		 pop	 rbp
  0010e	c3		 ret	 0
?_Calculate_growth@?$basic_string@DU?$char_traits@D@std@@V?$allocator@D@2@@std@@CA_K_K00@Z ENDP ; std::basic_string<char,std::char_traits<char>,std::allocator<char> >::_Calculate_growth
_TEXT	ENDS
; Function compile flags: /Odtp /RTCsu /ZI
; File C:\Program Files\Microsoft Visual Studio\2022\Community\VC\Tools\MSVC\14.37.32822\include\xstring
;	COMDAT ?substr@?$basic_string@DU?$char_traits@D@std@@V?$allocator@D@2@@std@@QEBA?AV12@_K0@Z
_TEXT	SEGMENT
$T1 = 196
$T2 = 228
this$ = 288
__$ReturnUdt$ = 296
_Off$ = 304
_Count$ = 312
?substr@?$basic_string@DU?$char_traits@D@std@@V?$allocator@D@2@@std@@QEBA?AV12@_K0@Z PROC ; std::basic_string<char,std::char_traits<char>,std::allocator<char> >::substr, COMDAT

; 4570 :     {

$LN5:
  00000	4c 89 4c 24 20	 mov	 QWORD PTR [rsp+32], r9
  00005	4c 89 44 24 18	 mov	 QWORD PTR [rsp+24], r8
  0000a	48 89 54 24 10	 mov	 QWORD PTR [rsp+16], rdx
  0000f	48 89 4c 24 08	 mov	 QWORD PTR [rsp+8], rcx
  00014	55		 push	 rbp
  00015	57		 push	 rdi
  00016	48 81 ec 38 01
	00 00		 sub	 rsp, 312		; 00000138H
  0001d	48 8d 6c 24 30	 lea	 rbp, QWORD PTR [rsp+48]
  00022	c7 85 e4 00 00
	00 00 00 00 00	 mov	 DWORD PTR $T2[rbp], 0
  0002c	48 8d 0d 00 00
	00 00		 lea	 rcx, OFFSET FLAT:__D14739E9_xstring
  00033	e8 00 00 00 00	 call	 __CheckForDebuggerJustMyCode

; 4571 :         // return [_Off, _Off + _Count) as new string, default-constructing its allocator
; 4572 :         return basic_string{*this, _Off, _Count};

  00038	48 8d 8d c4 00
	00 00		 lea	 rcx, QWORD PTR $T1[rbp]
  0003f	e8 00 00 00 00	 call	 ??0?$allocator@D@std@@QEAA@XZ ; std::allocator<char>::allocator<char>
  00044	48 89 44 24 20	 mov	 QWORD PTR [rsp+32], rax
  00049	4c 8b 8d 38 01
	00 00		 mov	 r9, QWORD PTR _Count$[rbp]
  00050	4c 8b 85 30 01
	00 00		 mov	 r8, QWORD PTR _Off$[rbp]
  00057	48 8b 95 20 01
	00 00		 mov	 rdx, QWORD PTR this$[rbp]
  0005e	48 8b 8d 28 01
	00 00		 mov	 rcx, QWORD PTR __$ReturnUdt$[rbp]
  00065	e8 00 00 00 00	 call	 ??0?$basic_string@DU?$char_traits@D@std@@V?$allocator@D@2@@std@@QEAA@AEBV01@_K1AEBV?$allocator@D@1@@Z ; std::basic_string<char,std::char_traits<char>,std::allocator<char> >::basic_string<char,std::char_traits<char>,std::allocator<char> >
  0006a	8b 85 e4 00 00
	00		 mov	 eax, DWORD PTR $T2[rbp]
  00070	83 c8 01	 or	 eax, 1
  00073	89 85 e4 00 00
	00		 mov	 DWORD PTR $T2[rbp], eax
  00079	48 8b 85 28 01
	00 00		 mov	 rax, QWORD PTR __$ReturnUdt$[rbp]

; 4573 :     }

  00080	48 8d a5 08 01
	00 00		 lea	 rsp, QWORD PTR [rbp+264]
  00087	5f		 pop	 rdi
  00088	5d		 pop	 rbp
  00089	c3		 ret	 0
?substr@?$basic_string@DU?$char_traits@D@std@@V?$allocator@D@2@@std@@QEBA?AV12@_K0@Z ENDP ; std::basic_string<char,std::char_traits<char>,std::allocator<char> >::substr
_TEXT	ENDS
; Function compile flags: /Odtp /RTCsu /ZI
; File C:\Program Files\Microsoft Visual Studio\2022\Community\VC\Tools\MSVC\14.37.32822\include\xstring
;	COMDAT ?max_size@?$basic_string@DU?$char_traits@D@std@@V?$allocator@D@2@@std@@QEBA_KXZ
_TEXT	SEGMENT
_Alloc_max$ = 8
_Storage_max$ = 40
$T4 = 264
$T5 = 296
$T6 = 328
__$ArrayPad$ = 344
this$ = 384
?max_size@?$basic_string@DU?$char_traits@D@std@@V?$allocator@D@2@@std@@QEBA_KXZ PROC ; std::basic_string<char,std::char_traits<char>,std::allocator<char> >::max_size, COMDAT

; 4128 :     _NODISCARD _CONSTEXPR20 size_type max_size() const noexcept {

$LN3:
  00000	48 89 4c 24 08	 mov	 QWORD PTR [rsp+8], rcx
  00005	55		 push	 rbp
  00006	57		 push	 rdi
  00007	48 81 ec 88 01
	00 00		 sub	 rsp, 392		; 00000188H
  0000e	48 8d 6c 24 20	 lea	 rbp, QWORD PTR [rsp+32]
  00013	48 8d 7c 24 20	 lea	 rdi, QWORD PTR [rsp+32]
  00018	b9 2a 00 00 00	 mov	 ecx, 42			; 0000002aH
  0001d	b8 cc cc cc cc	 mov	 eax, -858993460		; ccccccccH
  00022	f3 ab		 rep stosd
  00024	48 8b 8c 24 a8
	01 00 00	 mov	 rcx, QWORD PTR [rsp+424]
  0002c	48 8b 05 00 00
	00 00		 mov	 rax, QWORD PTR __security_cookie
  00033	48 33 c5	 xor	 rax, rbp
  00036	48 89 85 58 01
	00 00		 mov	 QWORD PTR __$ArrayPad$[rbp], rax
  0003d	48 8d 0d 00 00
	00 00		 lea	 rcx, OFFSET FLAT:__D14739E9_xstring
  00044	e8 00 00 00 00	 call	 __CheckForDebuggerJustMyCode

; 4129 :         const size_type _Alloc_max   = _Alty_traits::max_size(_Getal());

  00049	48 8b 8d 80 01
	00 00		 mov	 rcx, QWORD PTR this$[rbp]
  00050	e8 00 00 00 00	 call	 ?_Getal@?$basic_string@DU?$char_traits@D@std@@V?$allocator@D@2@@std@@AEBAAEBV?$allocator@D@2@XZ ; std::basic_string<char,std::char_traits<char>,std::allocator<char> >::_Getal
  00055	48 8b c8	 mov	 rcx, rax
  00058	e8 00 00 00 00	 call	 ?max_size@?$_Default_allocator_traits@V?$allocator@D@std@@@std@@SA_KAEBV?$allocator@D@2@@Z ; std::_Default_allocator_traits<std::allocator<char> >::max_size
  0005d	48 89 45 08	 mov	 QWORD PTR _Alloc_max$[rbp], rax

; 4130 :         const size_type _Storage_max = // can always store small string

  00061	48 c7 85 08 01
	00 00 10 00 00
	00		 mov	 QWORD PTR $T4[rbp], 16
  0006c	48 8d 95 08 01
	00 00		 lea	 rdx, QWORD PTR $T4[rbp]
  00073	48 8d 4d 08	 lea	 rcx, QWORD PTR _Alloc_max$[rbp]
  00077	e8 00 00 00 00	 call	 ??$max@_K@std@@YAAEB_KAEB_K0@Z ; std::max<unsigned __int64>
  0007c	48 8b 00	 mov	 rax, QWORD PTR [rax]
  0007f	48 89 45 28	 mov	 QWORD PTR _Storage_max$[rbp], rax

; 4131 :             (_STD max)(_Alloc_max, static_cast<size_type>(_BUF_SIZE));
; 4132 :         return (_STD min)(static_cast<size_type>((numeric_limits<difference_type>::max)()),

  00083	48 8b 45 28	 mov	 rax, QWORD PTR _Storage_max$[rbp]
  00087	48 ff c8	 dec	 rax
  0008a	48 89 85 28 01
	00 00		 mov	 QWORD PTR $T5[rbp], rax
  00091	e8 00 00 00 00	 call	 ?max@?$numeric_limits@_J@std@@SA_JXZ ; std::numeric_limits<__int64>::max
  00096	48 89 85 48 01
	00 00		 mov	 QWORD PTR $T6[rbp], rax
  0009d	48 8d 95 28 01
	00 00		 lea	 rdx, QWORD PTR $T5[rbp]
  000a4	48 8d 8d 48 01
	00 00		 lea	 rcx, QWORD PTR $T6[rbp]
  000ab	e8 00 00 00 00	 call	 ??$min@_K@std@@YAAEB_KAEB_K0@Z ; std::min<unsigned __int64>
  000b0	48 8b 00	 mov	 rax, QWORD PTR [rax]

; 4133 :             _Storage_max - 1 // -1 is for null terminator and/or npos
; 4134 :         );
; 4135 :     }

  000b3	48 8b f8	 mov	 rdi, rax
  000b6	48 8d 4d e0	 lea	 rcx, QWORD PTR [rbp-32]
  000ba	48 8d 15 00 00
	00 00		 lea	 rdx, OFFSET FLAT:?max_size@?$basic_string@DU?$char_traits@D@std@@V?$allocator@D@2@@std@@QEBA_KXZ$rtcFrameData
  000c1	e8 00 00 00 00	 call	 _RTC_CheckStackVars
  000c6	48 8b c7	 mov	 rax, rdi
  000c9	48 8b 8d 58 01
	00 00		 mov	 rcx, QWORD PTR __$ArrayPad$[rbp]
  000d0	48 33 cd	 xor	 rcx, rbp
  000d3	e8 00 00 00 00	 call	 __security_check_cookie
  000d8	48 8d a5 68 01
	00 00		 lea	 rsp, QWORD PTR [rbp+360]
  000df	5f		 pop	 rdi
  000e0	5d		 pop	 rbp
  000e1	c3		 ret	 0
?max_size@?$basic_string@DU?$char_traits@D@std@@V?$allocator@D@2@@std@@QEBA_KXZ ENDP ; std::basic_string<char,std::char_traits<char>,std::allocator<char> >::max_size
_TEXT	ENDS
; Function compile flags: /Odtp /RTCsu /ZI
; File C:\Program Files\Microsoft Visual Studio\2022\Community\VC\Tools\MSVC\14.37.32822\include\xstring
;	COMDAT ?size@?$basic_string@DU?$char_traits@D@std@@V?$allocator@D@2@@std@@QEBA_KXZ
_TEXT	SEGMENT
this$ = 224
?size@?$basic_string@DU?$char_traits@D@std@@V?$allocator@D@2@@std@@QEBA_KXZ PROC ; std::basic_string<char,std::char_traits<char>,std::allocator<char> >::size, COMDAT

; 4124 :     _NODISCARD _CONSTEXPR20 size_type size() const noexcept {

$LN3:
  00000	48 89 4c 24 08	 mov	 QWORD PTR [rsp+8], rcx
  00005	55		 push	 rbp
  00006	57		 push	 rdi
  00007	48 81 ec e8 00
	00 00		 sub	 rsp, 232		; 000000e8H
  0000e	48 8d 6c 24 20	 lea	 rbp, QWORD PTR [rsp+32]
  00013	48 8d 0d 00 00
	00 00		 lea	 rcx, OFFSET FLAT:__D14739E9_xstring
  0001a	e8 00 00 00 00	 call	 __CheckForDebuggerJustMyCode

; 4125 :         return _Mypair._Myval2._Mysize;

  0001f	48 8b 85 e0 00
	00 00		 mov	 rax, QWORD PTR this$[rbp]
  00026	48 8b 40 18	 mov	 rax, QWORD PTR [rax+24]

; 4126 :     }

  0002a	48 8d a5 c8 00
	00 00		 lea	 rsp, QWORD PTR [rbp+200]
  00031	5f		 pop	 rdi
  00032	5d		 pop	 rbp
  00033	c3		 ret	 0
?size@?$basic_string@DU?$char_traits@D@std@@V?$allocator@D@2@@std@@QEBA_KXZ ENDP ; std::basic_string<char,std::char_traits<char>,std::allocator<char> >::size
_TEXT	ENDS
; Function compile flags: /Odtp /RTCsu /ZI
; File C:\Program Files\Microsoft Visual Studio\2022\Community\VC\Tools\MSVC\14.37.32822\include\xstring
;	COMDAT ?c_str@?$basic_string@DU?$char_traits@D@std@@V?$allocator@D@2@@std@@QEBAPEBDXZ
_TEXT	SEGMENT
this$ = 224
?c_str@?$basic_string@DU?$char_traits@D@std@@V?$allocator@D@2@@std@@QEBAPEBDXZ PROC ; std::basic_string<char,std::char_traits<char>,std::allocator<char> >::c_str, COMDAT

; 4106 :     _NODISCARD _CONSTEXPR20 _Ret_z_ const _Elem* c_str() const noexcept {

$LN3:
  00000	48 89 4c 24 08	 mov	 QWORD PTR [rsp+8], rcx
  00005	55		 push	 rbp
  00006	57		 push	 rdi
  00007	48 81 ec e8 00
	00 00		 sub	 rsp, 232		; 000000e8H
  0000e	48 8d 6c 24 20	 lea	 rbp, QWORD PTR [rsp+32]
  00013	48 8d 0d 00 00
	00 00		 lea	 rcx, OFFSET FLAT:__D14739E9_xstring
  0001a	e8 00 00 00 00	 call	 __CheckForDebuggerJustMyCode

; 4107 :         return _Mypair._Myval2._Myptr();

  0001f	48 8b 85 e0 00
	00 00		 mov	 rax, QWORD PTR this$[rbp]
  00026	48 8b c8	 mov	 rcx, rax
  00029	e8 00 00 00 00	 call	 ?_Myptr@?$_String_val@U?$_Simple_types@D@std@@@std@@QEBAPEBDXZ ; std::_String_val<std::_Simple_types<char> >::_Myptr

; 4108 :     }

  0002e	48 8d a5 c8 00
	00 00		 lea	 rsp, QWORD PTR [rbp+200]
  00035	5f		 pop	 rdi
  00036	5d		 pop	 rbp
  00037	c3		 ret	 0
?c_str@?$basic_string@DU?$char_traits@D@std@@V?$allocator@D@2@@std@@QEBAPEBDXZ ENDP ; std::basic_string<char,std::char_traits<char>,std::allocator<char> >::c_str
_TEXT	ENDS
; Function compile flags: /Odtp /RTCsu /ZI
; File C:\Program Files\Microsoft Visual Studio\2022\Community\VC\Tools\MSVC\14.37.32822\include\xstring
;	COMDAT ?push_back@?$basic_string@DU?$char_traits@D@std@@V?$allocator@D@2@@std@@QEAAXD@Z
_TEXT	SEGMENT
_Old_size$ = 8
_Ptr$1 = 40
$T2 = 260
$T3 = 292
this$ = 352
_Ch$ = 360
?push_back@?$basic_string@DU?$char_traits@D@std@@V?$allocator@D@2@@std@@QEAAXD@Z PROC ; std::basic_string<char,std::char_traits<char>,std::allocator<char> >::push_back, COMDAT

; 4045 :     _CONSTEXPR20 void push_back(const _Elem _Ch) { // insert element at end

$LN4:
  00000	88 54 24 10	 mov	 BYTE PTR [rsp+16], dl
  00004	48 89 4c 24 08	 mov	 QWORD PTR [rsp+8], rcx
  00009	55		 push	 rbp
  0000a	57		 push	 rdi
  0000b	48 81 ec 68 01
	00 00		 sub	 rsp, 360		; 00000168H
  00012	48 8d 6c 24 20	 lea	 rbp, QWORD PTR [rsp+32]
  00017	48 8d 0d 00 00
	00 00		 lea	 rcx, OFFSET FLAT:__D14739E9_xstring
  0001e	e8 00 00 00 00	 call	 __CheckForDebuggerJustMyCode

; 4046 :         const size_type _Old_size = _Mypair._Myval2._Mysize;

  00023	48 8b 85 60 01
	00 00		 mov	 rax, QWORD PTR this$[rbp]
  0002a	48 8b 40 18	 mov	 rax, QWORD PTR [rax+24]
  0002e	48 89 45 08	 mov	 QWORD PTR _Old_size$[rbp], rax

; 4047 :         if (_Old_size < _Mypair._Myval2._Myres) {

  00032	48 8b 85 60 01
	00 00		 mov	 rax, QWORD PTR this$[rbp]
  00039	48 8b 40 20	 mov	 rax, QWORD PTR [rax+32]
  0003d	48 39 45 08	 cmp	 QWORD PTR _Old_size$[rbp], rax
  00041	73 67		 jae	 SHORT $LN2@push_back

; 4048 :             _ASAN_STRING_MODIFY(*this, _Old_size, _Old_size + 1);
; 4049 :             _Mypair._Myval2._Mysize = _Old_size + 1;

  00043	48 8b 45 08	 mov	 rax, QWORD PTR _Old_size$[rbp]
  00047	48 ff c0	 inc	 rax
  0004a	48 8b 8d 60 01
	00 00		 mov	 rcx, QWORD PTR this$[rbp]
  00051	48 89 41 18	 mov	 QWORD PTR [rcx+24], rax

; 4050 :             _Elem* const _Ptr       = _Mypair._Myval2._Myptr();

  00055	48 8b 85 60 01
	00 00		 mov	 rax, QWORD PTR this$[rbp]
  0005c	48 8b c8	 mov	 rcx, rax
  0005f	e8 00 00 00 00	 call	 ?_Myptr@?$_String_val@U?$_Simple_types@D@std@@@std@@QEAAPEADXZ ; std::_String_val<std::_Simple_types<char> >::_Myptr
  00064	48 89 45 28	 mov	 QWORD PTR _Ptr$1[rbp], rax

; 4051 :             _Traits::assign(_Ptr[_Old_size], _Ch);

  00068	48 8b 45 08	 mov	 rax, QWORD PTR _Old_size$[rbp]
  0006c	48 8b 4d 28	 mov	 rcx, QWORD PTR _Ptr$1[rbp]
  00070	48 03 c8	 add	 rcx, rax
  00073	48 8b c1	 mov	 rax, rcx
  00076	48 8d 95 68 01
	00 00		 lea	 rdx, QWORD PTR _Ch$[rbp]
  0007d	48 8b c8	 mov	 rcx, rax
  00080	e8 00 00 00 00	 call	 ?assign@?$_Narrow_char_traits@DH@std@@SAXAEADAEBD@Z ; std::_Narrow_char_traits<char,int>::assign

; 4052 :             _Traits::assign(_Ptr[_Old_size + 1], _Elem());

  00085	c6 85 04 01 00
	00 00		 mov	 BYTE PTR $T2[rbp], 0
  0008c	48 8b 45 28	 mov	 rax, QWORD PTR _Ptr$1[rbp]
  00090	48 8b 4d 08	 mov	 rcx, QWORD PTR _Old_size$[rbp]
  00094	48 8d 44 08 01	 lea	 rax, QWORD PTR [rax+rcx+1]
  00099	48 8d 95 04 01
	00 00		 lea	 rdx, QWORD PTR $T2[rbp]
  000a0	48 8b c8	 mov	 rcx, rax
  000a3	e8 00 00 00 00	 call	 ?assign@?$_Narrow_char_traits@DH@std@@SAXAEADAEBD@Z ; std::_Narrow_char_traits<char,int>::assign

; 4053 :             return;

  000a8	eb 34		 jmp	 SHORT $LN1@push_back
$LN2@push_back:

; 4054 :         }
; 4055 : 
; 4056 :         _Reallocate_grow_by(

  000aa	48 8d 85 24 01
	00 00		 lea	 rax, QWORD PTR $T3[rbp]
  000b1	48 8b f8	 mov	 rdi, rax
  000b4	33 c0		 xor	 eax, eax
  000b6	b9 01 00 00 00	 mov	 ecx, 1
  000bb	f3 aa		 rep stosb
  000bd	44 0f b6 8d 68
	01 00 00	 movzx	 r9d, BYTE PTR _Ch$[rbp]
  000c5	44 0f b6 85 24
	01 00 00	 movzx	 r8d, BYTE PTR $T3[rbp]
  000cd	ba 01 00 00 00	 mov	 edx, 1
  000d2	48 8b 8d 60 01
	00 00		 mov	 rcx, QWORD PTR this$[rbp]
  000d9	e8 00 00 00 00	 call	 ??$_Reallocate_grow_by@V<lambda_1>@?1??push_back@?$basic_string@DU?$char_traits@D@std@@V?$allocator@D@2@@std@@QEAAXD@Z@D@?$basic_string@DU?$char_traits@D@std@@V?$allocator@D@2@@std@@AEAAAEAV01@_KV<lambda_1>@?1??push_back@01@QEAAXD@Z@D@Z ; std::basic_string<char,std::char_traits<char>,std::allocator<char> >::_Reallocate_grow_by<`std::basic_string<char,std::char_traits<char>,std::allocator<char> >::push_back'::`2'::<lambda_1>,char>
$LN1@push_back:

; 4057 :             1,
; 4058 :             [](_Elem* const _New_ptr, const _Elem* const _Old_ptr, const size_type _Old_size, const _Elem _Ch) {
; 4059 :                 _Traits::copy(_New_ptr, _Old_ptr, _Old_size);
; 4060 :                 _Traits::assign(_New_ptr[_Old_size], _Ch);
; 4061 :                 _Traits::assign(_New_ptr[_Old_size + 1], _Elem());
; 4062 :             },
; 4063 :             _Ch);
; 4064 :     }

  000de	48 8d a5 48 01
	00 00		 lea	 rsp, QWORD PTR [rbp+328]
  000e5	5f		 pop	 rdi
  000e6	5d		 pop	 rbp
  000e7	c3		 ret	 0
?push_back@?$basic_string@DU?$char_traits@D@std@@V?$allocator@D@2@@std@@QEAAXD@Z ENDP ; std::basic_string<char,std::char_traits<char>,std::allocator<char> >::push_back
_TEXT	ENDS
; Function compile flags: /Odtp /RTCsu /ZI
; File C:\Program Files\Microsoft Visual Studio\2022\Community\VC\Tools\MSVC\14.37.32822\include\xstring
;	COMDAT ?erase@?$basic_string@DU?$char_traits@D@std@@V?$allocator@D@2@@std@@QEAAAEAV12@_K@Z
_TEXT	SEGMENT
this$ = 224
_Off$ = 232
?erase@?$basic_string@DU?$char_traits@D@std@@V?$allocator@D@2@@std@@QEAAAEAV12@_K@Z PROC ; std::basic_string<char,std::char_traits<char>,std::allocator<char> >::erase, COMDAT

; 3626 :     _CONSTEXPR20 basic_string& erase(const size_type _Off = 0) { // erase elements [_Off, ...)

$LN3:
  00000	48 89 54 24 10	 mov	 QWORD PTR [rsp+16], rdx
  00005	48 89 4c 24 08	 mov	 QWORD PTR [rsp+8], rcx
  0000a	55		 push	 rbp
  0000b	57		 push	 rdi
  0000c	48 81 ec e8 00
	00 00		 sub	 rsp, 232		; 000000e8H
  00013	48 8d 6c 24 20	 lea	 rbp, QWORD PTR [rsp+32]
  00018	48 8d 0d 00 00
	00 00		 lea	 rcx, OFFSET FLAT:__D14739E9_xstring
  0001f	e8 00 00 00 00	 call	 __CheckForDebuggerJustMyCode

; 3627 :         _Mypair._Myval2._Check_offset(_Off);

  00024	48 8b 85 e0 00
	00 00		 mov	 rax, QWORD PTR this$[rbp]
  0002b	48 8b 95 e8 00
	00 00		 mov	 rdx, QWORD PTR _Off$[rbp]
  00032	48 8b c8	 mov	 rcx, rax
  00035	e8 00 00 00 00	 call	 ?_Check_offset@?$_String_val@U?$_Simple_types@D@std@@@std@@QEBAX_K@Z ; std::_String_val<std::_Simple_types<char> >::_Check_offset

; 3628 :         _Eos(_Off);

  0003a	48 8b 95 e8 00
	00 00		 mov	 rdx, QWORD PTR _Off$[rbp]
  00041	48 8b 8d e0 00
	00 00		 mov	 rcx, QWORD PTR this$[rbp]
  00048	e8 00 00 00 00	 call	 ?_Eos@?$basic_string@DU?$char_traits@D@std@@V?$allocator@D@2@@std@@AEAAX_K@Z ; std::basic_string<char,std::char_traits<char>,std::allocator<char> >::_Eos

; 3629 :         return *this;

  0004d	48 8b 85 e0 00
	00 00		 mov	 rax, QWORD PTR this$[rbp]

; 3630 :     }

  00054	48 8d a5 c8 00
	00 00		 lea	 rsp, QWORD PTR [rbp+200]
  0005b	5f		 pop	 rdi
  0005c	5d		 pop	 rbp
  0005d	c3		 ret	 0
?erase@?$basic_string@DU?$char_traits@D@std@@V?$allocator@D@2@@std@@QEAAAEAV12@_K@Z ENDP ; std::basic_string<char,std::char_traits<char>,std::allocator<char> >::erase
_TEXT	ENDS
; Function compile flags: /Odtp /RTCsu /ZI
; File C:\Program Files\Microsoft Visual Studio\2022\Community\VC\Tools\MSVC\14.37.32822\include\xstring
;	COMDAT ??1?$basic_string@DU?$char_traits@D@std@@V?$allocator@D@2@@std@@QEAA@XZ
_TEXT	SEGMENT
_Alproxy$ = 8
$S4$ = 36
_To_delete$ = 72
__$ArrayPad$ = 280
this$ = 320
??1?$basic_string@DU?$char_traits@D@std@@V?$allocator@D@2@@std@@QEAA@XZ PROC ; std::basic_string<char,std::char_traits<char>,std::allocator<char> >::~basic_string<char,std::char_traits<char>,std::allocator<char> >, COMDAT

; 3118 :     _CONSTEXPR20 ~basic_string() noexcept {

$LN3:
  00000	48 89 4c 24 08	 mov	 QWORD PTR [rsp+8], rcx
  00005	55		 push	 rbp
  00006	57		 push	 rdi
  00007	48 81 ec 48 01
	00 00		 sub	 rsp, 328		; 00000148H
  0000e	48 8d 6c 24 20	 lea	 rbp, QWORD PTR [rsp+32]
  00013	48 8d 7c 24 20	 lea	 rdi, QWORD PTR [rsp+32]
  00018	b9 1a 00 00 00	 mov	 ecx, 26
  0001d	b8 cc cc cc cc	 mov	 eax, -858993460		; ccccccccH
  00022	f3 ab		 rep stosd
  00024	48 8b 8c 24 68
	01 00 00	 mov	 rcx, QWORD PTR [rsp+360]
  0002c	48 8b 05 00 00
	00 00		 mov	 rax, QWORD PTR __security_cookie
  00033	48 33 c5	 xor	 rax, rbp
  00036	48 89 85 18 01
	00 00		 mov	 QWORD PTR __$ArrayPad$[rbp], rax
  0003d	48 8d 0d 00 00
	00 00		 lea	 rcx, OFFSET FLAT:__D14739E9_xstring
  00044	e8 00 00 00 00	 call	 __CheckForDebuggerJustMyCode

; 3119 :         _Tidy_deallocate();

  00049	48 8b 8d 40 01
	00 00		 mov	 rcx, QWORD PTR this$[rbp]
  00050	e8 00 00 00 00	 call	 ?_Tidy_deallocate@?$basic_string@DU?$char_traits@D@std@@V?$allocator@D@2@@std@@AEAAXXZ ; std::basic_string<char,std::char_traits<char>,std::allocator<char> >::_Tidy_deallocate

; 3120 : #if _ITERATOR_DEBUG_LEVEL != 0
; 3121 :         auto&& _Alproxy          = _GET_PROXY_ALLOCATOR(_Alty, _Getal());

  00055	48 8b 8d 40 01
	00 00		 mov	 rcx, QWORD PTR this$[rbp]
  0005c	e8 00 00 00 00	 call	 ?_Getal@?$basic_string@DU?$char_traits@D@std@@V?$allocator@D@2@@std@@AEAAAEAV?$allocator@D@2@XZ ; std::basic_string<char,std::char_traits<char>,std::allocator<char> >::_Getal
  00061	48 8b d0	 mov	 rdx, rax
  00064	48 8d 4d 24	 lea	 rcx, QWORD PTR $S4$[rbp]
  00068	e8 00 00 00 00	 call	 ??$?0D@?$allocator@U_Container_proxy@std@@@std@@QEAA@AEBV?$allocator@D@1@@Z ; std::allocator<std::_Container_proxy>::allocator<std::_Container_proxy><char>
  0006d	48 8d 45 24	 lea	 rax, QWORD PTR $S4$[rbp]
  00071	48 89 45 08	 mov	 QWORD PTR _Alproxy$[rbp], rax

; 3122 :         const auto _To_delete    = _Mypair._Myval2._Myproxy;

  00075	48 8b 85 40 01
	00 00		 mov	 rax, QWORD PTR this$[rbp]
  0007c	48 8b 00	 mov	 rax, QWORD PTR [rax]
  0007f	48 89 45 48	 mov	 QWORD PTR _To_delete$[rbp], rax

; 3123 :         _Mypair._Myval2._Myproxy = nullptr;

  00083	48 8b 85 40 01
	00 00		 mov	 rax, QWORD PTR this$[rbp]
  0008a	48 c7 00 00 00
	00 00		 mov	 QWORD PTR [rax], 0

; 3124 :         _Delete_plain_internal(_Alproxy, _To_delete);

  00091	48 8b 55 48	 mov	 rdx, QWORD PTR _To_delete$[rbp]
  00095	48 8b 4d 08	 mov	 rcx, QWORD PTR _Alproxy$[rbp]
  00099	e8 00 00 00 00	 call	 ??$_Delete_plain_internal@V?$allocator@U_Container_proxy@std@@@std@@@std@@YAXAEAV?$allocator@U_Container_proxy@std@@@0@QEAU_Container_proxy@0@@Z ; std::_Delete_plain_internal<std::allocator<std::_Container_proxy> >

; 3125 : #endif // _ITERATOR_DEBUG_LEVEL != 0
; 3126 :     }

  0009e	48 8b 85 40 01
	00 00		 mov	 rax, QWORD PTR this$[rbp]
  000a5	48 8b c8	 mov	 rcx, rax
  000a8	e8 00 00 00 00	 call	 ??1?$_Compressed_pair@V?$allocator@D@std@@V?$_String_val@U?$_Simple_types@D@std@@@2@$00@std@@QEAA@XZ
  000ad	48 8d 4d e0	 lea	 rcx, QWORD PTR [rbp-32]
  000b1	48 8d 15 00 00
	00 00		 lea	 rdx, OFFSET FLAT:??1?$basic_string@DU?$char_traits@D@std@@V?$allocator@D@2@@std@@QEAA@XZ$rtcFrameData
  000b8	e8 00 00 00 00	 call	 _RTC_CheckStackVars
  000bd	48 8b 8d 18 01
	00 00		 mov	 rcx, QWORD PTR __$ArrayPad$[rbp]
  000c4	48 33 cd	 xor	 rcx, rbp
  000c7	e8 00 00 00 00	 call	 __security_check_cookie
  000cc	48 8d a5 28 01
	00 00		 lea	 rsp, QWORD PTR [rbp+296]
  000d3	5f		 pop	 rdi
  000d4	5d		 pop	 rbp
  000d5	c3		 ret	 0
??1?$basic_string@DU?$char_traits@D@std@@V?$allocator@D@2@@std@@QEAA@XZ ENDP ; std::basic_string<char,std::char_traits<char>,std::allocator<char> >::~basic_string<char,std::char_traits<char>,std::allocator<char> >
_TEXT	ENDS
; Function compile flags: /Odtp /RTCsu /ZI
; File C:\Program Files\Microsoft Visual Studio\2022\Community\VC\Tools\MSVC\14.37.32822\include\xstring
;	COMDAT ?_Take_contents@?$basic_string@DU?$char_traits@D@std@@V?$allocator@D@2@@std@@AEAAXAEAV12@@Z
_TEXT	SEGMENT
_My_data$ = 8
_Right_data$ = 40
tv137 = 248
this$ = 288
_Right$ = 296
?_Take_contents@?$basic_string@DU?$char_traits@D@std@@V?$allocator@D@2@@std@@AEAAXAEAV12@@Z PROC ; std::basic_string<char,std::char_traits<char>,std::allocator<char> >::_Take_contents, COMDAT

; 3002 :     _CONSTEXPR20 void _Take_contents(basic_string& _Right) noexcept {

$LN7:
  00000	48 89 54 24 10	 mov	 QWORD PTR [rsp+16], rdx
  00005	48 89 4c 24 08	 mov	 QWORD PTR [rsp+8], rcx
  0000a	55		 push	 rbp
  0000b	57		 push	 rdi
  0000c	48 81 ec 28 01
	00 00		 sub	 rsp, 296		; 00000128H
  00013	48 8d 6c 24 20	 lea	 rbp, QWORD PTR [rsp+32]
  00018	48 8d 0d 00 00
	00 00		 lea	 rcx, OFFSET FLAT:__D14739E9_xstring
  0001f	e8 00 00 00 00	 call	 __CheckForDebuggerJustMyCode

; 3003 :         // assign by stealing _Right's buffer
; 3004 :         // pre: this != &_Right
; 3005 :         // pre: allocator propagation (POCMA) from _Right, if necessary, is complete
; 3006 :         // pre: *this owns no memory, iterators orphaned
; 3007 :         // (note: _Buf/_Ptr/_Mysize/_Myres may be garbage init)
; 3008 :         auto& _My_data    = _Mypair._Myval2;

  00024	48 8b 85 20 01
	00 00		 mov	 rax, QWORD PTR this$[rbp]
  0002b	48 89 45 08	 mov	 QWORD PTR _My_data$[rbp], rax

; 3009 :         auto& _Right_data = _Right._Mypair._Myval2;

  0002f	48 8b 85 28 01
	00 00		 mov	 rax, QWORD PTR _Right$[rbp]
  00036	48 89 45 28	 mov	 QWORD PTR _Right_data$[rbp], rax

; 3010 : 
; 3011 : #if !defined(_INSERT_STRING_ANNOTATION)
; 3012 :         if constexpr (_Can_memcpy_val) {
; 3013 : #if _HAS_CXX20
; 3014 :             if (!_STD is_constant_evaluated())
; 3015 : #endif // _HAS_CXX20
; 3016 :             {
; 3017 : #if _ITERATOR_DEBUG_LEVEL != 0
; 3018 :                 if (_Right_data._Large_string_engaged()) {

  0003a	48 8b 4d 28	 mov	 rcx, QWORD PTR _Right_data$[rbp]
  0003e	e8 00 00 00 00	 call	 ?_Large_string_engaged@?$_String_val@U?$_Simple_types@D@std@@@std@@QEBA_NXZ ; std::_String_val<std::_Simple_types<char> >::_Large_string_engaged
  00043	0f b6 c0	 movzx	 eax, al
  00046	85 c0		 test	 eax, eax
  00048	74 15		 je	 SHORT $LN2@Take_conte

; 3019 :                     // take ownership of _Right's iterators along with its buffer
; 3020 :                     _Swap_proxy_and_iterators(_Right);

  0004a	48 8b 95 28 01
	00 00		 mov	 rdx, QWORD PTR _Right$[rbp]
  00051	48 8b 8d 20 01
	00 00		 mov	 rcx, QWORD PTR this$[rbp]
  00058	e8 00 00 00 00	 call	 ?_Swap_proxy_and_iterators@?$basic_string@DU?$char_traits@D@std@@V?$allocator@D@2@@std@@AEAAXAEAV12@@Z ; std::basic_string<char,std::char_traits<char>,std::allocator<char> >::_Swap_proxy_and_iterators

; 3021 :                 } else {

  0005d	eb 09		 jmp	 SHORT $LN3@Take_conte
$LN2@Take_conte:

; 3022 :                     _Right_data._Orphan_all();

  0005f	48 8b 4d 28	 mov	 rcx, QWORD PTR _Right_data$[rbp]
  00063	e8 00 00 00 00	 call	 ?_Orphan_all@_Container_base12@std@@QEAAXXZ ; std::_Container_base12::_Orphan_all
$LN3@Take_conte:

; 3023 :                 }
; 3024 : #endif // _ITERATOR_DEBUG_LEVEL != 0
; 3025 : 
; 3026 :                 _Memcpy_val_from(_Right);

  00068	48 8b 95 28 01
	00 00		 mov	 rdx, QWORD PTR _Right$[rbp]
  0006f	48 8b 8d 20 01
	00 00		 mov	 rcx, QWORD PTR this$[rbp]
  00076	e8 00 00 00 00	 call	 ?_Memcpy_val_from@?$basic_string@DU?$char_traits@D@std@@V?$allocator@D@2@@std@@AEAAXAEBV12@@Z ; std::basic_string<char,std::char_traits<char>,std::allocator<char> >::_Memcpy_val_from

; 3027 :                 _Right._Tidy_init();

  0007b	48 8b 8d 28 01
	00 00		 mov	 rcx, QWORD PTR _Right$[rbp]
  00082	e8 00 00 00 00	 call	 ?_Tidy_init@?$basic_string@DU?$char_traits@D@std@@V?$allocator@D@2@@std@@AEAAXXZ ; std::basic_string<char,std::char_traits<char>,std::allocator<char> >::_Tidy_init

; 3028 :                 return;

  00087	e9 bf 00 00 00	 jmp	 $LN1@Take_conte

; 3029 :             }
; 3030 :         }
; 3031 : #endif // !defined(_INSERT_STRING_ANNOTATION)
; 3032 : 
; 3033 :         if (_Right_data._Large_string_engaged()) { // steal buffer

  0008c	48 8b 4d 28	 mov	 rcx, QWORD PTR _Right_data$[rbp]
  00090	e8 00 00 00 00	 call	 ?_Large_string_engaged@?$_String_val@U?$_Simple_types@D@std@@@std@@QEBA_NXZ ; std::_String_val<std::_Simple_types<char> >::_Large_string_engaged
  00095	0f b6 c0	 movzx	 eax, al
  00098	85 c0		 test	 eax, eax
  0009a	74 39		 je	 SHORT $LN4@Take_conte

; 3034 :             _Construct_in_place(_My_data._Bx._Ptr, _Right_data._Bx._Ptr);

  0009c	48 8b 45 28	 mov	 rax, QWORD PTR _Right_data$[rbp]
  000a0	48 83 c0 08	 add	 rax, 8
  000a4	48 8b 4d 08	 mov	 rcx, QWORD PTR _My_data$[rbp]
  000a8	48 83 c1 08	 add	 rcx, 8
  000ac	48 8b d0	 mov	 rdx, rax
  000af	e8 00 00 00 00	 call	 ??$_Construct_in_place@PEADAEAPEAD@std@@YAXAEAPEAD0@Z ; std::_Construct_in_place<char *,char * &>

; 3035 :             _Right_data._Bx._Ptr = nullptr;

  000b4	48 8b 45 28	 mov	 rax, QWORD PTR _Right_data$[rbp]
  000b8	48 c7 40 08 00
	00 00 00	 mov	 QWORD PTR [rax+8], 0

; 3036 :             _Swap_proxy_and_iterators(_Right);

  000c0	48 8b 95 28 01
	00 00		 mov	 rdx, QWORD PTR _Right$[rbp]
  000c7	48 8b 8d 20 01
	00 00		 mov	 rcx, QWORD PTR this$[rbp]
  000ce	e8 00 00 00 00	 call	 ?_Swap_proxy_and_iterators@?$basic_string@DU?$char_traits@D@std@@V?$allocator@D@2@@std@@AEAAXAEAV12@@Z ; std::basic_string<char,std::char_traits<char>,std::allocator<char> >::_Swap_proxy_and_iterators

; 3037 :         } else { // copy small string buffer

  000d3	eb 49		 jmp	 SHORT $LN5@Take_conte
$LN4@Take_conte:

; 3038 :             _My_data._Activate_SSO_buffer();

  000d5	48 8b 4d 08	 mov	 rcx, QWORD PTR _My_data$[rbp]
  000d9	e8 00 00 00 00	 call	 ?_Activate_SSO_buffer@?$_String_val@U?$_Simple_types@D@std@@@std@@QEAAXXZ ; std::_String_val<std::_Simple_types<char> >::_Activate_SSO_buffer

; 3039 :             _Traits::copy(_My_data._Bx._Buf, _Right_data._Bx._Buf, _Right_data._Mysize + 1);

  000de	48 8b 45 28	 mov	 rax, QWORD PTR _Right_data$[rbp]
  000e2	48 8b 40 18	 mov	 rax, QWORD PTR [rax+24]
  000e6	48 ff c0	 inc	 rax
  000e9	48 8b 4d 28	 mov	 rcx, QWORD PTR _Right_data$[rbp]
  000ed	48 83 c1 08	 add	 rcx, 8
  000f1	48 8b 55 08	 mov	 rdx, QWORD PTR _My_data$[rbp]
  000f5	48 83 c2 08	 add	 rdx, 8
  000f9	48 89 95 f8 00
	00 00		 mov	 QWORD PTR tv137[rbp], rdx
  00100	4c 8b c0	 mov	 r8, rax
  00103	48 8b d1	 mov	 rdx, rcx
  00106	48 8b 85 f8 00
	00 00		 mov	 rax, QWORD PTR tv137[rbp]
  0010d	48 8b c8	 mov	 rcx, rax
  00110	e8 00 00 00 00	 call	 ?copy@?$_Char_traits@DH@std@@SAPEADQEADQEBD_K@Z ; std::_Char_traits<char,int>::copy

; 3040 :             _Right_data._Orphan_all();

  00115	48 8b 4d 28	 mov	 rcx, QWORD PTR _Right_data$[rbp]
  00119	e8 00 00 00 00	 call	 ?_Orphan_all@_Container_base12@std@@QEAAXXZ ; std::_Container_base12::_Orphan_all
$LN5@Take_conte:

; 3041 :         }
; 3042 : 
; 3043 :         _My_data._Myres  = _Right_data._Myres;

  0011e	48 8b 45 08	 mov	 rax, QWORD PTR _My_data$[rbp]
  00122	48 8b 4d 28	 mov	 rcx, QWORD PTR _Right_data$[rbp]
  00126	48 8b 49 20	 mov	 rcx, QWORD PTR [rcx+32]
  0012a	48 89 48 20	 mov	 QWORD PTR [rax+32], rcx

; 3044 :         _My_data._Mysize = _Right_data._Mysize;

  0012e	48 8b 45 08	 mov	 rax, QWORD PTR _My_data$[rbp]
  00132	48 8b 4d 28	 mov	 rcx, QWORD PTR _Right_data$[rbp]
  00136	48 8b 49 18	 mov	 rcx, QWORD PTR [rcx+24]
  0013a	48 89 48 18	 mov	 QWORD PTR [rax+24], rcx

; 3045 : 
; 3046 :         _Right._Tidy_init();

  0013e	48 8b 8d 28 01
	00 00		 mov	 rcx, QWORD PTR _Right$[rbp]
  00145	e8 00 00 00 00	 call	 ?_Tidy_init@?$basic_string@DU?$char_traits@D@std@@V?$allocator@D@2@@std@@AEAAXXZ ; std::basic_string<char,std::char_traits<char>,std::allocator<char> >::_Tidy_init
  0014a	90		 npad	 1
$LN1@Take_conte:

; 3047 :     }

  0014b	48 8d a5 08 01
	00 00		 lea	 rsp, QWORD PTR [rbp+264]
  00152	5f		 pop	 rdi
  00153	5d		 pop	 rbp
  00154	c3		 ret	 0
?_Take_contents@?$basic_string@DU?$char_traits@D@std@@V?$allocator@D@2@@std@@AEAAXAEAV12@@Z ENDP ; std::basic_string<char,std::char_traits<char>,std::allocator<char> >::_Take_contents
_TEXT	ENDS
; Function compile flags: /Odtp /RTCsu /ZI
; File C:\Program Files\Microsoft Visual Studio\2022\Community\VC\Tools\MSVC\14.37.32822\include\xstring
;	COMDAT ?_Memcpy_val_from@?$basic_string@DU?$char_traits@D@std@@V?$allocator@D@2@@std@@AEAAXAEBV12@@Z
_TEXT	SEGMENT
_My_data_mem$ = 8
_Right_data_mem$ = 40
this$ = 288
_Right$ = 296
?_Memcpy_val_from@?$basic_string@DU?$char_traits@D@std@@V?$allocator@D@2@@std@@AEAAXAEBV12@@Z PROC ; std::basic_string<char,std::char_traits<char>,std::allocator<char> >::_Memcpy_val_from, COMDAT

; 2993 :     void _Memcpy_val_from(const basic_string& _Right) noexcept {

$LN3:
  00000	48 89 54 24 10	 mov	 QWORD PTR [rsp+16], rdx
  00005	48 89 4c 24 08	 mov	 QWORD PTR [rsp+8], rcx
  0000a	55		 push	 rbp
  0000b	57		 push	 rdi
  0000c	48 81 ec 28 01
	00 00		 sub	 rsp, 296		; 00000128H
  00013	48 8d 6c 24 20	 lea	 rbp, QWORD PTR [rsp+32]
  00018	48 8d 0d 00 00
	00 00		 lea	 rcx, OFFSET FLAT:__D14739E9_xstring
  0001f	e8 00 00 00 00	 call	 __CheckForDebuggerJustMyCode

; 2994 :         _STL_INTERNAL_CHECK(_Can_memcpy_val);
; 2995 :         const auto _My_data_mem =

  00024	48 8b 85 20 01
	00 00		 mov	 rax, QWORD PTR this$[rbp]
  0002b	48 8b c8	 mov	 rcx, rax
  0002e	e8 00 00 00 00	 call	 ??$addressof@V?$_String_val@U?$_Simple_types@D@std@@@std@@@std@@YAPEAV?$_String_val@U?$_Simple_types@D@std@@@0@AEAV10@@Z ; std::addressof<std::_String_val<std::_Simple_types<char> > >
  00033	48 83 c0 08	 add	 rax, 8
  00037	48 89 45 08	 mov	 QWORD PTR _My_data_mem$[rbp], rax

; 2996 :             reinterpret_cast<unsigned char*>(_STD addressof(_Mypair._Myval2)) + _Memcpy_val_offset;
; 2997 :         const auto _Right_data_mem =

  0003b	48 8b 85 28 01
	00 00		 mov	 rax, QWORD PTR _Right$[rbp]
  00042	48 8b c8	 mov	 rcx, rax
  00045	e8 00 00 00 00	 call	 ??$addressof@$$CBV?$_String_val@U?$_Simple_types@D@std@@@std@@@std@@YAPEBV?$_String_val@U?$_Simple_types@D@std@@@0@AEBV10@@Z ; std::addressof<std::_String_val<std::_Simple_types<char> > const >
  0004a	48 83 c0 08	 add	 rax, 8
  0004e	48 89 45 28	 mov	 QWORD PTR _Right_data_mem$[rbp], rax

; 2998 :             reinterpret_cast<const unsigned char*>(_STD addressof(_Right._Mypair._Myval2)) + _Memcpy_val_offset;
; 2999 :         _CSTD memcpy(_My_data_mem, _Right_data_mem, _Memcpy_val_size);

  00052	41 b8 20 00 00
	00		 mov	 r8d, 32			; 00000020H
  00058	48 8b 55 28	 mov	 rdx, QWORD PTR _Right_data_mem$[rbp]
  0005c	48 8b 4d 08	 mov	 rcx, QWORD PTR _My_data_mem$[rbp]
  00060	e8 00 00 00 00	 call	 memcpy

; 3000 :     }

  00065	48 8d a5 08 01
	00 00		 lea	 rsp, QWORD PTR [rbp+264]
  0006c	5f		 pop	 rdi
  0006d	5d		 pop	 rbp
  0006e	c3		 ret	 0
?_Memcpy_val_from@?$basic_string@DU?$char_traits@D@std@@V?$allocator@D@2@@std@@AEAAXAEBV12@@Z ENDP ; std::basic_string<char,std::char_traits<char>,std::allocator<char> >::_Memcpy_val_from
_TEXT	ENDS
; Function compile flags: /Odtp /RTCsu /ZI
; File C:\Program Files\Microsoft Visual Studio\2022\Community\VC\Tools\MSVC\14.37.32822\include\xstring
;	COMDAT ??4?$basic_string@DU?$char_traits@D@std@@V?$allocator@D@2@@std@@QEAAAEAV01@$$QEAV01@@Z
_TEXT	SEGMENT
_Al$ = 8
_Right_al$ = 40
_Pocma_val$ = 68
this$ = 320
_Right$ = 328
??4?$basic_string@DU?$char_traits@D@std@@V?$allocator@D@2@@std@@QEAAAEAV01@$$QEAV01@@Z PROC ; std::basic_string<char,std::char_traits<char>,std::allocator<char> >::operator=, COMDAT

; 2960 :         _Choose_pocma_v<_Alty> != _Pocma_values::_No_propagate_allocators) {

$LN4:
  00000	48 89 54 24 10	 mov	 QWORD PTR [rsp+16], rdx
  00005	48 89 4c 24 08	 mov	 QWORD PTR [rsp+8], rcx
  0000a	55		 push	 rbp
  0000b	57		 push	 rdi
  0000c	48 81 ec 48 01
	00 00		 sub	 rsp, 328		; 00000148H
  00013	48 8d 6c 24 20	 lea	 rbp, QWORD PTR [rsp+32]
  00018	48 8d 0d 00 00
	00 00		 lea	 rcx, OFFSET FLAT:__D14739E9_xstring
  0001f	e8 00 00 00 00	 call	 __CheckForDebuggerJustMyCode

; 2961 :         if (this == _STD addressof(_Right)) {

  00024	48 8b 8d 48 01
	00 00		 mov	 rcx, QWORD PTR _Right$[rbp]
  0002b	e8 00 00 00 00	 call	 ??$addressof@V?$basic_string@DU?$char_traits@D@std@@V?$allocator@D@2@@std@@@std@@YAPEAV?$basic_string@DU?$char_traits@D@std@@V?$allocator@D@2@@0@AEAV10@@Z ; std::addressof<std::basic_string<char,std::char_traits<char>,std::allocator<char> > >
  00030	48 39 85 40 01
	00 00		 cmp	 QWORD PTR this$[rbp], rax
  00037	75 09		 jne	 SHORT $LN2@operator

; 2962 :             return *this;

  00039	48 8b 85 40 01
	00 00		 mov	 rax, QWORD PTR this$[rbp]
  00040	eb 5a		 jmp	 SHORT $LN1@operator
$LN2@operator:

; 2963 :         }
; 2964 : 
; 2965 :         auto& _Al                 = _Getal();

  00042	48 8b 8d 40 01
	00 00		 mov	 rcx, QWORD PTR this$[rbp]
  00049	e8 00 00 00 00	 call	 ?_Getal@?$basic_string@DU?$char_traits@D@std@@V?$allocator@D@2@@std@@AEAAAEAV?$allocator@D@2@XZ ; std::basic_string<char,std::char_traits<char>,std::allocator<char> >::_Getal
  0004e	48 89 45 08	 mov	 QWORD PTR _Al$[rbp], rax

; 2966 :         auto& _Right_al           = _Right._Getal();

  00052	48 8b 8d 48 01
	00 00		 mov	 rcx, QWORD PTR _Right$[rbp]
  00059	e8 00 00 00 00	 call	 ?_Getal@?$basic_string@DU?$char_traits@D@std@@V?$allocator@D@2@@std@@AEAAAEAV?$allocator@D@2@XZ ; std::basic_string<char,std::char_traits<char>,std::allocator<char> >::_Getal
  0005e	48 89 45 28	 mov	 QWORD PTR _Right_al$[rbp], rax

; 2967 :         constexpr auto _Pocma_val = _Choose_pocma_v<_Alty>;

  00062	c7 45 44 00 00
	00 00		 mov	 DWORD PTR _Pocma_val$[rbp], 0

; 2968 :         if constexpr (_Pocma_val == _Pocma_values::_Propagate_allocators) {
; 2969 :             if (_Al != _Right_al) {
; 2970 :                 // intentionally slams into noexcept on OOM, TRANSITION, VSO-466800
; 2971 :                 _Mypair._Myval2._Orphan_all();
; 2972 :                 _Mypair._Myval2._Reload_proxy(_GET_PROXY_ALLOCATOR(_Alty, _Al), _GET_PROXY_ALLOCATOR(_Alty, _Right_al));
; 2973 :             }
; 2974 :         } else if constexpr (_Pocma_val == _Pocma_values::_No_propagate_allocators) {
; 2975 :             if (_Al != _Right_al) {
; 2976 :                 assign(_Right._Mypair._Myval2._Myptr(), _Right._Mypair._Myval2._Mysize);
; 2977 :                 return *this;
; 2978 :             }
; 2979 :         }
; 2980 : 
; 2981 :         _Tidy_deallocate();

  00069	48 8b 8d 40 01
	00 00		 mov	 rcx, QWORD PTR this$[rbp]
  00070	e8 00 00 00 00	 call	 ?_Tidy_deallocate@?$basic_string@DU?$char_traits@D@std@@V?$allocator@D@2@@std@@AEAAXXZ ; std::basic_string<char,std::char_traits<char>,std::allocator<char> >::_Tidy_deallocate

; 2982 :         _Pocma(_Al, _Right_al);

  00075	48 8b 55 28	 mov	 rdx, QWORD PTR _Right_al$[rbp]
  00079	48 8b 4d 08	 mov	 rcx, QWORD PTR _Al$[rbp]
  0007d	e8 00 00 00 00	 call	 ??$_Pocma@V?$allocator@D@std@@@std@@YAXAEAV?$allocator@D@0@0@Z ; std::_Pocma<std::allocator<char> >

; 2983 :         _Take_contents(_Right);

  00082	48 8b 95 48 01
	00 00		 mov	 rdx, QWORD PTR _Right$[rbp]
  00089	48 8b 8d 40 01
	00 00		 mov	 rcx, QWORD PTR this$[rbp]
  00090	e8 00 00 00 00	 call	 ?_Take_contents@?$basic_string@DU?$char_traits@D@std@@V?$allocator@D@2@@std@@AEAAXAEAV12@@Z ; std::basic_string<char,std::char_traits<char>,std::allocator<char> >::_Take_contents

; 2984 :         return *this;

  00095	48 8b 85 40 01
	00 00		 mov	 rax, QWORD PTR this$[rbp]
$LN1@operator:

; 2985 :     }

  0009c	48 8d a5 28 01
	00 00		 lea	 rsp, QWORD PTR [rbp+296]
  000a3	5f		 pop	 rdi
  000a4	5d		 pop	 rbp
  000a5	c3		 ret	 0
??4?$basic_string@DU?$char_traits@D@std@@V?$allocator@D@2@@std@@QEAAAEAV01@$$QEAV01@@Z ENDP ; std::basic_string<char,std::char_traits<char>,std::allocator<char> >::operator=
_TEXT	ENDS
; Function compile flags: /Odtp /RTCsu /ZI
; File C:\Program Files\Microsoft Visual Studio\2022\Community\VC\Tools\MSVC\14.37.32822\include\xstring
;	COMDAT ?_Start_element_lifetimes@?$basic_string@DU?$char_traits@D@std@@V?$allocator@D@2@@std@@CAXQEAD_K@Z
_TEXT	SEGMENT
_Ptr$ = 224
_Size$ = 232
?_Start_element_lifetimes@?$basic_string@DU?$char_traits@D@std@@V?$allocator@D@2@@std@@CAXQEAD_K@Z PROC ; std::basic_string<char,std::char_traits<char>,std::allocator<char> >::_Start_element_lifetimes, COMDAT

; 2592 :     static constexpr void _Start_element_lifetimes(_Elem* const _Ptr, const size_type _Size) {

$LN3:
  00000	48 89 54 24 10	 mov	 QWORD PTR [rsp+16], rdx
  00005	48 89 4c 24 08	 mov	 QWORD PTR [rsp+8], rcx
  0000a	55		 push	 rbp
  0000b	57		 push	 rdi
  0000c	48 81 ec e8 00
	00 00		 sub	 rsp, 232		; 000000e8H
  00013	48 8d 6c 24 20	 lea	 rbp, QWORD PTR [rsp+32]
  00018	48 8d 0d 00 00
	00 00		 lea	 rcx, OFFSET FLAT:__D14739E9_xstring
  0001f	e8 00 00 00 00	 call	 __CheckForDebuggerJustMyCode

; 2593 :         // Start element lifetimes to avoid UB. This is a more general mechanism than _String_val::_Activate_SSO_buffer,
; 2594 :         // but likely more impactful to throughput.
; 2595 : #if _HAS_CXX20
; 2596 :         if (_STD is_constant_evaluated()) {
; 2597 :             for (size_type _Idx = 0; _Idx < _Size; ++_Idx) {
; 2598 :                 _STD construct_at(_Ptr + _Idx);
; 2599 :             }
; 2600 :         }
; 2601 : #else // ^^^ C++20-or-later / pre-C++20 vvv
; 2602 :         (void) _Ptr;
; 2603 :         (void) _Size;
; 2604 : #endif // _HAS_CXX20
; 2605 :     }

  00024	48 8d a5 c8 00
	00 00		 lea	 rsp, QWORD PTR [rbp+200]
  0002b	5f		 pop	 rdi
  0002c	5d		 pop	 rbp
  0002d	c3		 ret	 0
?_Start_element_lifetimes@?$basic_string@DU?$char_traits@D@std@@V?$allocator@D@2@@std@@CAXQEAD_K@Z ENDP ; std::basic_string<char,std::char_traits<char>,std::allocator<char> >::_Start_element_lifetimes
_TEXT	ENDS
; Function compile flags: /Odtp /RTCsu /ZI
; File C:\Program Files\Microsoft Visual Studio\2022\Community\VC\Tools\MSVC\14.37.32822\include\xstring
;	COMDAT ??0?$basic_string@DU?$char_traits@D@std@@V?$allocator@D@2@@std@@QEAA@AEBV01@_K1AEBV?$allocator@D@1@@Z
_TEXT	SEGMENT
$T1 = 196
tv79 = 216
this$ = 256
_Right$ = 264
_Roff$ = 272
_Count$ = 280
_Al$ = 288
??0?$basic_string@DU?$char_traits@D@std@@V?$allocator@D@2@@std@@QEAA@AEBV01@_K1AEBV?$allocator@D@1@@Z PROC ; std::basic_string<char,std::char_traits<char>,std::allocator<char> >::basic_string<char,std::char_traits<char>,std::allocator<char> >, COMDAT

; 2509 :         : _Mypair(_One_then_variadic_args_t{}, _Al) { // construct from _Right [_Roff, _Roff + _Count)

$LN4:
  00000	4c 89 4c 24 20	 mov	 QWORD PTR [rsp+32], r9
  00005	4c 89 44 24 18	 mov	 QWORD PTR [rsp+24], r8
  0000a	48 89 54 24 10	 mov	 QWORD PTR [rsp+16], rdx
  0000f	48 89 4c 24 08	 mov	 QWORD PTR [rsp+8], rcx
  00014	55		 push	 rbp
  00015	57		 push	 rdi
  00016	48 81 ec 08 01
	00 00		 sub	 rsp, 264		; 00000108H
  0001d	48 8d 6c 24 20	 lea	 rbp, QWORD PTR [rsp+32]
  00022	48 8d 0d 00 00
	00 00		 lea	 rcx, OFFSET FLAT:__D14739E9_xstring
  00029	e8 00 00 00 00	 call	 __CheckForDebuggerJustMyCode
  0002e	48 8b 85 00 01
	00 00		 mov	 rax, QWORD PTR this$[rbp]
  00035	4c 8b 85 20 01
	00 00		 mov	 r8, QWORD PTR _Al$[rbp]
  0003c	0f b6 95 c4 00
	00 00		 movzx	 edx, BYTE PTR $T1[rbp]
  00043	48 8b c8	 mov	 rcx, rax
  00046	e8 00 00 00 00	 call	 ??$?0AEBV?$allocator@D@std@@$$V@?$_Compressed_pair@V?$allocator@D@std@@V?$_String_val@U?$_Simple_types@D@std@@@2@$00@std@@QEAA@U_One_then_variadic_args_t@1@AEBV?$allocator@D@1@@Z ; std::_Compressed_pair<std::allocator<char>,std::_String_val<std::_Simple_types<char> >,1>::_Compressed_pair<std::allocator<char>,std::_String_val<std::_Simple_types<char> >,1><std::allocator<char> const &>
  0004b	90		 npad	 1

; 2510 :         _Right._Mypair._Myval2._Check_offset(_Roff);

  0004c	48 8b 85 08 01
	00 00		 mov	 rax, QWORD PTR _Right$[rbp]
  00053	48 8b 95 10 01
	00 00		 mov	 rdx, QWORD PTR _Roff$[rbp]
  0005a	48 8b c8	 mov	 rcx, rax
  0005d	e8 00 00 00 00	 call	 ?_Check_offset@?$_String_val@U?$_Simple_types@D@std@@@std@@QEBAX_K@Z ; std::_String_val<std::_Simple_types<char> >::_Check_offset

; 2511 :         _Construct<_Construct_strategy::_From_ptr>(

  00062	48 8b 85 08 01
	00 00		 mov	 rax, QWORD PTR _Right$[rbp]
  00069	4c 8b 85 18 01
	00 00		 mov	 r8, QWORD PTR _Count$[rbp]
  00070	48 8b 95 10 01
	00 00		 mov	 rdx, QWORD PTR _Roff$[rbp]
  00077	48 8b c8	 mov	 rcx, rax
  0007a	e8 00 00 00 00	 call	 ?_Clamp_suffix_size@?$_String_val@U?$_Simple_types@D@std@@@std@@QEBA_K_K0@Z ; std::_String_val<std::_Simple_types<char> >::_Clamp_suffix_size
  0007f	48 89 85 d8 00
	00 00		 mov	 QWORD PTR tv79[rbp], rax
  00086	48 8b 8d 08 01
	00 00		 mov	 rcx, QWORD PTR _Right$[rbp]
  0008d	e8 00 00 00 00	 call	 ?_Myptr@?$_String_val@U?$_Simple_types@D@std@@@std@@QEBAPEBDXZ ; std::_String_val<std::_Simple_types<char> >::_Myptr
  00092	48 03 85 10 01
	00 00		 add	 rax, QWORD PTR _Roff$[rbp]
  00099	48 8b 8d d8 00
	00 00		 mov	 rcx, QWORD PTR tv79[rbp]
  000a0	4c 8b c1	 mov	 r8, rcx
  000a3	48 8b d0	 mov	 rdx, rax
  000a6	48 8b 8d 00 01
	00 00		 mov	 rcx, QWORD PTR this$[rbp]
  000ad	e8 00 00 00 00	 call	 ??$_Construct@$00PEBD@?$basic_string@DU?$char_traits@D@std@@V?$allocator@D@2@@std@@AEAAXQEBD_K@Z ; std::basic_string<char,std::char_traits<char>,std::allocator<char> >::_Construct<1,char const *>
  000b2	90		 npad	 1

; 2512 :             _Right._Mypair._Myval2._Myptr() + _Roff, _Right._Mypair._Myval2._Clamp_suffix_size(_Roff, _Count));
; 2513 :     }

  000b3	48 8b 85 00 01
	00 00		 mov	 rax, QWORD PTR this$[rbp]
  000ba	48 8d a5 e8 00
	00 00		 lea	 rsp, QWORD PTR [rbp+232]
  000c1	5f		 pop	 rdi
  000c2	5d		 pop	 rbp
  000c3	c3		 ret	 0
??0?$basic_string@DU?$char_traits@D@std@@V?$allocator@D@2@@std@@QEAA@AEBV01@_K1AEBV?$allocator@D@1@@Z ENDP ; std::basic_string<char,std::char_traits<char>,std::allocator<char> >::basic_string<char,std::char_traits<char>,std::allocator<char> >
_TEXT	ENDS
; Function compile flags: /Odtp /RTCsu /ZI
;	COMDAT text$x
text$x	SEGMENT
$T1 = 196
tv79 = 216
this$ = 256
_Right$ = 264
_Roff$ = 272
_Count$ = 280
_Al$ = 288
?dtor$0@?0???0?$basic_string@DU?$char_traits@D@std@@V?$allocator@D@2@@std@@QEAA@AEBV01@_K1AEBV?$allocator@D@1@@Z@4HA PROC ; `std::basic_string<char,std::char_traits<char>,std::allocator<char> >::basic_string<char,std::char_traits<char>,std::allocator<char> >'::`1'::dtor$0
  00000	48 89 4c 24 08	 mov	 QWORD PTR [rsp+8], rcx
  00005	48 89 54 24 10	 mov	 QWORD PTR [rsp+16], rdx
  0000a	55		 push	 rbp
  0000b	57		 push	 rdi
  0000c	48 83 ec 28	 sub	 rsp, 40			; 00000028H
  00010	48 8d 6a 20	 lea	 rbp, QWORD PTR [rdx+32]
  00014	48 8b 8d 00 01
	00 00		 mov	 rcx, QWORD PTR this$[rbp]
  0001b	e8 00 00 00 00	 call	 ??1?$_Compressed_pair@V?$allocator@D@std@@V?$_String_val@U?$_Simple_types@D@std@@@2@$00@std@@QEAA@XZ
  00020	48 83 c4 28	 add	 rsp, 40			; 00000028H
  00024	5f		 pop	 rdi
  00025	5d		 pop	 rbp
  00026	c3		 ret	 0
?dtor$0@?0???0?$basic_string@DU?$char_traits@D@std@@V?$allocator@D@2@@std@@QEAA@AEBV01@_K1AEBV?$allocator@D@1@@Z@4HA ENDP ; `std::basic_string<char,std::char_traits<char>,std::allocator<char> >::basic_string<char,std::char_traits<char>,std::allocator<char> >'::`1'::dtor$0
text$x	ENDS
; Function compile flags: /Odtp /RTCsu /ZI
; File C:\Program Files\Microsoft Visual Studio\2022\Community\VC\Tools\MSVC\14.37.32822\include\xstring
;	COMDAT ??0?$basic_string@DU?$char_traits@D@std@@V?$allocator@D@2@@std@@QEAA@XZ
_TEXT	SEGMENT
$T1 = 196
$T2 = 228
this$ = 288
??0?$basic_string@DU?$char_traits@D@std@@V?$allocator@D@2@@std@@QEAA@XZ PROC ; std::basic_string<char,std::char_traits<char>,std::allocator<char> >::basic_string<char,std::char_traits<char>,std::allocator<char> >, COMDAT

; 2480 :     basic_string() noexcept(is_nothrow_default_constructible_v<_Alty>) : _Mypair(_Zero_then_variadic_args_t{}) {

$LN3:
  00000	48 89 4c 24 08	 mov	 QWORD PTR [rsp+8], rcx
  00005	55		 push	 rbp
  00006	57		 push	 rdi
  00007	48 81 ec 28 01
	00 00		 sub	 rsp, 296		; 00000128H
  0000e	48 8d 6c 24 20	 lea	 rbp, QWORD PTR [rsp+32]
  00013	48 8d 0d 00 00
	00 00		 lea	 rcx, OFFSET FLAT:__D14739E9_xstring
  0001a	e8 00 00 00 00	 call	 __CheckForDebuggerJustMyCode
  0001f	48 8b 85 20 01
	00 00		 mov	 rax, QWORD PTR this$[rbp]
  00026	0f b6 95 c4 00
	00 00		 movzx	 edx, BYTE PTR $T1[rbp]
  0002d	48 8b c8	 mov	 rcx, rax
  00030	e8 00 00 00 00	 call	 ??$?0$$V@?$_Compressed_pair@V?$allocator@D@std@@V?$_String_val@U?$_Simple_types@D@std@@@2@$00@std@@QEAA@U_Zero_then_variadic_args_t@1@@Z ; std::_Compressed_pair<std::allocator<char>,std::_String_val<std::_Simple_types<char> >,1>::_Compressed_pair<std::allocator<char>,std::_String_val<std::_Simple_types<char> >,1><>

; 2481 :         _Mypair._Myval2._Alloc_proxy(_GET_PROXY_ALLOCATOR(_Alty, _Getal()));

  00035	48 8b 8d 20 01
	00 00		 mov	 rcx, QWORD PTR this$[rbp]
  0003c	e8 00 00 00 00	 call	 ?_Getal@?$basic_string@DU?$char_traits@D@std@@V?$allocator@D@2@@std@@AEAAAEAV?$allocator@D@2@XZ ; std::basic_string<char,std::char_traits<char>,std::allocator<char> >::_Getal
  00041	48 8b d0	 mov	 rdx, rax
  00044	48 8d 8d e4 00
	00 00		 lea	 rcx, QWORD PTR $T2[rbp]
  0004b	e8 00 00 00 00	 call	 ??$?0D@?$allocator@U_Container_proxy@std@@@std@@QEAA@AEBV?$allocator@D@1@@Z ; std::allocator<std::_Container_proxy>::allocator<std::_Container_proxy><char>
  00050	48 8b 8d 20 01
	00 00		 mov	 rcx, QWORD PTR this$[rbp]
  00057	48 8b d0	 mov	 rdx, rax
  0005a	e8 00 00 00 00	 call	 ??$_Alloc_proxy@V?$allocator@U_Container_proxy@std@@@std@@@_Container_base12@std@@QEAAX$$QEAV?$allocator@U_Container_proxy@std@@@1@@Z ; std::_Container_base12::_Alloc_proxy<std::allocator<std::_Container_proxy> >

; 2482 :         _Tidy_init();

  0005f	48 8b 8d 20 01
	00 00		 mov	 rcx, QWORD PTR this$[rbp]
  00066	e8 00 00 00 00	 call	 ?_Tidy_init@?$basic_string@DU?$char_traits@D@std@@V?$allocator@D@2@@std@@AEAAXXZ ; std::basic_string<char,std::char_traits<char>,std::allocator<char> >::_Tidy_init

; 2483 :     }

  0006b	48 8b 85 20 01
	00 00		 mov	 rax, QWORD PTR this$[rbp]
  00072	48 8d a5 08 01
	00 00		 lea	 rsp, QWORD PTR [rbp+264]
  00079	5f		 pop	 rdi
  0007a	5d		 pop	 rbp
  0007b	c3		 ret	 0
??0?$basic_string@DU?$char_traits@D@std@@V?$allocator@D@2@@std@@QEAA@XZ ENDP ; std::basic_string<char,std::char_traits<char>,std::allocator<char> >::basic_string<char,std::char_traits<char>,std::allocator<char> >
_TEXT	ENDS
; Function compile flags: /Odtp /RTCsu /ZI
;	COMDAT ??1?$_String_val@U?$_Simple_types@D@std@@@std@@QEAA@XZ
_TEXT	SEGMENT
this$ = 224
??1?$_String_val@U?$_Simple_types@D@std@@@std@@QEAA@XZ PROC ; std::_String_val<std::_Simple_types<char> >::~_String_val<std::_Simple_types<char> >, COMDAT
$LN3:
  00000	48 89 4c 24 08	 mov	 QWORD PTR [rsp+8], rcx
  00005	55		 push	 rbp
  00006	57		 push	 rdi
  00007	48 81 ec e8 00
	00 00		 sub	 rsp, 232		; 000000e8H
  0000e	48 8d 6c 24 20	 lea	 rbp, QWORD PTR [rsp+32]
  00013	48 8b 85 e0 00
	00 00		 mov	 rax, QWORD PTR this$[rbp]
  0001a	48 83 c0 08	 add	 rax, 8
  0001e	48 8b c8	 mov	 rcx, rax
  00021	e8 00 00 00 00	 call	 ??1_Bxty@?$_String_val@U?$_Simple_types@D@std@@@std@@QEAA@XZ ; std::_String_val<std::_Simple_types<char> >::_Bxty::~_Bxty
  00026	48 8d a5 c8 00
	00 00		 lea	 rsp, QWORD PTR [rbp+200]
  0002d	5f		 pop	 rdi
  0002e	5d		 pop	 rbp
  0002f	c3		 ret	 0
??1?$_String_val@U?$_Simple_types@D@std@@@std@@QEAA@XZ ENDP ; std::_String_val<std::_Simple_types<char> >::~_String_val<std::_Simple_types<char> >
_TEXT	ENDS
; Function compile flags: /Odtp /RTCsu /ZI
; File C:\Program Files\Microsoft Visual Studio\2022\Community\VC\Tools\MSVC\14.37.32822\include\xstring
;	COMDAT ??1_Bxty@?$_String_val@U?$_Simple_types@D@std@@@std@@QEAA@XZ
_TEXT	SEGMENT
this$ = 224
??1_Bxty@?$_String_val@U?$_Simple_types@D@std@@@std@@QEAA@XZ PROC ; std::_String_val<std::_Simple_types<char> >::_Bxty::~_Bxty, COMDAT

; 2285 :         _CONSTEXPR20 ~_Bxty() noexcept {} // user-provided, for fancy pointers

$LN3:
  00000	48 89 4c 24 08	 mov	 QWORD PTR [rsp+8], rcx
  00005	55		 push	 rbp
  00006	57		 push	 rdi
  00007	48 81 ec e8 00
	00 00		 sub	 rsp, 232		; 000000e8H
  0000e	48 8d 6c 24 20	 lea	 rbp, QWORD PTR [rsp+32]
  00013	48 8d 0d 00 00
	00 00		 lea	 rcx, OFFSET FLAT:__D14739E9_xstring
  0001a	e8 00 00 00 00	 call	 __CheckForDebuggerJustMyCode
  0001f	48 8d a5 c8 00
	00 00		 lea	 rsp, QWORD PTR [rbp+200]
  00026	5f		 pop	 rdi
  00027	5d		 pop	 rbp
  00028	c3		 ret	 0
??1_Bxty@?$_String_val@U?$_Simple_types@D@std@@@std@@QEAA@XZ ENDP ; std::_String_val<std::_Simple_types<char> >::_Bxty::~_Bxty
_TEXT	ENDS
; Function compile flags: /Odtp /RTCsu /ZI
; File C:\Program Files\Microsoft Visual Studio\2022\Community\VC\Tools\MSVC\14.37.32822\include\xstring
;	COMDAT ??0_Bxty@?$_String_val@U?$_Simple_types@D@std@@@std@@QEAA@XZ
_TEXT	SEGMENT
this$ = 224
??0_Bxty@?$_String_val@U?$_Simple_types@D@std@@@std@@QEAA@XZ PROC ; std::_String_val<std::_Simple_types<char> >::_Bxty::_Bxty, COMDAT

; 2284 :         _CONSTEXPR20 _Bxty() noexcept : _Buf() {} // user-provided, for fancy pointers

$LN3:
  00000	48 89 4c 24 08	 mov	 QWORD PTR [rsp+8], rcx
  00005	55		 push	 rbp
  00006	57		 push	 rdi
  00007	48 81 ec e8 00
	00 00		 sub	 rsp, 232		; 000000e8H
  0000e	48 8d 6c 24 20	 lea	 rbp, QWORD PTR [rsp+32]
  00013	48 8d 0d 00 00
	00 00		 lea	 rcx, OFFSET FLAT:__D14739E9_xstring
  0001a	e8 00 00 00 00	 call	 __CheckForDebuggerJustMyCode
  0001f	48 8b 85 e0 00
	00 00		 mov	 rax, QWORD PTR this$[rbp]
  00026	48 8b bd e0 00
	00 00		 mov	 rdi, QWORD PTR this$[rbp]
  0002d	33 c0		 xor	 eax, eax
  0002f	b9 10 00 00 00	 mov	 ecx, 16
  00034	f3 aa		 rep stosb
  00036	48 8b 85 e0 00
	00 00		 mov	 rax, QWORD PTR this$[rbp]
  0003d	48 8d a5 c8 00
	00 00		 lea	 rsp, QWORD PTR [rbp+200]
  00044	5f		 pop	 rdi
  00045	5d		 pop	 rbp
  00046	c3		 ret	 0
??0_Bxty@?$_String_val@U?$_Simple_types@D@std@@@std@@QEAA@XZ ENDP ; std::_String_val<std::_Simple_types<char> >::_Bxty::_Bxty
_TEXT	ENDS
; Function compile flags: /Odtp /RTCsu /ZI
; File C:\Program Files\Microsoft Visual Studio\2022\Community\VC\Tools\MSVC\14.37.32822\include\xstring
;	COMDAT ?_Clamp_suffix_size@?$_String_val@U?$_Simple_types@D@std@@@std@@QEBA_K_K0@Z
_TEXT	SEGMENT
$T1 = 200
this$ = 256
_Off$ = 264
_Size$ = 272
?_Clamp_suffix_size@?$_String_val@U?$_Simple_types@D@std@@@std@@QEBA_K_K0@Z PROC ; std::_String_val<std::_Simple_types<char> >::_Clamp_suffix_size, COMDAT

; 2276 :     _CONSTEXPR20 size_type _Clamp_suffix_size(const size_type _Off, const size_type _Size) const noexcept {

$LN3:
  00000	4c 89 44 24 18	 mov	 QWORD PTR [rsp+24], r8
  00005	48 89 54 24 10	 mov	 QWORD PTR [rsp+16], rdx
  0000a	48 89 4c 24 08	 mov	 QWORD PTR [rsp+8], rcx
  0000f	55		 push	 rbp
  00010	57		 push	 rdi
  00011	48 81 ec 08 01
	00 00		 sub	 rsp, 264		; 00000108H
  00018	48 8d 6c 24 20	 lea	 rbp, QWORD PTR [rsp+32]
  0001d	48 8d 0d 00 00
	00 00		 lea	 rcx, OFFSET FLAT:__D14739E9_xstring
  00024	e8 00 00 00 00	 call	 __CheckForDebuggerJustMyCode

; 2277 :         // trims _Size to the longest it can be assuming a string at/after _Off
; 2278 :         return (_STD min)(_Size, _Mysize - _Off);

  00029	48 8b 85 00 01
	00 00		 mov	 rax, QWORD PTR this$[rbp]
  00030	48 8b 8d 08 01
	00 00		 mov	 rcx, QWORD PTR _Off$[rbp]
  00037	48 8b 40 18	 mov	 rax, QWORD PTR [rax+24]
  0003b	48 2b c1	 sub	 rax, rcx
  0003e	48 89 85 c8 00
	00 00		 mov	 QWORD PTR $T1[rbp], rax
  00045	48 8d 95 c8 00
	00 00		 lea	 rdx, QWORD PTR $T1[rbp]
  0004c	48 8d 8d 10 01
	00 00		 lea	 rcx, QWORD PTR _Size$[rbp]
  00053	e8 00 00 00 00	 call	 ??$min@_K@std@@YAAEB_KAEB_K0@Z ; std::min<unsigned __int64>
  00058	48 8b 00	 mov	 rax, QWORD PTR [rax]

; 2279 :     }

  0005b	48 8d a5 e8 00
	00 00		 lea	 rsp, QWORD PTR [rbp+232]
  00062	5f		 pop	 rdi
  00063	5d		 pop	 rbp
  00064	c3		 ret	 0
?_Clamp_suffix_size@?$_String_val@U?$_Simple_types@D@std@@@std@@QEBA_K_K0@Z ENDP ; std::_String_val<std::_Simple_types<char> >::_Clamp_suffix_size
_TEXT	ENDS
; Function compile flags: /Odtp /RTCsu /ZI
; File C:\Program Files\Microsoft Visual Studio\2022\Community\VC\Tools\MSVC\14.37.32822\include\xstring
;	COMDAT ?_Xran@?$_String_val@U?$_Simple_types@D@std@@@std@@SAXXZ
_TEXT	SEGMENT
?_Xran@?$_String_val@U?$_Simple_types@D@std@@@std@@SAXXZ PROC ; std::_String_val<std::_Simple_types<char> >::_Xran, COMDAT

; 2272 :     [[noreturn]] static void _Xran() {

$LN3:
  00000	40 55		 push	 rbp
  00002	57		 push	 rdi
  00003	48 81 ec e8 00
	00 00		 sub	 rsp, 232		; 000000e8H
  0000a	48 8d 6c 24 20	 lea	 rbp, QWORD PTR [rsp+32]
  0000f	48 8d 0d 00 00
	00 00		 lea	 rcx, OFFSET FLAT:__D14739E9_xstring
  00016	e8 00 00 00 00	 call	 __CheckForDebuggerJustMyCode

; 2273 :         _Xout_of_range("invalid string position");

  0001b	48 8d 0d 00 00
	00 00		 lea	 rcx, OFFSET FLAT:??_C@_0BI@CFPLBAOH@invalid?5string?5position@
  00022	e8 00 00 00 00	 call	 ?_Xout_of_range@std@@YAXPEBD@Z ; std::_Xout_of_range
$LN2@Xran:

; 2274 :     }

  00027	48 8d a5 c8 00
	00 00		 lea	 rsp, QWORD PTR [rbp+200]
  0002e	5f		 pop	 rdi
  0002f	5d		 pop	 rbp
  00030	c3		 ret	 0
?_Xran@?$_String_val@U?$_Simple_types@D@std@@@std@@SAXXZ ENDP ; std::_String_val<std::_Simple_types<char> >::_Xran
_TEXT	ENDS
; Function compile flags: /Odtp /RTCsu /ZI
; File C:\Program Files\Microsoft Visual Studio\2022\Community\VC\Tools\MSVC\14.37.32822\include\xstring
;	COMDAT ?_Check_offset@?$_String_val@U?$_Simple_types@D@std@@@std@@QEBAX_K@Z
_TEXT	SEGMENT
this$ = 224
_Off$ = 232
?_Check_offset@?$_String_val@U?$_Simple_types@D@std@@@std@@QEBAX_K@Z PROC ; std::_String_val<std::_Simple_types<char> >::_Check_offset, COMDAT

; 2258 :     _CONSTEXPR20 void _Check_offset(const size_type _Off) const {

$LN4:
  00000	48 89 54 24 10	 mov	 QWORD PTR [rsp+16], rdx
  00005	48 89 4c 24 08	 mov	 QWORD PTR [rsp+8], rcx
  0000a	55		 push	 rbp
  0000b	57		 push	 rdi
  0000c	48 81 ec e8 00
	00 00		 sub	 rsp, 232		; 000000e8H
  00013	48 8d 6c 24 20	 lea	 rbp, QWORD PTR [rsp+32]
  00018	48 8d 0d 00 00
	00 00		 lea	 rcx, OFFSET FLAT:__D14739E9_xstring
  0001f	e8 00 00 00 00	 call	 __CheckForDebuggerJustMyCode

; 2259 :         // checks whether _Off is in the bounds of [0, size()]
; 2260 :         if (_Mysize < _Off) {

  00024	48 8b 85 e0 00
	00 00		 mov	 rax, QWORD PTR this$[rbp]
  0002b	48 8b 8d e8 00
	00 00		 mov	 rcx, QWORD PTR _Off$[rbp]
  00032	48 39 48 18	 cmp	 QWORD PTR [rax+24], rcx
  00036	73 05		 jae	 SHORT $LN2@Check_offs

; 2261 :             _Xran();

  00038	e8 00 00 00 00	 call	 ?_Xran@?$_String_val@U?$_Simple_types@D@std@@@std@@SAXXZ ; std::_String_val<std::_Simple_types<char> >::_Xran
$LN2@Check_offs:
$LN3@Check_offs:

; 2262 :         }
; 2263 :     }

  0003d	48 8d a5 c8 00
	00 00		 lea	 rsp, QWORD PTR [rbp+200]
  00044	5f		 pop	 rdi
  00045	5d		 pop	 rbp
  00046	c3		 ret	 0
?_Check_offset@?$_String_val@U?$_Simple_types@D@std@@@std@@QEBAX_K@Z ENDP ; std::_String_val<std::_Simple_types<char> >::_Check_offset
_TEXT	ENDS
; Function compile flags: /Odtp /RTCsu /ZI
; File C:\Program Files\Microsoft Visual Studio\2022\Community\VC\Tools\MSVC\14.37.32822\include\xstring
;	COMDAT ?_Activate_SSO_buffer@?$_String_val@U?$_Simple_types@D@std@@@std@@QEAAXXZ
_TEXT	SEGMENT
this$ = 224
?_Activate_SSO_buffer@?$_String_val@U?$_Simple_types@D@std@@@std@@QEAAXXZ PROC ; std::_String_val<std::_Simple_types<char> >::_Activate_SSO_buffer, COMDAT

; 2247 :     constexpr void _Activate_SSO_buffer() noexcept {

$LN3:
  00000	48 89 4c 24 08	 mov	 QWORD PTR [rsp+8], rcx
  00005	55		 push	 rbp
  00006	57		 push	 rdi
  00007	48 81 ec e8 00
	00 00		 sub	 rsp, 232		; 000000e8H
  0000e	48 8d 6c 24 20	 lea	 rbp, QWORD PTR [rsp+32]
  00013	48 8d 0d 00 00
	00 00		 lea	 rcx, OFFSET FLAT:__D14739E9_xstring
  0001a	e8 00 00 00 00	 call	 __CheckForDebuggerJustMyCode

; 2248 :         // start the lifetime of the array elements
; 2249 : #if _HAS_CXX20
; 2250 :         if (_STD is_constant_evaluated()) {
; 2251 :             for (size_type _Idx = 0; _Idx < _BUF_SIZE; ++_Idx) {
; 2252 :                 _Bx._Buf[_Idx] = value_type();
; 2253 :             }
; 2254 :         }
; 2255 : #endif // _HAS_CXX20
; 2256 :     }

  0001f	48 8d a5 c8 00
	00 00		 lea	 rsp, QWORD PTR [rbp+200]
  00026	5f		 pop	 rdi
  00027	5d		 pop	 rbp
  00028	c3		 ret	 0
?_Activate_SSO_buffer@?$_String_val@U?$_Simple_types@D@std@@@std@@QEAAXXZ ENDP ; std::_String_val<std::_Simple_types<char> >::_Activate_SSO_buffer
_TEXT	ENDS
; Function compile flags: /Odtp /RTCsu /ZI
; File C:\Program Files\Microsoft Visual Studio\2022\Community\VC\Tools\MSVC\14.37.32822\include\xstring
;	COMDAT ?_Large_string_engaged@?$_String_val@U?$_Simple_types@D@std@@@std@@QEBA_NXZ
_TEXT	SEGMENT
tv66 = 192
this$ = 240
?_Large_string_engaged@?$_String_val@U?$_Simple_types@D@std@@@std@@QEBA_NXZ PROC ; std::_String_val<std::_Simple_types<char> >::_Large_string_engaged, COMDAT

; 2243 :     _CONSTEXPR20 bool _Large_string_engaged() const noexcept {

$LN5:
  00000	48 89 4c 24 08	 mov	 QWORD PTR [rsp+8], rcx
  00005	55		 push	 rbp
  00006	57		 push	 rdi
  00007	48 81 ec f8 00
	00 00		 sub	 rsp, 248		; 000000f8H
  0000e	48 8d 6c 24 20	 lea	 rbp, QWORD PTR [rsp+32]
  00013	48 8d 0d 00 00
	00 00		 lea	 rcx, OFFSET FLAT:__D14739E9_xstring
  0001a	e8 00 00 00 00	 call	 __CheckForDebuggerJustMyCode

; 2244 :         return _BUF_SIZE <= _Myres;

  0001f	48 8b 85 f0 00
	00 00		 mov	 rax, QWORD PTR this$[rbp]
  00026	48 83 78 20 10	 cmp	 QWORD PTR [rax+32], 16
  0002b	72 0c		 jb	 SHORT $LN3@Large_stri
  0002d	c7 85 c0 00 00
	00 01 00 00 00	 mov	 DWORD PTR tv66[rbp], 1
  00037	eb 0a		 jmp	 SHORT $LN4@Large_stri
$LN3@Large_stri:
  00039	c7 85 c0 00 00
	00 00 00 00 00	 mov	 DWORD PTR tv66[rbp], 0
$LN4@Large_stri:
  00043	0f b6 85 c0 00
	00 00		 movzx	 eax, BYTE PTR tv66[rbp]

; 2245 :     }

  0004a	48 8d a5 d8 00
	00 00		 lea	 rsp, QWORD PTR [rbp+216]
  00051	5f		 pop	 rdi
  00052	5d		 pop	 rbp
  00053	c3		 ret	 0
?_Large_string_engaged@?$_String_val@U?$_Simple_types@D@std@@@std@@QEBA_NXZ ENDP ; std::_String_val<std::_Simple_types<char> >::_Large_string_engaged
_TEXT	ENDS
; Function compile flags: /Odtp /RTCsu /ZI
; File C:\Program Files\Microsoft Visual Studio\2022\Community\VC\Tools\MSVC\14.37.32822\include\xstring
;	COMDAT ?_Myptr@?$_String_val@U?$_Simple_types@D@std@@@std@@QEBAPEBDXZ
_TEXT	SEGMENT
_Result$ = 8
this$ = 256
?_Myptr@?$_String_val@U?$_Simple_types@D@std@@@std@@QEBAPEBDXZ PROC ; std::_String_val<std::_Simple_types<char> >::_Myptr, COMDAT

; 2234 :     _CONSTEXPR20 const value_type* _Myptr() const noexcept {

$LN4:
  00000	48 89 4c 24 08	 mov	 QWORD PTR [rsp+8], rcx
  00005	55		 push	 rbp
  00006	57		 push	 rdi
  00007	48 81 ec 08 01
	00 00		 sub	 rsp, 264		; 00000108H
  0000e	48 8d 6c 24 20	 lea	 rbp, QWORD PTR [rsp+32]
  00013	48 8d 0d 00 00
	00 00		 lea	 rcx, OFFSET FLAT:__D14739E9_xstring
  0001a	e8 00 00 00 00	 call	 __CheckForDebuggerJustMyCode

; 2235 :         const value_type* _Result = _Bx._Buf;

  0001f	48 8b 85 00 01
	00 00		 mov	 rax, QWORD PTR this$[rbp]
  00026	48 83 c0 08	 add	 rax, 8
  0002a	48 89 45 08	 mov	 QWORD PTR _Result$[rbp], rax

; 2236 :         if (_Large_string_engaged()) {

  0002e	48 8b 8d 00 01
	00 00		 mov	 rcx, QWORD PTR this$[rbp]
  00035	e8 00 00 00 00	 call	 ?_Large_string_engaged@?$_String_val@U?$_Simple_types@D@std@@@std@@QEBA_NXZ ; std::_String_val<std::_Simple_types<char> >::_Large_string_engaged
  0003a	0f b6 c0	 movzx	 eax, al
  0003d	85 c0		 test	 eax, eax
  0003f	74 14		 je	 SHORT $LN2@Myptr

; 2237 :             _Result = _Unfancy(_Bx._Ptr);

  00041	48 8b 85 00 01
	00 00		 mov	 rax, QWORD PTR this$[rbp]
  00048	48 8b 48 08	 mov	 rcx, QWORD PTR [rax+8]
  0004c	e8 00 00 00 00	 call	 ??$_Unfancy@D@std@@YAPEADPEAD@Z ; std::_Unfancy<char>
  00051	48 89 45 08	 mov	 QWORD PTR _Result$[rbp], rax
$LN2@Myptr:

; 2238 :         }
; 2239 : 
; 2240 :         return _Result;

  00055	48 8b 45 08	 mov	 rax, QWORD PTR _Result$[rbp]

; 2241 :     }

  00059	48 8d a5 e8 00
	00 00		 lea	 rsp, QWORD PTR [rbp+232]
  00060	5f		 pop	 rdi
  00061	5d		 pop	 rbp
  00062	c3		 ret	 0
?_Myptr@?$_String_val@U?$_Simple_types@D@std@@@std@@QEBAPEBDXZ ENDP ; std::_String_val<std::_Simple_types<char> >::_Myptr
_TEXT	ENDS
; Function compile flags: /Odtp /RTCsu /ZI
; File C:\Program Files\Microsoft Visual Studio\2022\Community\VC\Tools\MSVC\14.37.32822\include\xstring
;	COMDAT ?_Myptr@?$_String_val@U?$_Simple_types@D@std@@@std@@QEAAPEADXZ
_TEXT	SEGMENT
_Result$ = 8
this$ = 256
?_Myptr@?$_String_val@U?$_Simple_types@D@std@@@std@@QEAAPEADXZ PROC ; std::_String_val<std::_Simple_types<char> >::_Myptr, COMDAT

; 2225 :     _CONSTEXPR20 value_type* _Myptr() noexcept {

$LN4:
  00000	48 89 4c 24 08	 mov	 QWORD PTR [rsp+8], rcx
  00005	55		 push	 rbp
  00006	57		 push	 rdi
  00007	48 81 ec 08 01
	00 00		 sub	 rsp, 264		; 00000108H
  0000e	48 8d 6c 24 20	 lea	 rbp, QWORD PTR [rsp+32]
  00013	48 8d 0d 00 00
	00 00		 lea	 rcx, OFFSET FLAT:__D14739E9_xstring
  0001a	e8 00 00 00 00	 call	 __CheckForDebuggerJustMyCode

; 2226 :         value_type* _Result = _Bx._Buf;

  0001f	48 8b 85 00 01
	00 00		 mov	 rax, QWORD PTR this$[rbp]
  00026	48 83 c0 08	 add	 rax, 8
  0002a	48 89 45 08	 mov	 QWORD PTR _Result$[rbp], rax

; 2227 :         if (_Large_string_engaged()) {

  0002e	48 8b 8d 00 01
	00 00		 mov	 rcx, QWORD PTR this$[rbp]
  00035	e8 00 00 00 00	 call	 ?_Large_string_engaged@?$_String_val@U?$_Simple_types@D@std@@@std@@QEBA_NXZ ; std::_String_val<std::_Simple_types<char> >::_Large_string_engaged
  0003a	0f b6 c0	 movzx	 eax, al
  0003d	85 c0		 test	 eax, eax
  0003f	74 14		 je	 SHORT $LN2@Myptr

; 2228 :             _Result = _Unfancy(_Bx._Ptr);

  00041	48 8b 85 00 01
	00 00		 mov	 rax, QWORD PTR this$[rbp]
  00048	48 8b 48 08	 mov	 rcx, QWORD PTR [rax+8]
  0004c	e8 00 00 00 00	 call	 ??$_Unfancy@D@std@@YAPEADPEAD@Z ; std::_Unfancy<char>
  00051	48 89 45 08	 mov	 QWORD PTR _Result$[rbp], rax
$LN2@Myptr:

; 2229 :         }
; 2230 : 
; 2231 :         return _Result;

  00055	48 8b 45 08	 mov	 rax, QWORD PTR _Result$[rbp]

; 2232 :     }

  00059	48 8d a5 e8 00
	00 00		 lea	 rsp, QWORD PTR [rbp+232]
  00060	5f		 pop	 rdi
  00061	5d		 pop	 rbp
  00062	c3		 ret	 0
?_Myptr@?$_String_val@U?$_Simple_types@D@std@@@std@@QEAAPEADXZ ENDP ; std::_String_val<std::_Simple_types<char> >::_Myptr
_TEXT	ENDS
; Function compile flags: /Odtp /RTCsu /ZI
; File C:\Program Files\Microsoft Visual Studio\2022\Community\VC\Tools\MSVC\14.37.32822\include\xstring
;	COMDAT ??0?$_String_val@U?$_Simple_types@D@std@@@std@@QEAA@XZ
_TEXT	SEGMENT
this$ = 224
??0?$_String_val@U?$_Simple_types@D@std@@@std@@QEAA@XZ PROC ; std::_String_val<std::_Simple_types<char> >::_String_val<std::_Simple_types<char> >, COMDAT

; 2214 :     _CONSTEXPR20 _String_val() noexcept : _Bx() {}

$LN3:
  00000	48 89 4c 24 08	 mov	 QWORD PTR [rsp+8], rcx
  00005	55		 push	 rbp
  00006	57		 push	 rdi
  00007	48 81 ec e8 00
	00 00		 sub	 rsp, 232		; 000000e8H
  0000e	48 8d 6c 24 20	 lea	 rbp, QWORD PTR [rsp+32]
  00013	48 8d 0d 00 00
	00 00		 lea	 rcx, OFFSET FLAT:__D14739E9_xstring
  0001a	e8 00 00 00 00	 call	 __CheckForDebuggerJustMyCode
  0001f	48 8b 8d e0 00
	00 00		 mov	 rcx, QWORD PTR this$[rbp]
  00026	e8 00 00 00 00	 call	 ??0_Container_base12@std@@QEAA@XZ ; std::_Container_base12::_Container_base12
  0002b	48 8b 85 e0 00
	00 00		 mov	 rax, QWORD PTR this$[rbp]
  00032	48 83 c0 08	 add	 rax, 8
  00036	48 8b c8	 mov	 rcx, rax
  00039	e8 00 00 00 00	 call	 ??0_Bxty@?$_String_val@U?$_Simple_types@D@std@@@std@@QEAA@XZ ; std::_String_val<std::_Simple_types<char> >::_Bxty::_Bxty

; 2215 : 
; 2216 :     // length of internal buffer, [1, 16]:
; 2217 :     static constexpr size_type _BUF_SIZE = 16 / sizeof(value_type) < 1 ? 1 : 16 / sizeof(value_type);
; 2218 :     // roundup mask for allocated buffers, [0, 15]:
; 2219 :     static constexpr size_type _ALLOC_MASK = sizeof(value_type) <= 1 ? 15
; 2220 :                                            : sizeof(value_type) <= 2 ? 7
; 2221 :                                            : sizeof(value_type) <= 4 ? 3
; 2222 :                                            : sizeof(value_type) <= 8 ? 1
; 2223 :                                                                      : 0;
; 2224 : 
; 2225 :     _CONSTEXPR20 value_type* _Myptr() noexcept {
; 2226 :         value_type* _Result = _Bx._Buf;
; 2227 :         if (_Large_string_engaged()) {
; 2228 :             _Result = _Unfancy(_Bx._Ptr);
; 2229 :         }
; 2230 : 
; 2231 :         return _Result;
; 2232 :     }
; 2233 : 
; 2234 :     _CONSTEXPR20 const value_type* _Myptr() const noexcept {
; 2235 :         const value_type* _Result = _Bx._Buf;
; 2236 :         if (_Large_string_engaged()) {
; 2237 :             _Result = _Unfancy(_Bx._Ptr);
; 2238 :         }
; 2239 : 
; 2240 :         return _Result;
; 2241 :     }
; 2242 : 
; 2243 :     _CONSTEXPR20 bool _Large_string_engaged() const noexcept {
; 2244 :         return _BUF_SIZE <= _Myres;
; 2245 :     }
; 2246 : 
; 2247 :     constexpr void _Activate_SSO_buffer() noexcept {
; 2248 :         // start the lifetime of the array elements
; 2249 : #if _HAS_CXX20
; 2250 :         if (_STD is_constant_evaluated()) {
; 2251 :             for (size_type _Idx = 0; _Idx < _BUF_SIZE; ++_Idx) {
; 2252 :                 _Bx._Buf[_Idx] = value_type();
; 2253 :             }
; 2254 :         }
; 2255 : #endif // _HAS_CXX20
; 2256 :     }
; 2257 : 
; 2258 :     _CONSTEXPR20 void _Check_offset(const size_type _Off) const {
; 2259 :         // checks whether _Off is in the bounds of [0, size()]
; 2260 :         if (_Mysize < _Off) {
; 2261 :             _Xran();
; 2262 :         }
; 2263 :     }
; 2264 : 
; 2265 :     _CONSTEXPR20 void _Check_offset_exclusive(const size_type _Off) const {
; 2266 :         // checks whether _Off is in the bounds of [0, size())
; 2267 :         if (_Mysize <= _Off) {
; 2268 :             _Xran();
; 2269 :         }
; 2270 :     }
; 2271 : 
; 2272 :     [[noreturn]] static void _Xran() {
; 2273 :         _Xout_of_range("invalid string position");
; 2274 :     }
; 2275 : 
; 2276 :     _CONSTEXPR20 size_type _Clamp_suffix_size(const size_type _Off, const size_type _Size) const noexcept {
; 2277 :         // trims _Size to the longest it can be assuming a string at/after _Off
; 2278 :         return (_STD min)(_Size, _Mysize - _Off);
; 2279 :     }
; 2280 : 
; 2281 :     union _Bxty { // storage for small buffer or pointer to larger one
; 2282 :         // This constructor previously initialized _Ptr. Don't rely on the new behavior without
; 2283 :         // renaming `_String_val` (and fixing the visualizer).
; 2284 :         _CONSTEXPR20 _Bxty() noexcept : _Buf() {} // user-provided, for fancy pointers
; 2285 :         _CONSTEXPR20 ~_Bxty() noexcept {} // user-provided, for fancy pointers
; 2286 : 
; 2287 :         value_type _Buf[_BUF_SIZE];
; 2288 :         pointer _Ptr;
; 2289 :         char _Alias[_BUF_SIZE]; // TRANSITION, ABI: _Alias is preserved for binary compatibility (especially /clr)
; 2290 :     };
; 2291 :     _Bxty _Bx;
; 2292 : 
; 2293 :     size_type _Mysize = 0; // current length of string

  0003e	48 8b 85 e0 00
	00 00		 mov	 rax, QWORD PTR this$[rbp]
  00045	48 c7 40 18 00
	00 00 00	 mov	 QWORD PTR [rax+24], 0

; 2294 :     size_type _Myres  = 0; // current storage reserved for string

  0004d	48 8b 85 e0 00
	00 00		 mov	 rax, QWORD PTR this$[rbp]
  00054	48 c7 40 20 00
	00 00 00	 mov	 QWORD PTR [rax+32], 0

; 2214 :     _CONSTEXPR20 _String_val() noexcept : _Bx() {}

  0005c	48 8b 85 e0 00
	00 00		 mov	 rax, QWORD PTR this$[rbp]
  00063	48 8d a5 c8 00
	00 00		 lea	 rsp, QWORD PTR [rbp+200]
  0006a	5f		 pop	 rdi
  0006b	5d		 pop	 rbp
  0006c	c3		 ret	 0
??0?$_String_val@U?$_Simple_types@D@std@@@std@@QEAA@XZ ENDP ; std::_String_val<std::_Simple_types<char> >::_String_val<std::_Simple_types<char> >
_TEXT	ENDS
; Function compile flags: /Odtp /RTCsu /ZI
; File C:\Program Files\Microsoft Visual Studio\2022\Community\VC\Tools\MSVC\14.37.32822\include\xmemory
;	COMDAT ?max_size@?$_Default_allocator_traits@V?$allocator@D@std@@@std@@SA_KAEBV?$allocator@D@2@@Z
_TEXT	SEGMENT
__formal$ = 224
?max_size@?$_Default_allocator_traits@V?$allocator@D@std@@@std@@SA_KAEBV?$allocator@D@2@@Z PROC ; std::_Default_allocator_traits<std::allocator<char> >::max_size, COMDAT

; 732  :     _NODISCARD static _CONSTEXPR20 size_type max_size(const _Alloc&) noexcept {

$LN3:
  00000	48 89 4c 24 08	 mov	 QWORD PTR [rsp+8], rcx
  00005	55		 push	 rbp
  00006	57		 push	 rdi
  00007	48 81 ec e8 00
	00 00		 sub	 rsp, 232		; 000000e8H
  0000e	48 8d 6c 24 20	 lea	 rbp, QWORD PTR [rsp+32]
  00013	48 8d 0d 00 00
	00 00		 lea	 rcx, OFFSET FLAT:__A594BF75_xmemory
  0001a	e8 00 00 00 00	 call	 __CheckForDebuggerJustMyCode

; 733  :         return static_cast<size_t>(-1) / sizeof(value_type);

  0001f	48 c7 c0 ff ff
	ff ff		 mov	 rax, -1

; 734  :     }

  00026	48 8d a5 c8 00
	00 00		 lea	 rsp, QWORD PTR [rbp+200]
  0002d	5f		 pop	 rdi
  0002e	5d		 pop	 rbp
  0002f	c3		 ret	 0
?max_size@?$_Default_allocator_traits@V?$allocator@D@std@@@std@@SA_KAEBV?$allocator@D@2@@Z ENDP ; std::_Default_allocator_traits<std::allocator<char> >::max_size
_TEXT	ENDS
; Function compile flags: /Odtp /RTCsu /ZI
; File C:\Program Files\Microsoft Visual Studio\2022\Community\VC\Tools\MSVC\14.37.32822\include\xmemory
;	COMDAT ?allocate@?$allocator@D@std@@QEAAPEAD_K@Z
_TEXT	SEGMENT
this$ = 224
_Count$ = 232
?allocate@?$allocator@D@std@@QEAAPEAD_K@Z PROC		; std::allocator<char>::allocate, COMDAT

; 972  :     _NODISCARD_RAW_PTR_ALLOC _CONSTEXPR20 __declspec(allocator) _Ty* allocate(_CRT_GUARDOVERFLOW const size_t _Count) {

$LN3:
  00000	48 89 54 24 10	 mov	 QWORD PTR [rsp+16], rdx
  00005	48 89 4c 24 08	 mov	 QWORD PTR [rsp+8], rcx
  0000a	55		 push	 rbp
  0000b	57		 push	 rdi
  0000c	48 81 ec e8 00
	00 00		 sub	 rsp, 232		; 000000e8H
  00013	48 8d 6c 24 20	 lea	 rbp, QWORD PTR [rsp+32]
  00018	48 8d 0d 00 00
	00 00		 lea	 rcx, OFFSET FLAT:__A594BF75_xmemory
  0001f	e8 00 00 00 00	 call	 __CheckForDebuggerJustMyCode

; 973  :         static_assert(sizeof(value_type) > 0, "value_type must be complete before calling allocate.");
; 974  :         return static_cast<_Ty*>(_Allocate<_New_alignof<_Ty>>(_Get_size_of_n<sizeof(_Ty)>(_Count)));

  00024	48 8b 8d e8 00
	00 00		 mov	 rcx, QWORD PTR _Count$[rbp]
  0002b	e8 00 00 00 00	 call	 ??$_Get_size_of_n@$00@std@@YA_K_K@Z ; std::_Get_size_of_n<1>
  00030	48 8b c8	 mov	 rcx, rax
  00033	e8 00 00 00 00	 call	 ??$_Allocate@$0BA@U_Default_allocate_traits@std@@$0A@@std@@YAPEAX_K@Z ; std::_Allocate<16,std::_Default_allocate_traits,0>

; 975  :     }

  00038	48 8d a5 c8 00
	00 00		 lea	 rsp, QWORD PTR [rbp+200]
  0003f	5f		 pop	 rdi
  00040	5d		 pop	 rbp
  00041	c3		 ret	 0
?allocate@?$allocator@D@std@@QEAAPEAD_K@Z ENDP		; std::allocator<char>::allocate
_TEXT	ENDS
; Function compile flags: /Odtp /RTCsu /ZI
; File C:\Program Files\Microsoft Visual Studio\2022\Community\VC\Tools\MSVC\14.37.32822\include\xmemory
;	COMDAT ?deallocate@?$allocator@D@std@@QEAAXQEAD_K@Z
_TEXT	SEGMENT
this$ = 224
_Ptr$ = 232
_Count$ = 240
?deallocate@?$allocator@D@std@@QEAAXQEAD_K@Z PROC	; std::allocator<char>::deallocate, COMDAT

; 966  :     _CONSTEXPR20 void deallocate(_Ty* const _Ptr, const size_t _Count) {

$LN13:
  00000	4c 89 44 24 18	 mov	 QWORD PTR [rsp+24], r8
  00005	48 89 54 24 10	 mov	 QWORD PTR [rsp+16], rdx
  0000a	48 89 4c 24 08	 mov	 QWORD PTR [rsp+8], rcx
  0000f	55		 push	 rbp
  00010	57		 push	 rdi
  00011	48 81 ec f8 00
	00 00		 sub	 rsp, 248		; 000000f8H
  00018	48 8d 6c 24 30	 lea	 rbp, QWORD PTR [rsp+48]
  0001d	48 8d 0d 00 00
	00 00		 lea	 rcx, OFFSET FLAT:__A594BF75_xmemory
  00024	e8 00 00 00 00	 call	 __CheckForDebuggerJustMyCode
$LN4@deallocate:

; 967  :         _STL_ASSERT(_Ptr != nullptr || _Count == 0, "null pointer cannot point to a block of non-zero size");

  00029	48 83 bd e8 00
	00 00 00	 cmp	 QWORD PTR _Ptr$[rbp], 0
  00031	75 0a		 jne	 SHORT $LN10@deallocate
  00033	48 83 bd f0 00
	00 00 00	 cmp	 QWORD PTR _Count$[rbp], 0
  0003b	75 02		 jne	 SHORT $LN8@deallocate
$LN10@deallocate:
  0003d	eb 6b		 jmp	 SHORT $LN9@deallocate
$LN8@deallocate:
$LN7@deallocate:
  0003f	48 8d 05 00 00
	00 00		 lea	 rax, OFFSET FLAT:??_C@_0DG@KGHKKGBC@null?5pointer?5cannot?5point?5to?5a?5@
  00046	48 89 44 24 28	 mov	 QWORD PTR [rsp+40], rax
  0004b	48 8d 05 00 00
	00 00		 lea	 rax, OFFSET FLAT:??_C@_02DKCKIIND@?$CFs@
  00052	48 89 44 24 20	 mov	 QWORD PTR [rsp+32], rax
  00057	45 33 c9	 xor	 r9d, r9d
  0005a	41 b8 c7 03 00
	00		 mov	 r8d, 967		; 000003c7H
  00060	48 8d 15 00 00
	00 00		 lea	 rdx, OFFSET FLAT:??_C@_0GC@JDLAECEI@C?3?2Program?5Files?2Microsoft?5Visu@
  00067	b9 02 00 00 00	 mov	 ecx, 2
  0006c	ff 15 00 00 00
	00		 call	 QWORD PTR __imp__CrtDbgReport
  00072	83 f8 01	 cmp	 eax, 1
  00075	75 03		 jne	 SHORT $LN12@deallocate
  00077	cc		 int	 3
  00078	33 c0		 xor	 eax, eax
$LN12@deallocate:
  0007a	48 c7 44 24 20
	00 00 00 00	 mov	 QWORD PTR [rsp+32], 0
  00083	41 b9 c7 03 00
	00		 mov	 r9d, 967		; 000003c7H
  00089	4c 8d 05 00 00
	00 00		 lea	 r8, OFFSET FLAT:??_C@_1ME@PPIEIJND@?$AAC?$AA?3?$AA?2?$AAP?$AAr?$AAo?$AAg?$AAr?$AAa?$AAm?$AA?5?$AAF?$AAi?$AAl?$AAe@
  00090	48 8d 15 00 00
	00 00		 lea	 rdx, OFFSET FLAT:??_C@_11LOCGONAA@@
  00097	48 8d 0d 00 00
	00 00		 lea	 rcx, OFFSET FLAT:??_C@_1HA@FACCKGGH@?$AA?$CC?$AAn?$AAu?$AAl?$AAl?$AA?5?$AAp?$AAo?$AAi?$AAn?$AAt?$AAe?$AAr?$AA?5?$AAc@
  0009e	ff 15 00 00 00
	00		 call	 QWORD PTR __imp__invalid_parameter
  000a4	33 c0		 xor	 eax, eax
  000a6	85 c0		 test	 eax, eax
  000a8	75 95		 jne	 SHORT $LN7@deallocate
$LN9@deallocate:
  000aa	33 c0		 xor	 eax, eax
  000ac	85 c0		 test	 eax, eax
  000ae	0f 85 75 ff ff
	ff		 jne	 $LN4@deallocate

; 968  :         // no overflow check on the following multiply; we assume _Allocate did that check
; 969  :         _Deallocate<_New_alignof<_Ty>>(_Ptr, sizeof(_Ty) * _Count);

  000b4	48 8b 95 f0 00
	00 00		 mov	 rdx, QWORD PTR _Count$[rbp]
  000bb	48 8b 8d e8 00
	00 00		 mov	 rcx, QWORD PTR _Ptr$[rbp]
  000c2	e8 00 00 00 00	 call	 ??$_Deallocate@$0BA@$0A@@std@@YAXPEAX_K@Z ; std::_Deallocate<16,0>

; 970  :     }

  000c7	48 8d a5 c8 00
	00 00		 lea	 rsp, QWORD PTR [rbp+200]
  000ce	5f		 pop	 rdi
  000cf	5d		 pop	 rbp
  000d0	c3		 ret	 0
?deallocate@?$allocator@D@std@@QEAAXQEAD_K@Z ENDP	; std::allocator<char>::deallocate
_TEXT	ENDS
; Function compile flags: /Odtp /RTCsu /ZI
; File C:\Program Files\Microsoft Visual Studio\2022\Community\VC\Tools\MSVC\14.37.32822\include\xmemory
;	COMDAT ??0?$allocator@D@std@@QEAA@XZ
_TEXT	SEGMENT
this$ = 224
??0?$allocator@D@std@@QEAA@XZ PROC			; std::allocator<char>::allocator<char>, COMDAT

; 958  :     constexpr allocator() noexcept {}

$LN3:
  00000	48 89 4c 24 08	 mov	 QWORD PTR [rsp+8], rcx
  00005	55		 push	 rbp
  00006	57		 push	 rdi
  00007	48 81 ec e8 00
	00 00		 sub	 rsp, 232		; 000000e8H
  0000e	48 8d 6c 24 20	 lea	 rbp, QWORD PTR [rsp+32]
  00013	48 8d 0d 00 00
	00 00		 lea	 rcx, OFFSET FLAT:__A594BF75_xmemory
  0001a	e8 00 00 00 00	 call	 __CheckForDebuggerJustMyCode
  0001f	48 8b 85 e0 00
	00 00		 mov	 rax, QWORD PTR this$[rbp]
  00026	48 8d a5 c8 00
	00 00		 lea	 rsp, QWORD PTR [rbp+200]
  0002d	5f		 pop	 rdi
  0002e	5d		 pop	 rbp
  0002f	c3		 ret	 0
??0?$allocator@D@std@@QEAA@XZ ENDP			; std::allocator<char>::allocator<char>
_TEXT	ENDS
; Function compile flags: /Odtp /RTCsu /ZI
; File C:\Program Files\Microsoft Visual Studio\2022\Community\VC\Tools\MSVC\14.37.32822\include\xstring
;	COMDAT ?_Xlen_string@std@@YAXXZ
_TEXT	SEGMENT
?_Xlen_string@std@@YAXXZ PROC				; std::_Xlen_string, COMDAT

; 2311 : [[noreturn]] inline void _Xlen_string() {

$LN3:
  00000	40 55		 push	 rbp
  00002	57		 push	 rdi
  00003	48 81 ec e8 00
	00 00		 sub	 rsp, 232		; 000000e8H
  0000a	48 8d 6c 24 20	 lea	 rbp, QWORD PTR [rsp+32]
  0000f	48 8d 0d 00 00
	00 00		 lea	 rcx, OFFSET FLAT:__D14739E9_xstring
  00016	e8 00 00 00 00	 call	 __CheckForDebuggerJustMyCode

; 2312 :     _Xlength_error("string too long");

  0001b	48 8d 0d 00 00
	00 00		 lea	 rcx, OFFSET FLAT:??_C@_0BA@JFNIOLAK@string?5too?5long@
  00022	e8 00 00 00 00	 call	 ?_Xlength_error@std@@YAXPEBD@Z ; std::_Xlength_error
$LN2@Xlen_strin:

; 2313 : }

  00027	48 8d a5 c8 00
	00 00		 lea	 rsp, QWORD PTR [rbp+200]
  0002e	5f		 pop	 rdi
  0002f	5d		 pop	 rbp
  00030	c3		 ret	 0
?_Xlen_string@std@@YAXXZ ENDP				; std::_Xlen_string
_TEXT	ENDS
; Function compile flags: /Odtp /RTCsu /ZI
; File C:\Program Files\Microsoft Visual Studio\2022\Community\VC\Tools\MSVC\14.37.32822\include\xstring
;	COMDAT ?eof@?$_Narrow_char_traits@DH@std@@SAHXZ
_TEXT	SEGMENT
?eof@?$_Narrow_char_traits@DH@std@@SAHXZ PROC		; std::_Narrow_char_traits<char,int>::eof, COMDAT

; 473  :     _NODISCARD static constexpr int_type eof() noexcept {

$LN3:
  00000	40 55		 push	 rbp
  00002	57		 push	 rdi
  00003	48 81 ec e8 00
	00 00		 sub	 rsp, 232		; 000000e8H
  0000a	48 8d 6c 24 20	 lea	 rbp, QWORD PTR [rsp+32]
  0000f	48 8d 0d 00 00
	00 00		 lea	 rcx, OFFSET FLAT:__D14739E9_xstring
  00016	e8 00 00 00 00	 call	 __CheckForDebuggerJustMyCode

; 474  :         return static_cast<int_type>(EOF);

  0001b	b8 ff ff ff ff	 mov	 eax, -1

; 475  :     }

  00020	48 8d a5 c8 00
	00 00		 lea	 rsp, QWORD PTR [rbp+200]
  00027	5f		 pop	 rdi
  00028	5d		 pop	 rbp
  00029	c3		 ret	 0
?eof@?$_Narrow_char_traits@DH@std@@SAHXZ ENDP		; std::_Narrow_char_traits<char,int>::eof
_TEXT	ENDS
; Function compile flags: /Odtp /RTCsu /ZI
; File C:\Program Files\Microsoft Visual Studio\2022\Community\VC\Tools\MSVC\14.37.32822\include\xstring
;	COMDAT ?eq_int_type@?$_Narrow_char_traits@DH@std@@SA_NAEBH0@Z
_TEXT	SEGMENT
tv65 = 192
_Left$ = 240
_Right$ = 248
?eq_int_type@?$_Narrow_char_traits@DH@std@@SA_NAEBH0@Z PROC ; std::_Narrow_char_traits<char,int>::eq_int_type, COMDAT

; 465  :     _NODISCARD static constexpr bool eq_int_type(const int_type& _Left, const int_type& _Right) noexcept {

$LN5:
  00000	48 89 54 24 10	 mov	 QWORD PTR [rsp+16], rdx
  00005	48 89 4c 24 08	 mov	 QWORD PTR [rsp+8], rcx
  0000a	55		 push	 rbp
  0000b	57		 push	 rdi
  0000c	48 81 ec f8 00
	00 00		 sub	 rsp, 248		; 000000f8H
  00013	48 8d 6c 24 20	 lea	 rbp, QWORD PTR [rsp+32]
  00018	48 8d 0d 00 00
	00 00		 lea	 rcx, OFFSET FLAT:__D14739E9_xstring
  0001f	e8 00 00 00 00	 call	 __CheckForDebuggerJustMyCode

; 466  :         return _Left == _Right;

  00024	48 8b 85 f0 00
	00 00		 mov	 rax, QWORD PTR _Left$[rbp]
  0002b	48 8b 8d f8 00
	00 00		 mov	 rcx, QWORD PTR _Right$[rbp]
  00032	8b 09		 mov	 ecx, DWORD PTR [rcx]
  00034	39 08		 cmp	 DWORD PTR [rax], ecx
  00036	75 0c		 jne	 SHORT $LN3@eq_int_typ
  00038	c7 85 c0 00 00
	00 01 00 00 00	 mov	 DWORD PTR tv65[rbp], 1
  00042	eb 0a		 jmp	 SHORT $LN4@eq_int_typ
$LN3@eq_int_typ:
  00044	c7 85 c0 00 00
	00 00 00 00 00	 mov	 DWORD PTR tv65[rbp], 0
$LN4@eq_int_typ:
  0004e	0f b6 85 c0 00
	00 00		 movzx	 eax, BYTE PTR tv65[rbp]

; 467  :     }

  00055	48 8d a5 d8 00
	00 00		 lea	 rsp, QWORD PTR [rbp+216]
  0005c	5f		 pop	 rdi
  0005d	5d		 pop	 rbp
  0005e	c3		 ret	 0
?eq_int_type@?$_Narrow_char_traits@DH@std@@SA_NAEBH0@Z ENDP ; std::_Narrow_char_traits<char,int>::eq_int_type
_TEXT	ENDS
; Function compile flags: /Odtp /RTCsu /ZI
; File C:\Program Files\Microsoft Visual Studio\2022\Community\VC\Tools\MSVC\14.37.32822\include\xstring
;	COMDAT ?to_char_type@?$_Narrow_char_traits@DH@std@@SADAEBH@Z
_TEXT	SEGMENT
_Meta$ = 224
?to_char_type@?$_Narrow_char_traits@DH@std@@SADAEBH@Z PROC ; std::_Narrow_char_traits<char,int>::to_char_type, COMDAT

; 457  :     _NODISCARD static constexpr _Elem to_char_type(const int_type& _Meta) noexcept {

$LN3:
  00000	48 89 4c 24 08	 mov	 QWORD PTR [rsp+8], rcx
  00005	55		 push	 rbp
  00006	57		 push	 rdi
  00007	48 81 ec e8 00
	00 00		 sub	 rsp, 232		; 000000e8H
  0000e	48 8d 6c 24 20	 lea	 rbp, QWORD PTR [rsp+32]
  00013	48 8d 0d 00 00
	00 00		 lea	 rcx, OFFSET FLAT:__D14739E9_xstring
  0001a	e8 00 00 00 00	 call	 __CheckForDebuggerJustMyCode

; 458  :         return static_cast<_Elem>(_Meta);

  0001f	48 8b 85 e0 00
	00 00		 mov	 rax, QWORD PTR _Meta$[rbp]
  00026	0f b6 00	 movzx	 eax, BYTE PTR [rax]

; 459  :     }

  00029	48 8d a5 c8 00
	00 00		 lea	 rsp, QWORD PTR [rbp+200]
  00030	5f		 pop	 rdi
  00031	5d		 pop	 rbp
  00032	c3		 ret	 0
?to_char_type@?$_Narrow_char_traits@DH@std@@SADAEBH@Z ENDP ; std::_Narrow_char_traits<char,int>::to_char_type
_TEXT	ENDS
; Function compile flags: /Odtp /RTCsu /ZI
; File C:\Program Files\Microsoft Visual Studio\2022\Community\VC\Tools\MSVC\14.37.32822\include\xstring
;	COMDAT ?assign@?$_Narrow_char_traits@DH@std@@SAXAEADAEBD@Z
_TEXT	SEGMENT
_Left$ = 224
_Right$ = 232
?assign@?$_Narrow_char_traits@DH@std@@SAXAEADAEBD@Z PROC ; std::_Narrow_char_traits<char,int>::assign, COMDAT

; 440  :     static _CONSTEXPR17 void assign(_Elem& _Left, const _Elem& _Right) noexcept {

$LN3:
  00000	48 89 54 24 10	 mov	 QWORD PTR [rsp+16], rdx
  00005	48 89 4c 24 08	 mov	 QWORD PTR [rsp+8], rcx
  0000a	55		 push	 rbp
  0000b	57		 push	 rdi
  0000c	48 81 ec e8 00
	00 00		 sub	 rsp, 232		; 000000e8H
  00013	48 8d 6c 24 20	 lea	 rbp, QWORD PTR [rsp+32]
  00018	48 8d 0d 00 00
	00 00		 lea	 rcx, OFFSET FLAT:__D14739E9_xstring
  0001f	e8 00 00 00 00	 call	 __CheckForDebuggerJustMyCode

; 441  : #if _HAS_CXX20
; 442  :         if (_STD is_constant_evaluated()) {
; 443  :             return _Primary_char_traits::assign(_Left, _Right);
; 444  :         }
; 445  : #endif // _HAS_CXX20
; 446  :         _Left = _Right;

  00024	48 8b 85 e0 00
	00 00		 mov	 rax, QWORD PTR _Left$[rbp]
  0002b	48 8b 8d e8 00
	00 00		 mov	 rcx, QWORD PTR _Right$[rbp]
  00032	0f b6 09	 movzx	 ecx, BYTE PTR [rcx]
  00035	88 08		 mov	 BYTE PTR [rax], cl

; 447  :     }

  00037	48 8d a5 c8 00
	00 00		 lea	 rsp, QWORD PTR [rbp+200]
  0003e	5f		 pop	 rdi
  0003f	5d		 pop	 rbp
  00040	c3		 ret	 0
?assign@?$_Narrow_char_traits@DH@std@@SAXAEADAEBD@Z ENDP ; std::_Narrow_char_traits<char,int>::assign
_TEXT	ENDS
; Function compile flags: /Odtp /RTCsu /ZI
; File C:\Program Files\Microsoft Visual Studio\2022\Community\VC\Tools\MSVC\14.37.32822\include\xstring
;	COMDAT ?length@?$_Narrow_char_traits@DH@std@@SA_KQEBD@Z
_TEXT	SEGMENT
_First$ = 224
?length@?$_Narrow_char_traits@DH@std@@SA_KQEBD@Z PROC	; std::_Narrow_char_traits<char,int>::length, COMDAT

; 387  :     _NODISCARD static _CONSTEXPR17 size_t length(_In_z_ const _Elem* const _First) noexcept /* strengthened */ {

$LN3:
  00000	48 89 4c 24 08	 mov	 QWORD PTR [rsp+8], rcx
  00005	55		 push	 rbp
  00006	57		 push	 rdi
  00007	48 81 ec e8 00
	00 00		 sub	 rsp, 232		; 000000e8H
  0000e	48 8d 6c 24 20	 lea	 rbp, QWORD PTR [rsp+32]
  00013	48 8d 0d 00 00
	00 00		 lea	 rcx, OFFSET FLAT:__D14739E9_xstring
  0001a	e8 00 00 00 00	 call	 __CheckForDebuggerJustMyCode

; 388  :         // find length of null-terminated string
; 389  : #if _HAS_CXX17
; 390  : #ifdef __cpp_char8_t
; 391  :         if constexpr (is_same_v<_Elem, char8_t>) {
; 392  : #if _HAS_U8_INTRINSICS
; 393  :             return __builtin_u8strlen(_First);
; 394  : #else // ^^^ use u8 intrinsics / no u8 intrinsics vvv
; 395  :             return _Primary_char_traits::length(_First);
; 396  : #endif // _HAS_U8_INTRINSICS
; 397  :         } else
; 398  : #endif // __cpp_char8_t
; 399  :         {
; 400  :             return __builtin_strlen(_First);
; 401  :         }
; 402  : #else // _HAS_CXX17
; 403  :         return _CSTD strlen(reinterpret_cast<const char*>(_First));

  0001f	48 8b 8d e0 00
	00 00		 mov	 rcx, QWORD PTR _First$[rbp]
  00026	e8 00 00 00 00	 call	 strlen

; 404  : #endif // _HAS_CXX17
; 405  :     }

  0002b	48 8d a5 c8 00
	00 00		 lea	 rsp, QWORD PTR [rbp+200]
  00032	5f		 pop	 rdi
  00033	5d		 pop	 rbp
  00034	c3		 ret	 0
?length@?$_Narrow_char_traits@DH@std@@SA_KQEBD@Z ENDP	; std::_Narrow_char_traits<char,int>::length
_TEXT	ENDS
; Function compile flags: /Odtp /RTCsu /ZI
; File C:\Program Files\Microsoft Visual Studio\2022\Community\VC\Tools\MSVC\14.37.32822\include\xstring
;	COMDAT ?copy@?$_Char_traits@DH@std@@SAPEADQEADQEBD_K@Z
_TEXT	SEGMENT
_First1$ = 224
_First2$ = 232
_Count$ = 240
?copy@?$_Char_traits@DH@std@@SAPEADQEADQEBD_K@Z PROC	; std::_Char_traits<char,int>::copy, COMDAT

; 50   :         _In_reads_(_Count) const _Elem* const _First2, const size_t _Count) noexcept /* strengthened */ {

$LN3:
  00000	4c 89 44 24 18	 mov	 QWORD PTR [rsp+24], r8
  00005	48 89 54 24 10	 mov	 QWORD PTR [rsp+16], rdx
  0000a	48 89 4c 24 08	 mov	 QWORD PTR [rsp+8], rcx
  0000f	55		 push	 rbp
  00010	57		 push	 rdi
  00011	48 81 ec e8 00
	00 00		 sub	 rsp, 232		; 000000e8H
  00018	48 8d 6c 24 20	 lea	 rbp, QWORD PTR [rsp+32]
  0001d	48 8d 0d 00 00
	00 00		 lea	 rcx, OFFSET FLAT:__D14739E9_xstring
  00024	e8 00 00 00 00	 call	 __CheckForDebuggerJustMyCode

; 51   :         // copy [_First2, _First2 + _Count) to [_First1, ...)
; 52   : #if _HAS_MEMCPY_MEMMOVE_INTRINSICS
; 53   :         __builtin_memcpy(_First1, _First2, _Count * sizeof(_Elem));
; 54   : #else // ^^^ _HAS_MEMCPY_MEMMOVE_INTRINSICS / !_HAS_MEMCPY_MEMMOVE_INTRINSICS vvv
; 55   : #if _HAS_CXX20
; 56   :         if (_STD is_constant_evaluated()) {
; 57   :             // pre: [_First1, _First1 + _Count) and [_First2, _First2 + _Count) do not overlap
; 58   :             for (size_t _Idx = 0; _Idx != _Count; ++_Idx) {
; 59   :                 _First1[_Idx] = _First2[_Idx];
; 60   :             }
; 61   : 
; 62   :             return _First1;
; 63   :         }
; 64   : #endif // _HAS_CXX20
; 65   : 
; 66   :         _CSTD memcpy(_First1, _First2, _Count * sizeof(_Elem));

  00029	4c 8b 85 f0 00
	00 00		 mov	 r8, QWORD PTR _Count$[rbp]
  00030	48 8b 95 e8 00
	00 00		 mov	 rdx, QWORD PTR _First2$[rbp]
  00037	48 8b 8d e0 00
	00 00		 mov	 rcx, QWORD PTR _First1$[rbp]
  0003e	e8 00 00 00 00	 call	 memcpy

; 67   : #endif // ^^^ !_HAS_MEMCPY_MEMMOVE_INTRINSICS ^^^
; 68   : 
; 69   :         return _First1;

  00043	48 8b 85 e0 00
	00 00		 mov	 rax, QWORD PTR _First1$[rbp]

; 70   :     }

  0004a	48 8d a5 c8 00
	00 00		 lea	 rsp, QWORD PTR [rbp+200]
  00051	5f		 pop	 rdi
  00052	5d		 pop	 rbp
  00053	c3		 ret	 0
?copy@?$_Char_traits@DH@std@@SAPEADQEADQEBD_K@Z ENDP	; std::_Char_traits<char,int>::copy
_TEXT	ENDS
; Function compile flags: /Odtp /RTCsu /ZI
; File C:\Program Files\Microsoft Visual Studio\2022\Community\VC\Tools\MSVC\14.37.32822\include\xutility
;	COMDAT ??$_Construct_in_place@U_Container_proxy@std@@PEAU_Container_base12@2@@std@@YAXAEAU_Container_proxy@0@$$QEAPEAU_Container_base12@0@@Z
_TEXT	SEGMENT
$T1 = 200
_Obj$ = 256
<_Args_0>$ = 264
??$_Construct_in_place@U_Container_proxy@std@@PEAU_Container_base12@2@@std@@YAXAEAU_Container_proxy@0@$$QEAPEAU_Container_base12@0@@Z PROC ; std::_Construct_in_place<std::_Container_proxy,std::_Container_base12 *>, COMDAT

; 247  :     is_nothrow_constructible_v<_Ty, _Types...>) {

$LN3:
  00000	48 89 54 24 10	 mov	 QWORD PTR [rsp+16], rdx
  00005	48 89 4c 24 08	 mov	 QWORD PTR [rsp+8], rcx
  0000a	55		 push	 rbp
  0000b	57		 push	 rdi
  0000c	48 81 ec 08 01
	00 00		 sub	 rsp, 264		; 00000108H
  00013	48 8d 6c 24 20	 lea	 rbp, QWORD PTR [rsp+32]
  00018	48 8d 0d 00 00
	00 00		 lea	 rcx, OFFSET FLAT:__D740E0F1_xutility
  0001f	e8 00 00 00 00	 call	 __CheckForDebuggerJustMyCode

; 248  : #if _HAS_CXX20
; 249  :     if (_STD is_constant_evaluated()) {
; 250  :         _STD construct_at(_STD addressof(_Obj), _STD forward<_Types>(_Args)...);
; 251  :     } else
; 252  : #endif // _HAS_CXX20
; 253  :     {
; 254  :         ::new (static_cast<void*>(_STD addressof(_Obj))) _Ty(_STD forward<_Types>(_Args)...);

  00024	48 8b 8d 00 01
	00 00		 mov	 rcx, QWORD PTR _Obj$[rbp]
  0002b	e8 00 00 00 00	 call	 ??$addressof@U_Container_proxy@std@@@std@@YAPEAU_Container_proxy@0@AEAU10@@Z ; std::addressof<std::_Container_proxy>
  00030	48 8b d0	 mov	 rdx, rax
  00033	b9 10 00 00 00	 mov	 ecx, 16
  00038	e8 00 00 00 00	 call	 ??2@YAPEAX_KPEAX@Z	; operator new
  0003d	48 89 85 c8 00
	00 00		 mov	 QWORD PTR $T1[rbp], rax
  00044	48 8b 85 08 01
	00 00		 mov	 rax, QWORD PTR <_Args_0>$[rbp]
  0004b	48 8b 10	 mov	 rdx, QWORD PTR [rax]
  0004e	48 8b 8d c8 00
	00 00		 mov	 rcx, QWORD PTR $T1[rbp]
  00055	e8 00 00 00 00	 call	 ??0_Container_proxy@std@@QEAA@PEAU_Container_base12@1@@Z ; std::_Container_proxy::_Container_proxy

; 255  :     }
; 256  : }

  0005a	48 8d a5 e8 00
	00 00		 lea	 rsp, QWORD PTR [rbp+232]
  00061	5f		 pop	 rdi
  00062	5d		 pop	 rbp
  00063	c3		 ret	 0
??$_Construct_in_place@U_Container_proxy@std@@PEAU_Container_base12@2@@std@@YAXAEAU_Container_proxy@0@$$QEAPEAU_Container_base12@0@@Z ENDP ; std::_Construct_in_place<std::_Container_proxy,std::_Container_base12 *>
_TEXT	ENDS
; Function compile flags: /Odtp /RTCsu /ZI
; File C:\Program Files\Microsoft Visual Studio\2022\Community\VC\Tools\MSVC\14.37.32822\include\type_traits
;	COMDAT ??$addressof@U_Container_base12@std@@@std@@YAPEAU_Container_base12@0@AEAU10@@Z
_TEXT	SEGMENT
_Val$ = 224
??$addressof@U_Container_base12@std@@@std@@YAPEAU_Container_base12@0@AEAU10@@Z PROC ; std::addressof<std::_Container_base12>, COMDAT

; 1606 : _NODISCARD constexpr _Ty* addressof(_Ty& _Val) noexcept {

$LN3:
  00000	48 89 4c 24 08	 mov	 QWORD PTR [rsp+8], rcx
  00005	55		 push	 rbp
  00006	57		 push	 rdi
  00007	48 81 ec e8 00
	00 00		 sub	 rsp, 232		; 000000e8H
  0000e	48 8d 6c 24 20	 lea	 rbp, QWORD PTR [rsp+32]
  00013	48 8d 0d 00 00
	00 00		 lea	 rcx, OFFSET FLAT:__7FB6D5C7_type_traits
  0001a	e8 00 00 00 00	 call	 __CheckForDebuggerJustMyCode

; 1607 :     return __builtin_addressof(_Val);

  0001f	48 8b 85 e0 00
	00 00		 mov	 rax, QWORD PTR _Val$[rbp]

; 1608 : }

  00026	48 8d a5 c8 00
	00 00		 lea	 rsp, QWORD PTR [rbp+200]
  0002d	5f		 pop	 rdi
  0002e	5d		 pop	 rbp
  0002f	c3		 ret	 0
??$addressof@U_Container_base12@std@@@std@@YAPEAU_Container_base12@0@AEAU10@@Z ENDP ; std::addressof<std::_Container_base12>
_TEXT	ENDS
; Function compile flags: /Odtp /RTCsu /ZI
; File C:\Program Files\Microsoft Visual Studio\2022\Community\VC\Tools\MSVC\14.37.32822\include\xmemory
;	COMDAT ??0_Basic_container_proxy_ptr12@std@@IEAA@XZ
_TEXT	SEGMENT
this$ = 224
??0_Basic_container_proxy_ptr12@std@@IEAA@XZ PROC	; std::_Basic_container_proxy_ptr12::_Basic_container_proxy_ptr12, COMDAT

; 1449 :     _CONSTEXPR20 _Basic_container_proxy_ptr12()                       = default;

$LN3:
  00000	48 89 4c 24 08	 mov	 QWORD PTR [rsp+8], rcx
  00005	55		 push	 rbp
  00006	57		 push	 rdi
  00007	48 81 ec e8 00
	00 00		 sub	 rsp, 232		; 000000e8H
  0000e	48 8d 6c 24 20	 lea	 rbp, QWORD PTR [rsp+32]
  00013	48 8d 0d 00 00
	00 00		 lea	 rcx, OFFSET FLAT:__A594BF75_xmemory
  0001a	e8 00 00 00 00	 call	 __CheckForDebuggerJustMyCode

; 1442 :     _Container_proxy* _Ptr = nullptr;

  0001f	48 8b 85 e0 00
	00 00		 mov	 rax, QWORD PTR this$[rbp]
  00026	48 c7 00 00 00
	00 00		 mov	 QWORD PTR [rax], 0

; 1449 :     _CONSTEXPR20 _Basic_container_proxy_ptr12()                       = default;

  0002d	48 8b 85 e0 00
	00 00		 mov	 rax, QWORD PTR this$[rbp]
  00034	48 8d a5 c8 00
	00 00		 lea	 rsp, QWORD PTR [rbp+200]
  0003b	5f		 pop	 rdi
  0003c	5d		 pop	 rbp
  0003d	c3		 ret	 0
??0_Basic_container_proxy_ptr12@std@@IEAA@XZ ENDP	; std::_Basic_container_proxy_ptr12::_Basic_container_proxy_ptr12
_TEXT	ENDS
; Function compile flags: /Odtp /RTCsu /ZI
; File C:\Program Files\Microsoft Visual Studio\2022\Community\VC\Tools\MSVC\14.37.32822\include\xmemory
;	COMDAT ?_Release@_Basic_container_proxy_ptr12@std@@QEAAXXZ
_TEXT	SEGMENT
this$ = 224
?_Release@_Basic_container_proxy_ptr12@std@@QEAAXXZ PROC ; std::_Basic_container_proxy_ptr12::_Release, COMDAT

; 1444 :     constexpr void _Release() noexcept { // disengage this _Basic_container_proxy_ptr12

$LN3:
  00000	48 89 4c 24 08	 mov	 QWORD PTR [rsp+8], rcx
  00005	55		 push	 rbp
  00006	57		 push	 rdi
  00007	48 81 ec e8 00
	00 00		 sub	 rsp, 232		; 000000e8H
  0000e	48 8d 6c 24 20	 lea	 rbp, QWORD PTR [rsp+32]
  00013	48 8d 0d 00 00
	00 00		 lea	 rcx, OFFSET FLAT:__A594BF75_xmemory
  0001a	e8 00 00 00 00	 call	 __CheckForDebuggerJustMyCode

; 1445 :         _Ptr = nullptr;

  0001f	48 8b 85 e0 00
	00 00		 mov	 rax, QWORD PTR this$[rbp]
  00026	48 c7 00 00 00
	00 00		 mov	 QWORD PTR [rax], 0

; 1446 :     }

  0002d	48 8d a5 c8 00
	00 00		 lea	 rsp, QWORD PTR [rbp+200]
  00034	5f		 pop	 rdi
  00035	5d		 pop	 rbp
  00036	c3		 ret	 0
?_Release@_Basic_container_proxy_ptr12@std@@QEAAXXZ ENDP ; std::_Basic_container_proxy_ptr12::_Release
_TEXT	ENDS
; Function compile flags: /Odtp /RTCsu /ZI
; File C:\Program Files\Microsoft Visual Studio\2022\Community\VC\Tools\MSVC\14.37.32822\include\utility
;	COMDAT ??$exchange@PEAU_Iterator_base12@std@@$$T@std@@YAPEAU_Iterator_base12@0@AEAPEAU10@$$QEA$$T@Z
_TEXT	SEGMENT
_Old_val$ = 8
_Val$ = 256
_New_val$ = 264
??$exchange@PEAU_Iterator_base12@std@@$$T@std@@YAPEAU_Iterator_base12@0@AEAPEAU10@$$QEA$$T@Z PROC ; std::exchange<std::_Iterator_base12 *,std::nullptr_t>, COMDAT

; 752  :     conjunction_v<is_nothrow_move_constructible<_Ty>, is_nothrow_assignable<_Ty&, _Other>>) {

$LN3:
  00000	48 89 54 24 10	 mov	 QWORD PTR [rsp+16], rdx
  00005	48 89 4c 24 08	 mov	 QWORD PTR [rsp+8], rcx
  0000a	55		 push	 rbp
  0000b	57		 push	 rdi
  0000c	48 81 ec 08 01
	00 00		 sub	 rsp, 264		; 00000108H
  00013	48 8d 6c 24 20	 lea	 rbp, QWORD PTR [rsp+32]
  00018	48 8d 0d 00 00
	00 00		 lea	 rcx, OFFSET FLAT:__CF01DCB6_utility
  0001f	e8 00 00 00 00	 call	 __CheckForDebuggerJustMyCode

; 753  :     // assign _New_val to _Val, return previous _Val
; 754  :     _Ty _Old_val = static_cast<_Ty&&>(_Val);

  00024	48 8b 85 00 01
	00 00		 mov	 rax, QWORD PTR _Val$[rbp]
  0002b	48 8b 00	 mov	 rax, QWORD PTR [rax]
  0002e	48 89 45 08	 mov	 QWORD PTR _Old_val$[rbp], rax

; 755  :     _Val         = static_cast<_Other&&>(_New_val);

  00032	48 8b 85 00 01
	00 00		 mov	 rax, QWORD PTR _Val$[rbp]
  00039	48 8b 8d 08 01
	00 00		 mov	 rcx, QWORD PTR _New_val$[rbp]
  00040	48 8b 09	 mov	 rcx, QWORD PTR [rcx]
  00043	48 89 08	 mov	 QWORD PTR [rax], rcx

; 756  :     return _Old_val;

  00046	48 8b 45 08	 mov	 rax, QWORD PTR _Old_val$[rbp]

; 757  : }

  0004a	48 8d a5 e8 00
	00 00		 lea	 rsp, QWORD PTR [rbp+232]
  00051	5f		 pop	 rdi
  00052	5d		 pop	 rbp
  00053	c3		 ret	 0
??$exchange@PEAU_Iterator_base12@std@@$$T@std@@YAPEAU_Iterator_base12@0@AEAPEAU10@$$QEA$$T@Z ENDP ; std::exchange<std::_Iterator_base12 *,std::nullptr_t>
_TEXT	ENDS
; Function compile flags: /Odtp /RTCsu /ZI
; File C:\Program Files\Microsoft Visual Studio\2022\Community\VC\Tools\MSVC\14.37.32822\include\xmemory
;	COMDAT ?_Swap_proxy_and_iterators_locked@_Container_base12@std@@AEAAXAEAU12@@Z
_TEXT	SEGMENT
_Lock$ = 4
__$ArrayPad$ = 216
this$ = 256
_Right$ = 264
?_Swap_proxy_and_iterators_locked@_Container_base12@std@@AEAAXAEAU12@@Z PROC ; std::_Container_base12::_Swap_proxy_and_iterators_locked, COMDAT

; 1230 :     void _Swap_proxy_and_iterators_locked(_Container_base12& _Right) noexcept {

$LN3:
  00000	48 89 54 24 10	 mov	 QWORD PTR [rsp+16], rdx
  00005	48 89 4c 24 08	 mov	 QWORD PTR [rsp+8], rcx
  0000a	55		 push	 rbp
  0000b	57		 push	 rdi
  0000c	48 81 ec 08 01
	00 00		 sub	 rsp, 264		; 00000108H
  00013	48 8d 6c 24 20	 lea	 rbp, QWORD PTR [rsp+32]
  00018	48 8d 7c 24 20	 lea	 rdi, QWORD PTR [rsp+32]
  0001d	b9 0a 00 00 00	 mov	 ecx, 10
  00022	b8 cc cc cc cc	 mov	 eax, -858993460		; ccccccccH
  00027	f3 ab		 rep stosd
  00029	48 8b 8c 24 28
	01 00 00	 mov	 rcx, QWORD PTR [rsp+296]
  00031	48 8b 05 00 00
	00 00		 mov	 rax, QWORD PTR __security_cookie
  00038	48 33 c5	 xor	 rax, rbp
  0003b	48 89 85 d8 00
	00 00		 mov	 QWORD PTR __$ArrayPad$[rbp], rax
  00042	48 8d 0d 00 00
	00 00		 lea	 rcx, OFFSET FLAT:__A594BF75_xmemory
  00049	e8 00 00 00 00	 call	 __CheckForDebuggerJustMyCode

; 1231 :         _Lockit _Lock(_LOCK_DEBUG);

  0004e	ba 03 00 00 00	 mov	 edx, 3
  00053	48 8d 4d 04	 lea	 rcx, QWORD PTR _Lock$[rbp]
  00057	ff 15 00 00 00
	00		 call	 QWORD PTR __imp_??0_Lockit@std@@QEAA@H@Z

; 1232 :         _Swap_proxy_and_iterators_unlocked(_Right);

  0005d	48 8b 95 08 01
	00 00		 mov	 rdx, QWORD PTR _Right$[rbp]
  00064	48 8b 8d 00 01
	00 00		 mov	 rcx, QWORD PTR this$[rbp]
  0006b	e8 00 00 00 00	 call	 ?_Swap_proxy_and_iterators_unlocked@_Container_base12@std@@AEAAXAEAU12@@Z ; std::_Container_base12::_Swap_proxy_and_iterators_unlocked

; 1233 :     }

  00070	48 8d 4d 04	 lea	 rcx, QWORD PTR _Lock$[rbp]
  00074	ff 15 00 00 00
	00		 call	 QWORD PTR __imp_??1_Lockit@std@@QEAA@XZ
  0007a	48 8d 4d e0	 lea	 rcx, QWORD PTR [rbp-32]
  0007e	48 8d 15 00 00
	00 00		 lea	 rdx, OFFSET FLAT:?_Swap_proxy_and_iterators_locked@_Container_base12@std@@AEAAXAEAU12@@Z$rtcFrameData
  00085	e8 00 00 00 00	 call	 _RTC_CheckStackVars
  0008a	48 8b 8d d8 00
	00 00		 mov	 rcx, QWORD PTR __$ArrayPad$[rbp]
  00091	48 33 cd	 xor	 rcx, rbp
  00094	e8 00 00 00 00	 call	 __security_check_cookie
  00099	48 8d a5 e8 00
	00 00		 lea	 rsp, QWORD PTR [rbp+232]
  000a0	5f		 pop	 rdi
  000a1	5d		 pop	 rbp
  000a2	c3		 ret	 0
?_Swap_proxy_and_iterators_locked@_Container_base12@std@@AEAAXAEAU12@@Z ENDP ; std::_Container_base12::_Swap_proxy_and_iterators_locked
_TEXT	ENDS
; Function compile flags: /Odtp /RTCsu /ZI
; File C:\Program Files\Microsoft Visual Studio\2022\Community\VC\Tools\MSVC\14.37.32822\include\xmemory
;	COMDAT ?_Orphan_all_locked_v3@_Container_base12@std@@AEAAXXZ
_TEXT	SEGMENT
_Lock$ = 4
__$ArrayPad$ = 216
this$ = 256
?_Orphan_all_locked_v3@_Container_base12@std@@AEAAXXZ PROC ; std::_Container_base12::_Orphan_all_locked_v3, COMDAT

; 1225 :     void _Orphan_all_locked_v3() noexcept {

$LN3:
  00000	48 89 4c 24 08	 mov	 QWORD PTR [rsp+8], rcx
  00005	55		 push	 rbp
  00006	57		 push	 rdi
  00007	48 81 ec 08 01
	00 00		 sub	 rsp, 264		; 00000108H
  0000e	48 8d 6c 24 20	 lea	 rbp, QWORD PTR [rsp+32]
  00013	48 8d 7c 24 20	 lea	 rdi, QWORD PTR [rsp+32]
  00018	b9 0a 00 00 00	 mov	 ecx, 10
  0001d	b8 cc cc cc cc	 mov	 eax, -858993460		; ccccccccH
  00022	f3 ab		 rep stosd
  00024	48 8b 8c 24 28
	01 00 00	 mov	 rcx, QWORD PTR [rsp+296]
  0002c	48 8b 05 00 00
	00 00		 mov	 rax, QWORD PTR __security_cookie
  00033	48 33 c5	 xor	 rax, rbp
  00036	48 89 85 d8 00
	00 00		 mov	 QWORD PTR __$ArrayPad$[rbp], rax
  0003d	48 8d 0d 00 00
	00 00		 lea	 rcx, OFFSET FLAT:__A594BF75_xmemory
  00044	e8 00 00 00 00	 call	 __CheckForDebuggerJustMyCode

; 1226 :         _Lockit _Lock(_LOCK_DEBUG);

  00049	ba 03 00 00 00	 mov	 edx, 3
  0004e	48 8d 4d 04	 lea	 rcx, QWORD PTR _Lock$[rbp]
  00052	ff 15 00 00 00
	00		 call	 QWORD PTR __imp_??0_Lockit@std@@QEAA@H@Z

; 1227 :         _Orphan_all_unlocked_v3();

  00058	48 8b 8d 00 01
	00 00		 mov	 rcx, QWORD PTR this$[rbp]
  0005f	e8 00 00 00 00	 call	 ?_Orphan_all_unlocked_v3@_Container_base12@std@@AEAAXXZ ; std::_Container_base12::_Orphan_all_unlocked_v3

; 1228 :     }

  00064	48 8d 4d 04	 lea	 rcx, QWORD PTR _Lock$[rbp]
  00068	ff 15 00 00 00
	00		 call	 QWORD PTR __imp_??1_Lockit@std@@QEAA@XZ
  0006e	48 8d 4d e0	 lea	 rcx, QWORD PTR [rbp-32]
  00072	48 8d 15 00 00
	00 00		 lea	 rdx, OFFSET FLAT:?_Orphan_all_locked_v3@_Container_base12@std@@AEAAXXZ$rtcFrameData
  00079	e8 00 00 00 00	 call	 _RTC_CheckStackVars
  0007e	48 8b 8d d8 00
	00 00		 mov	 rcx, QWORD PTR __$ArrayPad$[rbp]
  00085	48 33 cd	 xor	 rcx, rbp
  00088	e8 00 00 00 00	 call	 __security_check_cookie
  0008d	48 8d a5 e8 00
	00 00		 lea	 rsp, QWORD PTR [rbp+232]
  00094	5f		 pop	 rdi
  00095	5d		 pop	 rbp
  00096	c3		 ret	 0
?_Orphan_all_locked_v3@_Container_base12@std@@AEAAXXZ ENDP ; std::_Container_base12::_Orphan_all_locked_v3
_TEXT	ENDS
; Function compile flags: /Odtp /RTCsu /ZI
; File C:\Program Files\Microsoft Visual Studio\2022\Community\VC\Tools\MSVC\14.37.32822\include\xmemory
;	COMDAT ?_Swap_proxy_and_iterators_unlocked@_Container_base12@std@@AEAAXAEAU12@@Z
_TEXT	SEGMENT
_Temp$ = 8
this$ = 256
_Right$ = 264
?_Swap_proxy_and_iterators_unlocked@_Container_base12@std@@AEAAXAEAU12@@Z PROC ; std::_Container_base12::_Swap_proxy_and_iterators_unlocked, COMDAT

; 1389 : _CONSTEXPR20 void _Container_base12::_Swap_proxy_and_iterators_unlocked(_Container_base12& _Right) noexcept {

$LN5:
  00000	48 89 54 24 10	 mov	 QWORD PTR [rsp+16], rdx
  00005	48 89 4c 24 08	 mov	 QWORD PTR [rsp+8], rcx
  0000a	55		 push	 rbp
  0000b	57		 push	 rdi
  0000c	48 81 ec 08 01
	00 00		 sub	 rsp, 264		; 00000108H
  00013	48 8d 6c 24 20	 lea	 rbp, QWORD PTR [rsp+32]
  00018	48 8d 0d 00 00
	00 00		 lea	 rcx, OFFSET FLAT:__A594BF75_xmemory
  0001f	e8 00 00 00 00	 call	 __CheckForDebuggerJustMyCode

; 1390 :     _Container_proxy* _Temp = _Myproxy;

  00024	48 8b 85 00 01
	00 00		 mov	 rax, QWORD PTR this$[rbp]
  0002b	48 8b 00	 mov	 rax, QWORD PTR [rax]
  0002e	48 89 45 08	 mov	 QWORD PTR _Temp$[rbp], rax

; 1391 :     _Myproxy                = _Right._Myproxy;

  00032	48 8b 85 00 01
	00 00		 mov	 rax, QWORD PTR this$[rbp]
  00039	48 8b 8d 08 01
	00 00		 mov	 rcx, QWORD PTR _Right$[rbp]
  00040	48 8b 09	 mov	 rcx, QWORD PTR [rcx]
  00043	48 89 08	 mov	 QWORD PTR [rax], rcx

; 1392 :     _Right._Myproxy         = _Temp;

  00046	48 8b 85 08 01
	00 00		 mov	 rax, QWORD PTR _Right$[rbp]
  0004d	48 8b 4d 08	 mov	 rcx, QWORD PTR _Temp$[rbp]
  00051	48 89 08	 mov	 QWORD PTR [rax], rcx

; 1393 : 
; 1394 :     if (_Myproxy) {

  00054	48 8b 85 00 01
	00 00		 mov	 rax, QWORD PTR this$[rbp]
  0005b	48 83 38 00	 cmp	 QWORD PTR [rax], 0
  0005f	74 14		 je	 SHORT $LN2@Swap_proxy

; 1395 :         _Myproxy->_Mycont = this;

  00061	48 8b 85 00 01
	00 00		 mov	 rax, QWORD PTR this$[rbp]
  00068	48 8b 00	 mov	 rax, QWORD PTR [rax]
  0006b	48 8b 8d 00 01
	00 00		 mov	 rcx, QWORD PTR this$[rbp]
  00072	48 89 08	 mov	 QWORD PTR [rax], rcx
$LN2@Swap_proxy:

; 1396 :     }
; 1397 : 
; 1398 :     if (_Right._Myproxy) {

  00075	48 8b 85 08 01
	00 00		 mov	 rax, QWORD PTR _Right$[rbp]
  0007c	48 83 38 00	 cmp	 QWORD PTR [rax], 0
  00080	74 14		 je	 SHORT $LN3@Swap_proxy

; 1399 :         _Right._Myproxy->_Mycont = &_Right;

  00082	48 8b 85 08 01
	00 00		 mov	 rax, QWORD PTR _Right$[rbp]
  00089	48 8b 00	 mov	 rax, QWORD PTR [rax]
  0008c	48 8b 8d 08 01
	00 00		 mov	 rcx, QWORD PTR _Right$[rbp]
  00093	48 89 08	 mov	 QWORD PTR [rax], rcx
$LN3@Swap_proxy:

; 1400 :     }
; 1401 : }

  00096	48 8d a5 e8 00
	00 00		 lea	 rsp, QWORD PTR [rbp+232]
  0009d	5f		 pop	 rdi
  0009e	5d		 pop	 rbp
  0009f	c3		 ret	 0
?_Swap_proxy_and_iterators_unlocked@_Container_base12@std@@AEAAXAEAU12@@Z ENDP ; std::_Container_base12::_Swap_proxy_and_iterators_unlocked
_TEXT	ENDS
; Function compile flags: /Odtp /RTCsu /ZI
; File C:\Program Files\Microsoft Visual Studio\2022\Community\VC\Tools\MSVC\14.37.32822\include\xmemory
;	COMDAT ?_Orphan_all_unlocked_v3@_Container_base12@std@@AEAAXXZ
_TEXT	SEGMENT
_Pnext$1 = 8
$T2 = 228
this$ = 288
?_Orphan_all_unlocked_v3@_Container_base12@std@@AEAAXXZ PROC ; std::_Container_base12::_Orphan_all_unlocked_v3, COMDAT

; 1365 : _CONSTEXPR20 void _Container_base12::_Orphan_all_unlocked_v3() noexcept {

$LN7:
  00000	48 89 4c 24 08	 mov	 QWORD PTR [rsp+8], rcx
  00005	55		 push	 rbp
  00006	57		 push	 rdi
  00007	48 81 ec 28 01
	00 00		 sub	 rsp, 296		; 00000128H
  0000e	48 8d 6c 24 20	 lea	 rbp, QWORD PTR [rsp+32]
  00013	48 8d 0d 00 00
	00 00		 lea	 rcx, OFFSET FLAT:__A594BF75_xmemory
  0001a	e8 00 00 00 00	 call	 __CheckForDebuggerJustMyCode

; 1366 :     if (!_Myproxy) { // no proxy, already done

  0001f	48 8b 85 20 01
	00 00		 mov	 rax, QWORD PTR this$[rbp]
  00026	48 83 38 00	 cmp	 QWORD PTR [rax], 0
  0002a	75 02		 jne	 SHORT $LN5@Orphan_all

; 1367 :         return;

  0002c	eb 4e		 jmp	 SHORT $LN1@Orphan_all
$LN5@Orphan_all:

; 1368 :     }
; 1369 : 
; 1370 :     // proxy allocated, drain it
; 1371 :     for (auto _Pnext = _STD exchange(_Myproxy->_Myfirstiter, nullptr); _Pnext; _Pnext = _Pnext->_Mynextiter) {

  0002e	48 c7 85 e4 00
	00 00 00 00 00
	00		 mov	 QWORD PTR $T2[rbp], 0
  00039	48 8b 85 20 01
	00 00		 mov	 rax, QWORD PTR this$[rbp]
  00040	48 8b 00	 mov	 rax, QWORD PTR [rax]
  00043	48 83 c0 08	 add	 rax, 8
  00047	48 8d 95 e4 00
	00 00		 lea	 rdx, QWORD PTR $T2[rbp]
  0004e	48 8b c8	 mov	 rcx, rax
  00051	e8 00 00 00 00	 call	 ??$exchange@PEAU_Iterator_base12@std@@$$T@std@@YAPEAU_Iterator_base12@0@AEAPEAU10@$$QEA$$T@Z ; std::exchange<std::_Iterator_base12 *,std::nullptr_t>
  00056	48 89 45 08	 mov	 QWORD PTR _Pnext$1[rbp], rax
  0005a	eb 0c		 jmp	 SHORT $LN4@Orphan_all
$LN2@Orphan_all:
  0005c	48 8b 45 08	 mov	 rax, QWORD PTR _Pnext$1[rbp]
  00060	48 8b 40 08	 mov	 rax, QWORD PTR [rax+8]
  00064	48 89 45 08	 mov	 QWORD PTR _Pnext$1[rbp], rax
$LN4@Orphan_all:
  00068	48 83 7d 08 00	 cmp	 QWORD PTR _Pnext$1[rbp], 0
  0006d	74 0d		 je	 SHORT $LN1@Orphan_all

; 1372 :         _Pnext->_Myproxy = nullptr;

  0006f	48 8b 45 08	 mov	 rax, QWORD PTR _Pnext$1[rbp]
  00073	48 c7 00 00 00
	00 00		 mov	 QWORD PTR [rax], 0

; 1373 :     }

  0007a	eb e0		 jmp	 SHORT $LN2@Orphan_all
$LN1@Orphan_all:

; 1374 : }

  0007c	48 8d a5 08 01
	00 00		 lea	 rsp, QWORD PTR [rbp+264]
  00083	5f		 pop	 rdi
  00084	5d		 pop	 rbp
  00085	c3		 ret	 0
?_Orphan_all_unlocked_v3@_Container_base12@std@@AEAAXXZ ENDP ; std::_Container_base12::_Orphan_all_unlocked_v3
_TEXT	ENDS
; Function compile flags: /Odtp /RTCsu /ZI
; File C:\Program Files\Microsoft Visual Studio\2022\Community\VC\Tools\MSVC\14.37.32822\include\xmemory
;	COMDAT ?_Swap_proxy_and_iterators@_Container_base12@std@@QEAAXAEAU12@@Z
_TEXT	SEGMENT
this$ = 224
_Right$ = 232
?_Swap_proxy_and_iterators@_Container_base12@std@@QEAAXAEAU12@@Z PROC ; std::_Container_base12::_Swap_proxy_and_iterators, COMDAT

; 1403 : _CONSTEXPR20 void _Container_base12::_Swap_proxy_and_iterators(_Container_base12& _Right) noexcept {

$LN3:
  00000	48 89 54 24 10	 mov	 QWORD PTR [rsp+16], rdx
  00005	48 89 4c 24 08	 mov	 QWORD PTR [rsp+8], rcx
  0000a	55		 push	 rbp
  0000b	57		 push	 rdi
  0000c	48 81 ec e8 00
	00 00		 sub	 rsp, 232		; 000000e8H
  00013	48 8d 6c 24 20	 lea	 rbp, QWORD PTR [rsp+32]
  00018	48 8d 0d 00 00
	00 00		 lea	 rcx, OFFSET FLAT:__A594BF75_xmemory
  0001f	e8 00 00 00 00	 call	 __CheckForDebuggerJustMyCode

; 1404 : #if _ITERATOR_DEBUG_LEVEL == 2
; 1405 : #if _HAS_CXX20
; 1406 :     if (_STD is_constant_evaluated()) {
; 1407 :         _Swap_proxy_and_iterators_unlocked(_Right);
; 1408 :     } else
; 1409 : #endif // _HAS_CXX20
; 1410 :     {
; 1411 :         _Swap_proxy_and_iterators_locked(_Right);

  00024	48 8b 95 e8 00
	00 00		 mov	 rdx, QWORD PTR _Right$[rbp]
  0002b	48 8b 8d e0 00
	00 00		 mov	 rcx, QWORD PTR this$[rbp]
  00032	e8 00 00 00 00	 call	 ?_Swap_proxy_and_iterators_locked@_Container_base12@std@@AEAAXAEAU12@@Z ; std::_Container_base12::_Swap_proxy_and_iterators_locked

; 1412 :     }
; 1413 : #else // ^^^ _ITERATOR_DEBUG_LEVEL == 2 / _ITERATOR_DEBUG_LEVEL != 2 vvv
; 1414 :     _Swap_proxy_and_iterators_unlocked(_Right);
; 1415 : #endif // _ITERATOR_DEBUG_LEVEL != 2
; 1416 : }

  00037	48 8d a5 c8 00
	00 00		 lea	 rsp, QWORD PTR [rbp+200]
  0003e	5f		 pop	 rdi
  0003f	5d		 pop	 rbp
  00040	c3		 ret	 0
?_Swap_proxy_and_iterators@_Container_base12@std@@QEAAXAEAU12@@Z ENDP ; std::_Container_base12::_Swap_proxy_and_iterators
_TEXT	ENDS
; Function compile flags: /Odtp /RTCsu /ZI
; File C:\Program Files\Microsoft Visual Studio\2022\Community\VC\Tools\MSVC\14.37.32822\include\xmemory
;	COMDAT ?_Orphan_all@_Container_base12@std@@QEAAXXZ
_TEXT	SEGMENT
this$ = 224
?_Orphan_all@_Container_base12@std@@QEAAXXZ PROC	; std::_Container_base12::_Orphan_all, COMDAT

; 1376 : _CONSTEXPR20 void _Container_base12::_Orphan_all() noexcept {

$LN3:
  00000	48 89 4c 24 08	 mov	 QWORD PTR [rsp+8], rcx
  00005	55		 push	 rbp
  00006	57		 push	 rdi
  00007	48 81 ec e8 00
	00 00		 sub	 rsp, 232		; 000000e8H
  0000e	48 8d 6c 24 20	 lea	 rbp, QWORD PTR [rsp+32]
  00013	48 8d 0d 00 00
	00 00		 lea	 rcx, OFFSET FLAT:__A594BF75_xmemory
  0001a	e8 00 00 00 00	 call	 __CheckForDebuggerJustMyCode

; 1377 : #if _ITERATOR_DEBUG_LEVEL == 2
; 1378 : #if _HAS_CXX20
; 1379 :     if (_STD is_constant_evaluated()) {
; 1380 :         _Orphan_all_unlocked_v3();
; 1381 :     } else
; 1382 : #endif // _HAS_CXX20
; 1383 :     {
; 1384 :         _Orphan_all_locked_v3();

  0001f	48 8b 8d e0 00
	00 00		 mov	 rcx, QWORD PTR this$[rbp]
  00026	e8 00 00 00 00	 call	 ?_Orphan_all_locked_v3@_Container_base12@std@@AEAAXXZ ; std::_Container_base12::_Orphan_all_locked_v3

; 1385 :     }
; 1386 : #endif // _ITERATOR_DEBUG_LEVEL == 2
; 1387 : }

  0002b	48 8d a5 c8 00
	00 00		 lea	 rsp, QWORD PTR [rbp+200]
  00032	5f		 pop	 rdi
  00033	5d		 pop	 rbp
  00034	c3		 ret	 0
?_Orphan_all@_Container_base12@std@@QEAAXXZ ENDP	; std::_Container_base12::_Orphan_all
_TEXT	ENDS
; Function compile flags: /Odtp /RTCsu /ZI
; File C:\Program Files\Microsoft Visual Studio\2022\Community\VC\Tools\MSVC\14.37.32822\include\xmemory
;	COMDAT ??0_Container_base12@std@@QEAA@XZ
_TEXT	SEGMENT
this$ = 224
??0_Container_base12@std@@QEAA@XZ PROC			; std::_Container_base12::_Container_base12, COMDAT

; 1194 :     _CONSTEXPR20 _Container_base12() noexcept = default;

$LN3:
  00000	48 89 4c 24 08	 mov	 QWORD PTR [rsp+8], rcx
  00005	55		 push	 rbp
  00006	57		 push	 rdi
  00007	48 81 ec e8 00
	00 00		 sub	 rsp, 232		; 000000e8H
  0000e	48 8d 6c 24 20	 lea	 rbp, QWORD PTR [rsp+32]
  00013	48 8d 0d 00 00
	00 00		 lea	 rcx, OFFSET FLAT:__A594BF75_xmemory
  0001a	e8 00 00 00 00	 call	 __CheckForDebuggerJustMyCode

; 1195 : 
; 1196 :     _Container_base12(const _Container_base12&)            = delete;
; 1197 :     _Container_base12& operator=(const _Container_base12&) = delete;
; 1198 : 
; 1199 :     _CONSTEXPR20 void _Orphan_all() noexcept;
; 1200 :     _CONSTEXPR20 void _Swap_proxy_and_iterators(_Container_base12&) noexcept;
; 1201 : 
; 1202 :     template <class _Alloc>
; 1203 :     _CONSTEXPR20 void _Alloc_proxy(_Alloc&& _Al) {
; 1204 :         _Container_proxy* const _New_proxy = _Unfancy(_Al.allocate(1));
; 1205 :         _Construct_in_place(*_New_proxy, this);
; 1206 :         _Myproxy            = _New_proxy;
; 1207 :         _New_proxy->_Mycont = this;
; 1208 :     }
; 1209 : 
; 1210 :     template <class _Alloc>
; 1211 :     _CONSTEXPR20 void _Reload_proxy(_Alloc&& _Old_alloc, _Alloc&& _New_alloc) {
; 1212 :         // pre: no iterators refer to the existing proxy
; 1213 :         _Container_proxy* const _New_proxy = _Unfancy(_New_alloc.allocate(1));
; 1214 :         _Construct_in_place(*_New_proxy, this);
; 1215 :         _New_proxy->_Mycont = this;
; 1216 :         _Delete_plain_internal(_Old_alloc, _STD exchange(_Myproxy, _New_proxy));
; 1217 :     }
; 1218 : 
; 1219 :     _Container_proxy* _Myproxy = nullptr;

  0001f	48 8b 85 e0 00
	00 00		 mov	 rax, QWORD PTR this$[rbp]
  00026	48 c7 00 00 00
	00 00		 mov	 QWORD PTR [rax], 0

; 1194 :     _CONSTEXPR20 _Container_base12() noexcept = default;

  0002d	48 8b 85 e0 00
	00 00		 mov	 rax, QWORD PTR this$[rbp]
  00034	48 8d a5 c8 00
	00 00		 lea	 rsp, QWORD PTR [rbp+200]
  0003b	5f		 pop	 rdi
  0003c	5d		 pop	 rbp
  0003d	c3		 ret	 0
??0_Container_base12@std@@QEAA@XZ ENDP			; std::_Container_base12::_Container_base12
_TEXT	ENDS
; Function compile flags: /Odtp /RTCsu /ZI
; File C:\Program Files\Microsoft Visual Studio\2022\Community\VC\Tools\MSVC\14.37.32822\include\xmemory
;	COMDAT ??0_Container_proxy@std@@QEAA@PEAU_Container_base12@1@@Z
_TEXT	SEGMENT
this$ = 224
_Mycont_$ = 232
??0_Container_proxy@std@@QEAA@PEAU_Container_base12@1@@Z PROC ; std::_Container_proxy::_Container_proxy, COMDAT

; 1186 :     _CONSTEXPR20 _Container_proxy(_Container_base12* _Mycont_) noexcept : _Mycont(_Mycont_) {}

$LN3:
  00000	48 89 54 24 10	 mov	 QWORD PTR [rsp+16], rdx
  00005	48 89 4c 24 08	 mov	 QWORD PTR [rsp+8], rcx
  0000a	55		 push	 rbp
  0000b	57		 push	 rdi
  0000c	48 81 ec e8 00
	00 00		 sub	 rsp, 232		; 000000e8H
  00013	48 8d 6c 24 20	 lea	 rbp, QWORD PTR [rsp+32]
  00018	48 8d 0d 00 00
	00 00		 lea	 rcx, OFFSET FLAT:__A594BF75_xmemory
  0001f	e8 00 00 00 00	 call	 __CheckForDebuggerJustMyCode
  00024	48 8b 85 e0 00
	00 00		 mov	 rax, QWORD PTR this$[rbp]
  0002b	48 8b 8d e8 00
	00 00		 mov	 rcx, QWORD PTR _Mycont_$[rbp]
  00032	48 89 08	 mov	 QWORD PTR [rax], rcx

; 1187 : 
; 1188 :     const _Container_base12* _Mycont       = nullptr;
; 1189 :     mutable _Iterator_base12* _Myfirstiter = nullptr;

  00035	48 8b 85 e0 00
	00 00		 mov	 rax, QWORD PTR this$[rbp]
  0003c	48 c7 40 08 00
	00 00 00	 mov	 QWORD PTR [rax+8], 0

; 1186 :     _CONSTEXPR20 _Container_proxy(_Container_base12* _Mycont_) noexcept : _Mycont(_Mycont_) {}

  00044	48 8b 85 e0 00
	00 00		 mov	 rax, QWORD PTR this$[rbp]
  0004b	48 8d a5 c8 00
	00 00		 lea	 rsp, QWORD PTR [rbp+200]
  00052	5f		 pop	 rdi
  00053	5d		 pop	 rbp
  00054	c3		 ret	 0
??0_Container_proxy@std@@QEAA@PEAU_Container_base12@1@@Z ENDP ; std::_Container_proxy::_Container_proxy
_TEXT	ENDS
; Function compile flags: /Odtp /RTCsu /ZI
; File C:\Program Files\Microsoft Visual Studio\2022\Community\VC\Tools\MSVC\14.37.32822\include\xmemory
;	COMDAT ?_Adjust_manually_vector_aligned@std@@YAXAEAPEAXAEA_K@Z
_TEXT	SEGMENT
_Ptr_user$ = 8
_Ptr_container$ = 40
_Min_back_shift$ = 72
_Back_shift$ = 104
_Ptr$ = 352
_Bytes$ = 360
?_Adjust_manually_vector_aligned@std@@YAXAEAPEAXAEA_K@Z PROC ; std::_Adjust_manually_vector_aligned, COMDAT

; 155  : inline void _Adjust_manually_vector_aligned(void*& _Ptr, size_t& _Bytes) {

$LN21:
  00000	48 89 54 24 10	 mov	 QWORD PTR [rsp+16], rdx
  00005	48 89 4c 24 08	 mov	 QWORD PTR [rsp+8], rcx
  0000a	55		 push	 rbp
  0000b	57		 push	 rdi
  0000c	48 81 ec 78 01
	00 00		 sub	 rsp, 376		; 00000178H
  00013	48 8d 6c 24 30	 lea	 rbp, QWORD PTR [rsp+48]
  00018	48 8d 0d 00 00
	00 00		 lea	 rcx, OFFSET FLAT:__A594BF75_xmemory
  0001f	e8 00 00 00 00	 call	 __CheckForDebuggerJustMyCode

; 156  :     // adjust parameters from _Allocate_manually_vector_aligned to pass to operator delete
; 157  :     _Bytes += _Non_user_size;

  00024	48 8b 85 68 01
	00 00		 mov	 rax, QWORD PTR _Bytes$[rbp]
  0002b	48 8b 00	 mov	 rax, QWORD PTR [rax]
  0002e	48 83 c0 2f	 add	 rax, 47			; 0000002fH
  00032	48 8b 8d 68 01
	00 00		 mov	 rcx, QWORD PTR _Bytes$[rbp]
  00039	48 89 01	 mov	 QWORD PTR [rcx], rax

; 158  : 
; 159  :     const uintptr_t* const _Ptr_user = static_cast<uintptr_t*>(_Ptr);

  0003c	48 8b 85 60 01
	00 00		 mov	 rax, QWORD PTR _Ptr$[rbp]
  00043	48 8b 00	 mov	 rax, QWORD PTR [rax]
  00046	48 89 45 08	 mov	 QWORD PTR _Ptr_user$[rbp], rax

; 160  :     const uintptr_t _Ptr_container   = _Ptr_user[-1];

  0004a	b8 08 00 00 00	 mov	 eax, 8
  0004f	48 6b c0 ff	 imul	 rax, rax, -1
  00053	48 8b 4d 08	 mov	 rcx, QWORD PTR _Ptr_user$[rbp]
  00057	48 8b 04 01	 mov	 rax, QWORD PTR [rcx+rax]
  0005b	48 89 45 28	 mov	 QWORD PTR _Ptr_container$[rbp], rax
$LN4@Adjust_man:

; 161  : 
; 162  :     // If the following asserts, it likely means that we are performing
; 163  :     // an aligned delete on memory coming from an unaligned allocation.
; 164  :     _STL_ASSERT(_Ptr_user[-2] == _Big_allocation_sentinel, "invalid argument");

  0005f	b8 08 00 00 00	 mov	 eax, 8
  00064	48 6b c0 fe	 imul	 rax, rax, -2
  00068	48 8b 4d 08	 mov	 rcx, QWORD PTR _Ptr_user$[rbp]
  0006c	48 ba fa fa fa
	fa fa fa fa fa	 mov	 rdx, -361700864190383366 ; fafafafafafafafaH
  00076	48 39 14 01	 cmp	 QWORD PTR [rcx+rax], rdx
  0007a	75 02		 jne	 SHORT $LN14@Adjust_man
  0007c	eb 77		 jmp	 SHORT $LN15@Adjust_man
$LN14@Adjust_man:
$LN7@Adjust_man:
  0007e	8b 05 00 00 00
	00		 mov	 eax, DWORD PTR ?__LINE__Var@?0??_Adjust_manually_vector_aligned@std@@YAXAEAPEAXAEA_K@Z@4JA
  00084	83 c0 09	 add	 eax, 9
  00087	48 8d 0d 00 00
	00 00		 lea	 rcx, OFFSET FLAT:??_C@_0BB@FCMFBGOM@invalid?5argument@
  0008e	48 89 4c 24 28	 mov	 QWORD PTR [rsp+40], rcx
  00093	48 8d 0d 00 00
	00 00		 lea	 rcx, OFFSET FLAT:??_C@_02DKCKIIND@?$CFs@
  0009a	48 89 4c 24 20	 mov	 QWORD PTR [rsp+32], rcx
  0009f	45 33 c9	 xor	 r9d, r9d
  000a2	44 8b c0	 mov	 r8d, eax
  000a5	48 8d 15 00 00
	00 00		 lea	 rdx, OFFSET FLAT:??_C@_0GC@JDLAECEI@C?3?2Program?5Files?2Microsoft?5Visu@
  000ac	b9 02 00 00 00	 mov	 ecx, 2
  000b1	ff 15 00 00 00
	00		 call	 QWORD PTR __imp__CrtDbgReport
  000b7	83 f8 01	 cmp	 eax, 1
  000ba	75 03		 jne	 SHORT $LN19@Adjust_man
  000bc	cc		 int	 3
  000bd	33 c0		 xor	 eax, eax
$LN19@Adjust_man:
  000bf	8b 05 00 00 00
	00		 mov	 eax, DWORD PTR ?__LINE__Var@?0??_Adjust_manually_vector_aligned@std@@YAXAEAPEAXAEA_K@Z@4JA
  000c5	83 c0 09	 add	 eax, 9
  000c8	48 c7 44 24 20
	00 00 00 00	 mov	 QWORD PTR [rsp+32], 0
  000d1	44 8b c8	 mov	 r9d, eax
  000d4	4c 8d 05 00 00
	00 00		 lea	 r8, OFFSET FLAT:??_C@_1ME@PPIEIJND@?$AAC?$AA?3?$AA?2?$AAP?$AAr?$AAo?$AAg?$AAr?$AAa?$AAm?$AA?5?$AAF?$AAi?$AAl?$AAe@
  000db	48 8d 15 00 00
	00 00		 lea	 rdx, OFFSET FLAT:??_C@_11LOCGONAA@@
  000e2	48 8d 0d 00 00
	00 00		 lea	 rcx, OFFSET FLAT:??_C@_1CG@JNLFBNGN@?$AA?$CC?$AAi?$AAn?$AAv?$AAa?$AAl?$AAi?$AAd?$AA?5?$AAa?$AAr?$AAg?$AAu?$AAm?$AAe@
  000e9	ff 15 00 00 00
	00		 call	 QWORD PTR __imp__invalid_parameter
  000ef	33 c0		 xor	 eax, eax
  000f1	85 c0		 test	 eax, eax
  000f3	75 89		 jne	 SHORT $LN7@Adjust_man
$LN15@Adjust_man:
  000f5	33 c0		 xor	 eax, eax
  000f7	85 c0		 test	 eax, eax
  000f9	0f 85 60 ff ff
	ff		 jne	 $LN4@Adjust_man

; 165  : 
; 166  :     // Extra paranoia on aligned allocation/deallocation; ensure _Ptr_container is
; 167  :     // in range [_Min_back_shift, _Non_user_size]
; 168  : #ifdef _DEBUG
; 169  :     constexpr uintptr_t _Min_back_shift = 2 * sizeof(void*);

  000ff	48 c7 45 48 10
	00 00 00	 mov	 QWORD PTR _Min_back_shift$[rbp], 16

; 170  : #else // ^^^ _DEBUG / !_DEBUG vvv
; 171  :     constexpr uintptr_t _Min_back_shift = sizeof(void*);
; 172  : #endif // _DEBUG
; 173  :     const uintptr_t _Back_shift = reinterpret_cast<uintptr_t>(_Ptr) - _Ptr_container;

  00107	48 8b 85 60 01
	00 00		 mov	 rax, QWORD PTR _Ptr$[rbp]
  0010e	48 8b 4d 28	 mov	 rcx, QWORD PTR _Ptr_container$[rbp]
  00112	48 8b 00	 mov	 rax, QWORD PTR [rax]
  00115	48 2b c1	 sub	 rax, rcx
  00118	48 89 45 68	 mov	 QWORD PTR _Back_shift$[rbp], rax
$LN10@Adjust_man:

; 174  :     _STL_VERIFY(_Back_shift >= _Min_back_shift && _Back_shift <= _Non_user_size, "invalid argument");

  0011c	48 83 7d 68 10	 cmp	 QWORD PTR _Back_shift$[rbp], 16
  00121	72 09		 jb	 SHORT $LN16@Adjust_man
  00123	48 83 7d 68 2f	 cmp	 QWORD PTR _Back_shift$[rbp], 47 ; 0000002fH
  00128	77 02		 ja	 SHORT $LN16@Adjust_man
  0012a	eb 77		 jmp	 SHORT $LN17@Adjust_man
$LN16@Adjust_man:
$LN13@Adjust_man:
  0012c	8b 05 00 00 00
	00		 mov	 eax, DWORD PTR ?__LINE__Var@?0??_Adjust_manually_vector_aligned@std@@YAXAEAPEAXAEA_K@Z@4JA
  00132	83 c0 13	 add	 eax, 19
  00135	48 8d 0d 00 00
	00 00		 lea	 rcx, OFFSET FLAT:??_C@_0BB@FCMFBGOM@invalid?5argument@
  0013c	48 89 4c 24 28	 mov	 QWORD PTR [rsp+40], rcx
  00141	48 8d 0d 00 00
	00 00		 lea	 rcx, OFFSET FLAT:??_C@_02DKCKIIND@?$CFs@
  00148	48 89 4c 24 20	 mov	 QWORD PTR [rsp+32], rcx
  0014d	45 33 c9	 xor	 r9d, r9d
  00150	44 8b c0	 mov	 r8d, eax
  00153	48 8d 15 00 00
	00 00		 lea	 rdx, OFFSET FLAT:??_C@_0GC@JDLAECEI@C?3?2Program?5Files?2Microsoft?5Visu@
  0015a	b9 02 00 00 00	 mov	 ecx, 2
  0015f	ff 15 00 00 00
	00		 call	 QWORD PTR __imp__CrtDbgReport
  00165	83 f8 01	 cmp	 eax, 1
  00168	75 03		 jne	 SHORT $LN20@Adjust_man
  0016a	cc		 int	 3
  0016b	33 c0		 xor	 eax, eax
$LN20@Adjust_man:
  0016d	8b 05 00 00 00
	00		 mov	 eax, DWORD PTR ?__LINE__Var@?0??_Adjust_manually_vector_aligned@std@@YAXAEAPEAXAEA_K@Z@4JA
  00173	83 c0 13	 add	 eax, 19
  00176	48 c7 44 24 20
	00 00 00 00	 mov	 QWORD PTR [rsp+32], 0
  0017f	44 8b c8	 mov	 r9d, eax
  00182	4c 8d 05 00 00
	00 00		 lea	 r8, OFFSET FLAT:??_C@_1ME@PPIEIJND@?$AAC?$AA?3?$AA?2?$AAP?$AAr?$AAo?$AAg?$AAr?$AAa?$AAm?$AA?5?$AAF?$AAi?$AAl?$AAe@
  00189	48 8d 15 00 00
	00 00		 lea	 rdx, OFFSET FLAT:??_C@_11LOCGONAA@@
  00190	48 8d 0d 00 00
	00 00		 lea	 rcx, OFFSET FLAT:??_C@_1CG@JNLFBNGN@?$AA?$CC?$AAi?$AAn?$AAv?$AAa?$AAl?$AAi?$AAd?$AA?5?$AAa?$AAr?$AAg?$AAu?$AAm?$AAe@
  00197	ff 15 00 00 00
	00		 call	 QWORD PTR __imp__invalid_parameter
  0019d	33 c0		 xor	 eax, eax
  0019f	85 c0		 test	 eax, eax
  001a1	75 89		 jne	 SHORT $LN13@Adjust_man
$LN17@Adjust_man:
  001a3	33 c0		 xor	 eax, eax
  001a5	85 c0		 test	 eax, eax
  001a7	0f 85 6f ff ff
	ff		 jne	 $LN10@Adjust_man

; 175  :     _Ptr = reinterpret_cast<void*>(_Ptr_container);

  001ad	48 8b 85 60 01
	00 00		 mov	 rax, QWORD PTR _Ptr$[rbp]
  001b4	48 8b 4d 28	 mov	 rcx, QWORD PTR _Ptr_container$[rbp]
  001b8	48 89 08	 mov	 QWORD PTR [rax], rcx

; 176  : }

  001bb	48 8d a5 48 01
	00 00		 lea	 rsp, QWORD PTR [rbp+328]
  001c2	5f		 pop	 rdi
  001c3	5d		 pop	 rbp
  001c4	c3		 ret	 0
?_Adjust_manually_vector_aligned@std@@YAXAEAPEAXAEA_K@Z ENDP ; std::_Adjust_manually_vector_aligned
_TEXT	ENDS
; Function compile flags: /Odtp /RTCsu /ZI
; File C:\Program Files\Microsoft Visual Studio\2022\Community\VC\Tools\MSVC\14.37.32822\include\xmemory
;	COMDAT ?_Allocate@_Default_allocate_traits@std@@SAPEAX_K@Z
_TEXT	SEGMENT
_Bytes$ = 224
?_Allocate@_Default_allocate_traits@std@@SAPEAX_K@Z PROC ; std::_Default_allocate_traits::_Allocate, COMDAT

; 86   :         void* _Allocate(const size_t _Bytes) {

$LN3:
  00000	48 89 4c 24 08	 mov	 QWORD PTR [rsp+8], rcx
  00005	55		 push	 rbp
  00006	57		 push	 rdi
  00007	48 81 ec e8 00
	00 00		 sub	 rsp, 232		; 000000e8H
  0000e	48 8d 6c 24 20	 lea	 rbp, QWORD PTR [rsp+32]
  00013	48 8d 0d 00 00
	00 00		 lea	 rcx, OFFSET FLAT:__A594BF75_xmemory
  0001a	e8 00 00 00 00	 call	 __CheckForDebuggerJustMyCode

; 87   :         return ::operator new(_Bytes);

  0001f	48 8b 8d e0 00
	00 00		 mov	 rcx, QWORD PTR _Bytes$[rbp]
  00026	e8 00 00 00 00	 call	 ??2@YAPEAX_K@Z		; operator new

; 88   :     }

  0002b	48 8d a5 c8 00
	00 00		 lea	 rsp, QWORD PTR [rbp+200]
  00032	5f		 pop	 rdi
  00033	5d		 pop	 rbp
  00034	c3		 ret	 0
?_Allocate@_Default_allocate_traits@std@@SAPEAX_K@Z ENDP ; std::_Default_allocate_traits::_Allocate
_TEXT	ENDS
; Function compile flags: /Odtp /RTCsu /ZI
; File C:\Program Files\Microsoft Visual Studio\2022\Community\VC\Tools\MSVC\14.37.32822\include\limits
;	COMDAT ?max@?$numeric_limits@_J@std@@SA_JXZ
_TEXT	SEGMENT
?max@?$numeric_limits@_J@std@@SA_JXZ PROC		; std::numeric_limits<__int64>::max, COMDAT

; 649  :     _NODISCARD static constexpr long long(max)() noexcept {

$LN3:
  00000	40 55		 push	 rbp
  00002	57		 push	 rdi
  00003	48 81 ec e8 00
	00 00		 sub	 rsp, 232		; 000000e8H
  0000a	48 8d 6c 24 20	 lea	 rbp, QWORD PTR [rsp+32]
  0000f	48 8d 0d 00 00
	00 00		 lea	 rcx, OFFSET FLAT:__EF41832C_limits
  00016	e8 00 00 00 00	 call	 __CheckForDebuggerJustMyCode

; 650  :         return LLONG_MAX;

  0001b	48 b8 ff ff ff
	ff ff ff ff 7f	 mov	 rax, 9223372036854775807 ; 7fffffffffffffffH

; 651  :     }

  00025	48 8d a5 c8 00
	00 00		 lea	 rsp, QWORD PTR [rbp+200]
  0002c	5f		 pop	 rdi
  0002d	5d		 pop	 rbp
  0002e	c3		 ret	 0
?max@?$numeric_limits@_J@std@@SA_JXZ ENDP		; std::numeric_limits<__int64>::max
_TEXT	ENDS
; Function compile flags: /Odtp /RTCsu /ZI
; File C:\Program Files\Microsoft Visual Studio\2022\Community\VC\Tools\MSVC\14.37.32822\include\exception
;	COMDAT ?_Throw_bad_array_new_length@std@@YAXXZ
_TEXT	SEGMENT
$T1 = 200
?_Throw_bad_array_new_length@std@@YAXXZ PROC		; std::_Throw_bad_array_new_length, COMDAT

; 331  : [[noreturn]] inline void _Throw_bad_array_new_length() {

$LN3:
  00000	40 55		 push	 rbp
  00002	57		 push	 rdi
  00003	48 81 ec 18 01
	00 00		 sub	 rsp, 280		; 00000118H
  0000a	48 8d 6c 24 20	 lea	 rbp, QWORD PTR [rsp+32]
  0000f	48 8d 0d 00 00
	00 00		 lea	 rcx, OFFSET FLAT:__7C536CCC_exception
  00016	e8 00 00 00 00	 call	 __CheckForDebuggerJustMyCode

; 332  :     _THROW(bad_array_new_length{});

  0001b	48 8d 8d c8 00
	00 00		 lea	 rcx, QWORD PTR $T1[rbp]
  00022	e8 00 00 00 00	 call	 ??0bad_array_new_length@std@@QEAA@XZ ; std::bad_array_new_length::bad_array_new_length
  00027	48 8d 15 00 00
	00 00		 lea	 rdx, OFFSET FLAT:_TI3?AVbad_array_new_length@std@@
  0002e	48 8d 8d c8 00
	00 00		 lea	 rcx, QWORD PTR $T1[rbp]
  00035	e8 00 00 00 00	 call	 _CxxThrowException
$LN2@Throw_bad_:

; 333  : }

  0003a	48 8d a5 f8 00
	00 00		 lea	 rsp, QWORD PTR [rbp+248]
  00041	5f		 pop	 rdi
  00042	5d		 pop	 rbp
  00043	c3		 ret	 0
?_Throw_bad_array_new_length@std@@YAXXZ ENDP		; std::_Throw_bad_array_new_length
_TEXT	ENDS
; Function compile flags: /Odtp /RTCsu /ZI
;	COMDAT ??_Gbad_array_new_length@std@@UEAAPEAXI@Z
_TEXT	SEGMENT
this$ = 224
__flags$ = 232
??_Gbad_array_new_length@std@@UEAAPEAXI@Z PROC		; std::bad_array_new_length::`scalar deleting destructor', COMDAT
$LN4:
  00000	89 54 24 10	 mov	 DWORD PTR [rsp+16], edx
  00004	48 89 4c 24 08	 mov	 QWORD PTR [rsp+8], rcx
  00009	55		 push	 rbp
  0000a	57		 push	 rdi
  0000b	48 81 ec e8 00
	00 00		 sub	 rsp, 232		; 000000e8H
  00012	48 8d 6c 24 20	 lea	 rbp, QWORD PTR [rsp+32]
  00017	48 8b 8d e0 00
	00 00		 mov	 rcx, QWORD PTR this$[rbp]
  0001e	e8 00 00 00 00	 call	 ??1bad_array_new_length@std@@UEAA@XZ
  00023	8b 85 e8 00 00
	00		 mov	 eax, DWORD PTR __flags$[rbp]
  00029	83 e0 01	 and	 eax, 1
  0002c	85 c0		 test	 eax, eax
  0002e	74 11		 je	 SHORT $LN2@scalar
  00030	ba 18 00 00 00	 mov	 edx, 24
  00035	48 8b 8d e0 00
	00 00		 mov	 rcx, QWORD PTR this$[rbp]
  0003c	e8 00 00 00 00	 call	 ??3@YAXPEAX_K@Z		; operator delete
$LN2@scalar:
  00041	48 8b 85 e0 00
	00 00		 mov	 rax, QWORD PTR this$[rbp]
  00048	48 8d a5 c8 00
	00 00		 lea	 rsp, QWORD PTR [rbp+200]
  0004f	5f		 pop	 rdi
  00050	5d		 pop	 rbp
  00051	c3		 ret	 0
??_Gbad_array_new_length@std@@UEAAPEAXI@Z ENDP		; std::bad_array_new_length::`scalar deleting destructor'
_TEXT	ENDS
; Function compile flags: /Odtp /RTCsu /ZI
;	COMDAT ??0bad_array_new_length@std@@QEAA@AEBV01@@Z
_TEXT	SEGMENT
this$ = 224
__that$ = 232
??0bad_array_new_length@std@@QEAA@AEBV01@@Z PROC	; std::bad_array_new_length::bad_array_new_length, COMDAT
$LN3:
  00000	48 89 54 24 10	 mov	 QWORD PTR [rsp+16], rdx
  00005	48 89 4c 24 08	 mov	 QWORD PTR [rsp+8], rcx
  0000a	55		 push	 rbp
  0000b	57		 push	 rdi
  0000c	48 81 ec e8 00
	00 00		 sub	 rsp, 232		; 000000e8H
  00013	48 8d 6c 24 20	 lea	 rbp, QWORD PTR [rsp+32]
  00018	48 8b 95 e8 00
	00 00		 mov	 rdx, QWORD PTR __that$[rbp]
  0001f	48 8b 8d e0 00
	00 00		 mov	 rcx, QWORD PTR this$[rbp]
  00026	e8 00 00 00 00	 call	 ??0bad_alloc@std@@QEAA@AEBV01@@Z
  0002b	48 8b 85 e0 00
	00 00		 mov	 rax, QWORD PTR this$[rbp]
  00032	48 8d 0d 00 00
	00 00		 lea	 rcx, OFFSET FLAT:??_7bad_array_new_length@std@@6B@
  00039	48 89 08	 mov	 QWORD PTR [rax], rcx
  0003c	48 8b 85 e0 00
	00 00		 mov	 rax, QWORD PTR this$[rbp]
  00043	48 8d a5 c8 00
	00 00		 lea	 rsp, QWORD PTR [rbp+200]
  0004a	5f		 pop	 rdi
  0004b	5d		 pop	 rbp
  0004c	c3		 ret	 0
??0bad_array_new_length@std@@QEAA@AEBV01@@Z ENDP	; std::bad_array_new_length::bad_array_new_length
_TEXT	ENDS
; Function compile flags: /Odtp /RTCsu /ZI
;	COMDAT ??1bad_array_new_length@std@@UEAA@XZ
_TEXT	SEGMENT
this$ = 224
??1bad_array_new_length@std@@UEAA@XZ PROC		; std::bad_array_new_length::~bad_array_new_length, COMDAT
$LN3:
  00000	48 89 4c 24 08	 mov	 QWORD PTR [rsp+8], rcx
  00005	55		 push	 rbp
  00006	57		 push	 rdi
  00007	48 81 ec e8 00
	00 00		 sub	 rsp, 232		; 000000e8H
  0000e	48 8d 6c 24 20	 lea	 rbp, QWORD PTR [rsp+32]
  00013	48 8b 8d e0 00
	00 00		 mov	 rcx, QWORD PTR this$[rbp]
  0001a	e8 00 00 00 00	 call	 ??1bad_alloc@std@@UEAA@XZ
  0001f	48 8d a5 c8 00
	00 00		 lea	 rsp, QWORD PTR [rbp+200]
  00026	5f		 pop	 rdi
  00027	5d		 pop	 rbp
  00028	c3		 ret	 0
??1bad_array_new_length@std@@UEAA@XZ ENDP		; std::bad_array_new_length::~bad_array_new_length
_TEXT	ENDS
; Function compile flags: /Odtp /RTCsu /ZI
; File C:\Program Files\Microsoft Visual Studio\2022\Community\VC\Tools\MSVC\14.37.32822\include\vcruntime_exception.h
;	COMDAT ??0bad_array_new_length@std@@QEAA@XZ
_TEXT	SEGMENT
this$ = 224
??0bad_array_new_length@std@@QEAA@XZ PROC		; std::bad_array_new_length::bad_array_new_length, COMDAT

; 141  :     {

$LN3:
  00000	48 89 4c 24 08	 mov	 QWORD PTR [rsp+8], rcx
  00005	55		 push	 rbp
  00006	57		 push	 rdi
  00007	48 81 ec e8 00
	00 00		 sub	 rsp, 232		; 000000e8H
  0000e	48 8d 6c 24 20	 lea	 rbp, QWORD PTR [rsp+32]
  00013	48 8d 0d 00 00
	00 00		 lea	 rcx, OFFSET FLAT:__E5C78335_vcruntime_exception@h
  0001a	e8 00 00 00 00	 call	 __CheckForDebuggerJustMyCode

; 140  :         : bad_alloc("bad array new length")

  0001f	48 8d 15 00 00
	00 00		 lea	 rdx, OFFSET FLAT:??_C@_0BF@KINCDENJ@bad?5array?5new?5length@
  00026	48 8b 8d e0 00
	00 00		 mov	 rcx, QWORD PTR this$[rbp]
  0002d	e8 00 00 00 00	 call	 ??0bad_alloc@std@@AEAA@QEBD@Z ; std::bad_alloc::bad_alloc

; 141  :     {

  00032	48 8b 85 e0 00
	00 00		 mov	 rax, QWORD PTR this$[rbp]
  00039	48 8d 0d 00 00
	00 00		 lea	 rcx, OFFSET FLAT:??_7bad_array_new_length@std@@6B@
  00040	48 89 08	 mov	 QWORD PTR [rax], rcx

; 142  :     }

  00043	48 8b 85 e0 00
	00 00		 mov	 rax, QWORD PTR this$[rbp]
  0004a	48 8d a5 c8 00
	00 00		 lea	 rsp, QWORD PTR [rbp+200]
  00051	5f		 pop	 rdi
  00052	5d		 pop	 rbp
  00053	c3		 ret	 0
??0bad_array_new_length@std@@QEAA@XZ ENDP		; std::bad_array_new_length::bad_array_new_length
_TEXT	ENDS
; Function compile flags: /Odtp /RTCsu /ZI
;	COMDAT ??_Gbad_alloc@std@@UEAAPEAXI@Z
_TEXT	SEGMENT
this$ = 224
__flags$ = 232
??_Gbad_alloc@std@@UEAAPEAXI@Z PROC			; std::bad_alloc::`scalar deleting destructor', COMDAT
$LN4:
  00000	89 54 24 10	 mov	 DWORD PTR [rsp+16], edx
  00004	48 89 4c 24 08	 mov	 QWORD PTR [rsp+8], rcx
  00009	55		 push	 rbp
  0000a	57		 push	 rdi
  0000b	48 81 ec e8 00
	00 00		 sub	 rsp, 232		; 000000e8H
  00012	48 8d 6c 24 20	 lea	 rbp, QWORD PTR [rsp+32]
  00017	48 8b 8d e0 00
	00 00		 mov	 rcx, QWORD PTR this$[rbp]
  0001e	e8 00 00 00 00	 call	 ??1bad_alloc@std@@UEAA@XZ
  00023	8b 85 e8 00 00
	00		 mov	 eax, DWORD PTR __flags$[rbp]
  00029	83 e0 01	 and	 eax, 1
  0002c	85 c0		 test	 eax, eax
  0002e	74 11		 je	 SHORT $LN2@scalar
  00030	ba 18 00 00 00	 mov	 edx, 24
  00035	48 8b 8d e0 00
	00 00		 mov	 rcx, QWORD PTR this$[rbp]
  0003c	e8 00 00 00 00	 call	 ??3@YAXPEAX_K@Z		; operator delete
$LN2@scalar:
  00041	48 8b 85 e0 00
	00 00		 mov	 rax, QWORD PTR this$[rbp]
  00048	48 8d a5 c8 00
	00 00		 lea	 rsp, QWORD PTR [rbp+200]
  0004f	5f		 pop	 rdi
  00050	5d		 pop	 rbp
  00051	c3		 ret	 0
??_Gbad_alloc@std@@UEAAPEAXI@Z ENDP			; std::bad_alloc::`scalar deleting destructor'
_TEXT	ENDS
; Function compile flags: /Odtp /RTCsu /ZI
;	COMDAT ??0bad_alloc@std@@QEAA@AEBV01@@Z
_TEXT	SEGMENT
this$ = 224
__that$ = 232
??0bad_alloc@std@@QEAA@AEBV01@@Z PROC			; std::bad_alloc::bad_alloc, COMDAT
$LN3:
  00000	48 89 54 24 10	 mov	 QWORD PTR [rsp+16], rdx
  00005	48 89 4c 24 08	 mov	 QWORD PTR [rsp+8], rcx
  0000a	55		 push	 rbp
  0000b	57		 push	 rdi
  0000c	48 81 ec e8 00
	00 00		 sub	 rsp, 232		; 000000e8H
  00013	48 8d 6c 24 20	 lea	 rbp, QWORD PTR [rsp+32]
  00018	48 8b 95 e8 00
	00 00		 mov	 rdx, QWORD PTR __that$[rbp]
  0001f	48 8b 8d e0 00
	00 00		 mov	 rcx, QWORD PTR this$[rbp]
  00026	e8 00 00 00 00	 call	 ??0exception@std@@QEAA@AEBV01@@Z ; std::exception::exception
  0002b	48 8b 85 e0 00
	00 00		 mov	 rax, QWORD PTR this$[rbp]
  00032	48 8d 0d 00 00
	00 00		 lea	 rcx, OFFSET FLAT:??_7bad_alloc@std@@6B@
  00039	48 89 08	 mov	 QWORD PTR [rax], rcx
  0003c	48 8b 85 e0 00
	00 00		 mov	 rax, QWORD PTR this$[rbp]
  00043	48 8d a5 c8 00
	00 00		 lea	 rsp, QWORD PTR [rbp+200]
  0004a	5f		 pop	 rdi
  0004b	5d		 pop	 rbp
  0004c	c3		 ret	 0
??0bad_alloc@std@@QEAA@AEBV01@@Z ENDP			; std::bad_alloc::bad_alloc
_TEXT	ENDS
; Function compile flags: /Odtp /RTCsu /ZI
;	COMDAT ??1bad_alloc@std@@UEAA@XZ
_TEXT	SEGMENT
this$ = 224
??1bad_alloc@std@@UEAA@XZ PROC				; std::bad_alloc::~bad_alloc, COMDAT
$LN3:
  00000	48 89 4c 24 08	 mov	 QWORD PTR [rsp+8], rcx
  00005	55		 push	 rbp
  00006	57		 push	 rdi
  00007	48 81 ec e8 00
	00 00		 sub	 rsp, 232		; 000000e8H
  0000e	48 8d 6c 24 20	 lea	 rbp, QWORD PTR [rsp+32]
  00013	48 8b 8d e0 00
	00 00		 mov	 rcx, QWORD PTR this$[rbp]
  0001a	e8 00 00 00 00	 call	 ??1exception@std@@UEAA@XZ ; std::exception::~exception
  0001f	48 8d a5 c8 00
	00 00		 lea	 rsp, QWORD PTR [rbp+200]
  00026	5f		 pop	 rdi
  00027	5d		 pop	 rbp
  00028	c3		 ret	 0
??1bad_alloc@std@@UEAA@XZ ENDP				; std::bad_alloc::~bad_alloc
_TEXT	ENDS
; Function compile flags: /Odtp /RTCsu /ZI
; File C:\Program Files\Microsoft Visual Studio\2022\Community\VC\Tools\MSVC\14.37.32822\include\vcruntime_exception.h
;	COMDAT ??0bad_alloc@std@@AEAA@QEBD@Z
_TEXT	SEGMENT
this$ = 224
_Message$ = 232
??0bad_alloc@std@@AEAA@QEBD@Z PROC			; std::bad_alloc::bad_alloc, COMDAT

; 130  :     {

$LN3:
  00000	48 89 54 24 10	 mov	 QWORD PTR [rsp+16], rdx
  00005	48 89 4c 24 08	 mov	 QWORD PTR [rsp+8], rcx
  0000a	55		 push	 rbp
  0000b	57		 push	 rdi
  0000c	48 81 ec e8 00
	00 00		 sub	 rsp, 232		; 000000e8H
  00013	48 8d 6c 24 20	 lea	 rbp, QWORD PTR [rsp+32]
  00018	48 8d 0d 00 00
	00 00		 lea	 rcx, OFFSET FLAT:__E5C78335_vcruntime_exception@h
  0001f	e8 00 00 00 00	 call	 __CheckForDebuggerJustMyCode

; 129  :         : exception(_Message, 1)

  00024	41 b8 01 00 00
	00		 mov	 r8d, 1
  0002a	48 8b 95 e8 00
	00 00		 mov	 rdx, QWORD PTR _Message$[rbp]
  00031	48 8b 8d e0 00
	00 00		 mov	 rcx, QWORD PTR this$[rbp]
  00038	e8 00 00 00 00	 call	 ??0exception@std@@QEAA@QEBDH@Z ; std::exception::exception

; 130  :     {

  0003d	48 8b 85 e0 00
	00 00		 mov	 rax, QWORD PTR this$[rbp]
  00044	48 8d 0d 00 00
	00 00		 lea	 rcx, OFFSET FLAT:??_7bad_alloc@std@@6B@
  0004b	48 89 08	 mov	 QWORD PTR [rax], rcx

; 131  :     }

  0004e	48 8b 85 e0 00
	00 00		 mov	 rax, QWORD PTR this$[rbp]
  00055	48 8d a5 c8 00
	00 00		 lea	 rsp, QWORD PTR [rbp+200]
  0005c	5f		 pop	 rdi
  0005d	5d		 pop	 rbp
  0005e	c3		 ret	 0
??0bad_alloc@std@@AEAA@QEBD@Z ENDP			; std::bad_alloc::bad_alloc
_TEXT	ENDS
; Function compile flags: /Odtp /RTCsu /ZI
;	COMDAT ??_Gexception@std@@UEAAPEAXI@Z
_TEXT	SEGMENT
this$ = 224
__flags$ = 232
??_Gexception@std@@UEAAPEAXI@Z PROC			; std::exception::`scalar deleting destructor', COMDAT
$LN4:
  00000	89 54 24 10	 mov	 DWORD PTR [rsp+16], edx
  00004	48 89 4c 24 08	 mov	 QWORD PTR [rsp+8], rcx
  00009	55		 push	 rbp
  0000a	57		 push	 rdi
  0000b	48 81 ec e8 00
	00 00		 sub	 rsp, 232		; 000000e8H
  00012	48 8d 6c 24 20	 lea	 rbp, QWORD PTR [rsp+32]
  00017	48 8b 8d e0 00
	00 00		 mov	 rcx, QWORD PTR this$[rbp]
  0001e	e8 00 00 00 00	 call	 ??1exception@std@@UEAA@XZ ; std::exception::~exception
  00023	8b 85 e8 00 00
	00		 mov	 eax, DWORD PTR __flags$[rbp]
  00029	83 e0 01	 and	 eax, 1
  0002c	85 c0		 test	 eax, eax
  0002e	74 11		 je	 SHORT $LN2@scalar
  00030	ba 18 00 00 00	 mov	 edx, 24
  00035	48 8b 8d e0 00
	00 00		 mov	 rcx, QWORD PTR this$[rbp]
  0003c	e8 00 00 00 00	 call	 ??3@YAXPEAX_K@Z		; operator delete
$LN2@scalar:
  00041	48 8b 85 e0 00
	00 00		 mov	 rax, QWORD PTR this$[rbp]
  00048	48 8d a5 c8 00
	00 00		 lea	 rsp, QWORD PTR [rbp+200]
  0004f	5f		 pop	 rdi
  00050	5d		 pop	 rbp
  00051	c3		 ret	 0
??_Gexception@std@@UEAAPEAXI@Z ENDP			; std::exception::`scalar deleting destructor'
_TEXT	ENDS
; Function compile flags: /Odtp /RTCsu /ZI
; File C:\Program Files\Microsoft Visual Studio\2022\Community\VC\Tools\MSVC\14.37.32822\include\vcruntime_exception.h
;	COMDAT ?what@exception@std@@UEBAPEBDXZ
_TEXT	SEGMENT
tv69 = 192
this$ = 240
?what@exception@std@@UEBAPEBDXZ PROC			; std::exception::what, COMDAT

; 94   :     {

$LN5:
  00000	48 89 4c 24 08	 mov	 QWORD PTR [rsp+8], rcx
  00005	55		 push	 rbp
  00006	57		 push	 rdi
  00007	48 81 ec f8 00
	00 00		 sub	 rsp, 248		; 000000f8H
  0000e	48 8d 6c 24 20	 lea	 rbp, QWORD PTR [rsp+32]
  00013	48 8d 0d 00 00
	00 00		 lea	 rcx, OFFSET FLAT:__E5C78335_vcruntime_exception@h
  0001a	e8 00 00 00 00	 call	 __CheckForDebuggerJustMyCode

; 95   :         return _Data._What ? _Data._What : "Unknown exception";

  0001f	48 8b 85 f0 00
	00 00		 mov	 rax, QWORD PTR this$[rbp]
  00026	48 83 78 08 00	 cmp	 QWORD PTR [rax+8], 0
  0002b	74 14		 je	 SHORT $LN3@what
  0002d	48 8b 85 f0 00
	00 00		 mov	 rax, QWORD PTR this$[rbp]
  00034	48 8b 40 08	 mov	 rax, QWORD PTR [rax+8]
  00038	48 89 85 c0 00
	00 00		 mov	 QWORD PTR tv69[rbp], rax
  0003f	eb 0e		 jmp	 SHORT $LN4@what
$LN3@what:
  00041	48 8d 05 00 00
	00 00		 lea	 rax, OFFSET FLAT:??_C@_0BC@EOODALEL@Unknown?5exception@
  00048	48 89 85 c0 00
	00 00		 mov	 QWORD PTR tv69[rbp], rax
$LN4@what:
  0004f	48 8b 85 c0 00
	00 00		 mov	 rax, QWORD PTR tv69[rbp]

; 96   :     }

  00056	48 8d a5 d8 00
	00 00		 lea	 rsp, QWORD PTR [rbp+216]
  0005d	5f		 pop	 rdi
  0005e	5d		 pop	 rbp
  0005f	c3		 ret	 0
?what@exception@std@@UEBAPEBDXZ ENDP			; std::exception::what
_TEXT	ENDS
; Function compile flags: /Odtp /RTCsu /ZI
; File C:\Program Files\Microsoft Visual Studio\2022\Community\VC\Tools\MSVC\14.37.32822\include\vcruntime_exception.h
;	COMDAT ??1exception@std@@UEAA@XZ
_TEXT	SEGMENT
this$ = 224
??1exception@std@@UEAA@XZ PROC				; std::exception::~exception, COMDAT

; 89   :     {

$LN3:
  00000	48 89 4c 24 08	 mov	 QWORD PTR [rsp+8], rcx
  00005	55		 push	 rbp
  00006	57		 push	 rdi
  00007	48 81 ec e8 00
	00 00		 sub	 rsp, 232		; 000000e8H
  0000e	48 8d 6c 24 20	 lea	 rbp, QWORD PTR [rsp+32]
  00013	48 8d 0d 00 00
	00 00		 lea	 rcx, OFFSET FLAT:__E5C78335_vcruntime_exception@h
  0001a	e8 00 00 00 00	 call	 __CheckForDebuggerJustMyCode
  0001f	48 8b 85 e0 00
	00 00		 mov	 rax, QWORD PTR this$[rbp]
  00026	48 8d 0d 00 00
	00 00		 lea	 rcx, OFFSET FLAT:??_7exception@std@@6B@
  0002d	48 89 08	 mov	 QWORD PTR [rax], rcx

; 90   :         __std_exception_destroy(&_Data);

  00030	48 8b 85 e0 00
	00 00		 mov	 rax, QWORD PTR this$[rbp]
  00037	48 83 c0 08	 add	 rax, 8
  0003b	48 8b c8	 mov	 rcx, rax
  0003e	e8 00 00 00 00	 call	 __std_exception_destroy

; 91   :     }

  00043	48 8d a5 c8 00
	00 00		 lea	 rsp, QWORD PTR [rbp+200]
  0004a	5f		 pop	 rdi
  0004b	5d		 pop	 rbp
  0004c	c3		 ret	 0
??1exception@std@@UEAA@XZ ENDP				; std::exception::~exception
_TEXT	ENDS
; Function compile flags: /Odtp /RTCsu /ZI
; File C:\Program Files\Microsoft Visual Studio\2022\Community\VC\Tools\MSVC\14.37.32822\include\vcruntime_exception.h
;	COMDAT ??0exception@std@@QEAA@AEBV01@@Z
_TEXT	SEGMENT
this$ = 224
_Other$ = 232
??0exception@std@@QEAA@AEBV01@@Z PROC			; std::exception::exception, COMDAT

; 72   :     {

$LN3:
  00000	48 89 54 24 10	 mov	 QWORD PTR [rsp+16], rdx
  00005	48 89 4c 24 08	 mov	 QWORD PTR [rsp+8], rcx
  0000a	55		 push	 rbp
  0000b	57		 push	 rdi
  0000c	48 81 ec e8 00
	00 00		 sub	 rsp, 232		; 000000e8H
  00013	48 8d 6c 24 20	 lea	 rbp, QWORD PTR [rsp+32]
  00018	48 8d 0d 00 00
	00 00		 lea	 rcx, OFFSET FLAT:__E5C78335_vcruntime_exception@h
  0001f	e8 00 00 00 00	 call	 __CheckForDebuggerJustMyCode
  00024	48 8b 85 e0 00
	00 00		 mov	 rax, QWORD PTR this$[rbp]
  0002b	48 8d 0d 00 00
	00 00		 lea	 rcx, OFFSET FLAT:??_7exception@std@@6B@
  00032	48 89 08	 mov	 QWORD PTR [rax], rcx

; 71   :         : _Data()

  00035	48 8b 85 e0 00
	00 00		 mov	 rax, QWORD PTR this$[rbp]
  0003c	48 83 c0 08	 add	 rax, 8
  00040	48 8b f8	 mov	 rdi, rax
  00043	33 c0		 xor	 eax, eax
  00045	b9 10 00 00 00	 mov	 ecx, 16
  0004a	f3 aa		 rep stosb

; 73   :         __std_exception_copy(&_Other._Data, &_Data);

  0004c	48 8b 85 e0 00
	00 00		 mov	 rax, QWORD PTR this$[rbp]
  00053	48 83 c0 08	 add	 rax, 8
  00057	48 8b 8d e8 00
	00 00		 mov	 rcx, QWORD PTR _Other$[rbp]
  0005e	48 83 c1 08	 add	 rcx, 8
  00062	48 8b d0	 mov	 rdx, rax
  00065	e8 00 00 00 00	 call	 __std_exception_copy

; 74   :     }

  0006a	48 8b 85 e0 00
	00 00		 mov	 rax, QWORD PTR this$[rbp]
  00071	48 8d a5 c8 00
	00 00		 lea	 rsp, QWORD PTR [rbp+200]
  00078	5f		 pop	 rdi
  00079	5d		 pop	 rbp
  0007a	c3		 ret	 0
??0exception@std@@QEAA@AEBV01@@Z ENDP			; std::exception::exception
_TEXT	ENDS
; Function compile flags: /Odtp /RTCsu /ZI
; File C:\Program Files\Microsoft Visual Studio\2022\Community\VC\Tools\MSVC\14.37.32822\include\vcruntime_exception.h
;	COMDAT ??0exception@std@@QEAA@QEBDH@Z
_TEXT	SEGMENT
this$ = 224
_Message$ = 232
__formal$ = 240
??0exception@std@@QEAA@QEBDH@Z PROC			; std::exception::exception, COMDAT

; 66   :     {

$LN3:
  00000	44 89 44 24 18	 mov	 DWORD PTR [rsp+24], r8d
  00005	48 89 54 24 10	 mov	 QWORD PTR [rsp+16], rdx
  0000a	48 89 4c 24 08	 mov	 QWORD PTR [rsp+8], rcx
  0000f	55		 push	 rbp
  00010	57		 push	 rdi
  00011	48 81 ec e8 00
	00 00		 sub	 rsp, 232		; 000000e8H
  00018	48 8d 6c 24 20	 lea	 rbp, QWORD PTR [rsp+32]
  0001d	48 8d 0d 00 00
	00 00		 lea	 rcx, OFFSET FLAT:__E5C78335_vcruntime_exception@h
  00024	e8 00 00 00 00	 call	 __CheckForDebuggerJustMyCode
  00029	48 8b 85 e0 00
	00 00		 mov	 rax, QWORD PTR this$[rbp]
  00030	48 8d 0d 00 00
	00 00		 lea	 rcx, OFFSET FLAT:??_7exception@std@@6B@
  00037	48 89 08	 mov	 QWORD PTR [rax], rcx

; 65   :         : _Data()

  0003a	48 8b 85 e0 00
	00 00		 mov	 rax, QWORD PTR this$[rbp]
  00041	48 83 c0 08	 add	 rax, 8
  00045	48 8b f8	 mov	 rdi, rax
  00048	33 c0		 xor	 eax, eax
  0004a	b9 10 00 00 00	 mov	 ecx, 16
  0004f	f3 aa		 rep stosb

; 67   :         _Data._What = _Message;

  00051	48 8b 85 e0 00
	00 00		 mov	 rax, QWORD PTR this$[rbp]
  00058	48 8b 8d e8 00
	00 00		 mov	 rcx, QWORD PTR _Message$[rbp]
  0005f	48 89 48 08	 mov	 QWORD PTR [rax+8], rcx

; 68   :     }

  00063	48 8b 85 e0 00
	00 00		 mov	 rax, QWORD PTR this$[rbp]
  0006a	48 8d a5 c8 00
	00 00		 lea	 rsp, QWORD PTR [rbp+200]
  00071	5f		 pop	 rdi
  00072	5d		 pop	 rbp
  00073	c3		 ret	 0
??0exception@std@@QEAA@QEBDH@Z ENDP			; std::exception::exception
_TEXT	ENDS
; Function compile flags: /Odtp /RTCsu /ZI
; File C:\Program Files\Microsoft Visual Studio\2022\Community\VC\Tools\MSVC\14.37.32822\include\vcruntime_new.h
;	COMDAT ??2@YAPEAX_KPEAX@Z
_TEXT	SEGMENT
_Size$ = 224
_Where$ = 232
??2@YAPEAX_KPEAX@Z PROC					; operator new, COMDAT

; 168  :     {

$LN3:
  00000	48 89 54 24 10	 mov	 QWORD PTR [rsp+16], rdx
  00005	48 89 4c 24 08	 mov	 QWORD PTR [rsp+8], rcx
  0000a	55		 push	 rbp
  0000b	57		 push	 rdi
  0000c	48 81 ec e8 00
	00 00		 sub	 rsp, 232		; 000000e8H
  00013	48 8d 6c 24 20	 lea	 rbp, QWORD PTR [rsp+32]
  00018	48 8d 0d 00 00
	00 00		 lea	 rcx, OFFSET FLAT:__D5F74309_vcruntime_new@h
  0001f	e8 00 00 00 00	 call	 __CheckForDebuggerJustMyCode

; 169  :         (void)_Size;
; 170  :         return _Where;

  00024	48 8b 85 e8 00
	00 00		 mov	 rax, QWORD PTR _Where$[rbp]

; 171  :     }

  0002b	48 8d a5 c8 00
	00 00		 lea	 rsp, QWORD PTR [rbp+200]
  00032	5f		 pop	 rdi
  00033	5d		 pop	 rbp
  00034	c3		 ret	 0
??2@YAPEAX_KPEAX@Z ENDP					; operator new
_TEXT	ENDS
; Function compile flags: /Odtp /RTCsu /ZI
; File D:\ \\lab01\lab01\lab01.cpp
;	COMDAT ?__empty_global_delete@@YAXPEAX_K@Z
_TEXT	SEGMENT
__formal$ = 224
__formal$ = 232
?__empty_global_delete@@YAXPEAX_K@Z PROC		; __empty_global_delete, COMDAT

$LN3:
  00000	48 89 54 24 10	 mov	 QWORD PTR [rsp+16], rdx
  00005	48 89 4c 24 08	 mov	 QWORD PTR [rsp+8], rcx
  0000a	55		 push	 rbp
  0000b	57		 push	 rdi
  0000c	48 81 ec e8 00
	00 00		 sub	 rsp, 232		; 000000e8H
  00013	48 8d 6c 24 20	 lea	 rbp, QWORD PTR [rsp+32]
  00018	48 8d 0d 00 00
	00 00		 lea	 rcx, OFFSET FLAT:__4F602630_lab01@cpp
  0001f	e8 00 00 00 00	 call	 __CheckForDebuggerJustMyCode
  00024	48 8d a5 c8 00
	00 00		 lea	 rsp, QWORD PTR [rbp+200]
  0002b	5f		 pop	 rdi
  0002c	5d		 pop	 rbp
  0002d	c3		 ret	 0
?__empty_global_delete@@YAXPEAX_K@Z ENDP		; __empty_global_delete
_TEXT	ENDS
; Function compile flags: /Odtp /RTCsu /ZI
; File D:\ \\lab01\lab01\lab01.cpp
;	COMDAT ?__empty_global_delete@@YAXPEAX@Z
_TEXT	SEGMENT
__formal$ = 224
?__empty_global_delete@@YAXPEAX@Z PROC			; __empty_global_delete, COMDAT

$LN3:
  00000	48 89 4c 24 08	 mov	 QWORD PTR [rsp+8], rcx
  00005	55		 push	 rbp
  00006	57		 push	 rdi
  00007	48 81 ec e8 00
	00 00		 sub	 rsp, 232		; 000000e8H
  0000e	48 8d 6c 24 20	 lea	 rbp, QWORD PTR [rsp+32]
  00013	48 8d 0d 00 00
	00 00		 lea	 rcx, OFFSET FLAT:__4F602630_lab01@cpp
  0001a	e8 00 00 00 00	 call	 __CheckForDebuggerJustMyCode
  0001f	48 8d a5 c8 00
	00 00		 lea	 rsp, QWORD PTR [rbp+200]
  00026	5f		 pop	 rdi
  00027	5d		 pop	 rbp
  00028	c3		 ret	 0
?__empty_global_delete@@YAXPEAX@Z ENDP			; __empty_global_delete
_TEXT	ENDS
END
